; ModuleID = 'apple.cpp'
target datalayout = "e-p:32:32:32-i1:8:8-i8:8:8-i16:16:16-i32:32:32-i64:32:64-f32:32:32-f64:32:64-v64:64:64-v128:128:128-a0:0:64-f80:32:32-n8:16:32-S128"
target triple = "i386-pc-linux-gnu"

%"class.FruitClick::Apple" = type { %"class.FruitClick::B2DObject" }
%"class.FruitClick::B2DObject" = type { i32 (...)**, %class.b2World*, %class.b2Body* }
%class.b2World = type { %class.b2BlockAllocator, %class.b2StackAllocator, i32, %class.b2ContactManager, %class.b2Body*, %class.b2Joint*, i32, i32, %struct.b2Vec2, i8, %class.b2DestructionListener*, %class.b2Draw*, float, i8, i8, i8, i8, %struct.b2Profile }
%class.b2BlockAllocator = type { %struct.b2Chunk*, i32, i32, [14 x %struct.b2Block*] }
%struct.b2Chunk = type opaque
%struct.b2Block = type opaque
%class.b2StackAllocator = type { [102400 x i8], i32, i32, i32, [32 x %struct.b2StackEntry], i32 }
%struct.b2StackEntry = type { i8*, i32, i8 }
%class.b2ContactManager = type { %class.b2BroadPhase, %class.b2Contact*, i32, %class.b2ContactFilter*, %class.b2ContactListener*, %class.b2BlockAllocator* }
%class.b2BroadPhase = type { %class.b2DynamicTree, i32, i32*, i32, i32, %struct.b2Pair*, i32, i32, i32 }
%class.b2DynamicTree = type { i32, %struct.b2TreeNode*, i32, i32, i32, i32, i32 }
%struct.b2TreeNode = type { %struct.b2AABB, i8*, %union.anon, i32, i32, i32 }
%struct.b2AABB = type { %struct.b2Vec2, %struct.b2Vec2 }
%struct.b2Vec2 = type { float, float }
%union.anon = type { i32 }
%struct.b2Pair = type { i32, i32, i32 }
%class.b2Contact = type { i32 (...)**, i32, %class.b2Contact*, %class.b2Contact*, %struct.b2ContactEdge, %struct.b2ContactEdge, %class.b2Fixture*, %class.b2Fixture*, i32, i32, %struct.b2Manifold, i32, float, float, float }
%struct.b2ContactEdge = type { %class.b2Body*, %class.b2Contact*, %struct.b2ContactEdge*, %struct.b2ContactEdge* }
%class.b2Body = type { i32, i16, i32, %struct.b2Transform, %struct.b2Sweep, %struct.b2Vec2, float, %struct.b2Vec2, float, %class.b2World*, %class.b2Body*, %class.b2Body*, %class.b2Fixture*, i32, %struct.b2JointEdge*, %struct.b2ContactEdge*, float, float, float, float, float, float, float, float, i8* }
%struct.b2Transform = type { %struct.b2Vec2, %struct.b2Rot }
%struct.b2Rot = type { float, float }
%struct.b2Sweep = type { %struct.b2Vec2, %struct.b2Vec2, %struct.b2Vec2, float, float, float }
%class.b2Fixture = type { float, %class.b2Fixture*, %class.b2Body*, %class.b2Shape*, float, float, %struct.b2FixtureProxy*, i32, %struct.b2Filter, i8, i8* }
%class.b2Shape = type { i32 (...)**, i32, float }
%struct.b2FixtureProxy = type { %struct.b2AABB, %class.b2Fixture*, i32, i32 }
%struct.b2Filter = type { i16, i16, i16 }
%struct.b2JointEdge = type { %class.b2Body*, %class.b2Joint*, %struct.b2JointEdge*, %struct.b2JointEdge* }
%class.b2Joint = type { i32 (...)**, i32, %class.b2Joint*, %class.b2Joint*, %struct.b2JointEdge, %struct.b2JointEdge, %class.b2Body*, %class.b2Body*, i32, i8, i8, i8* }
%struct.b2Manifold = type { [2 x %struct.b2ManifoldPoint], %struct.b2Vec2, %struct.b2Vec2, i32, i32 }
%struct.b2ManifoldPoint = type { %struct.b2Vec2, float, float, %union.b2ContactID }
%union.b2ContactID = type { i32 }
%class.b2ContactFilter = type { i32 (...)** }
%class.b2ContactListener = type { i32 (...)** }
%class.b2DestructionListener = type { i32 (...)** }
%class.b2Draw = type { i32 (...)**, i32 }
%struct.b2Profile = type { float, float, float, float, float, float, float, float }
%struct.b2BodyDef = type { i32, %struct.b2Vec2, float, %struct.b2Vec2, float, float, float, i8, i8, i8, i8, i8, i8*, float }
%class.b2CircleShape = type { %class.b2Shape, %struct.b2Vec2 }
%struct.b2FixtureDef = type { %class.b2Shape*, i8*, float, float, float, i8, %struct.b2Filter }

@_ZTVN10FruitClick5AppleE = linkonce_odr unnamed_addr constant [4 x i8*] [i8* null, i8* bitcast ({ i8*, i8*, i8* }* @_ZTIN10FruitClick5AppleE to i8*), i8* bitcast (void (%"class.FruitClick::Apple"*)* @_ZN10FruitClick5AppleD1Ev to i8*), i8* bitcast (void (%"class.FruitClick::Apple"*)* @_ZN10FruitClick5AppleD0Ev to i8*)]
@_ZTVN10__cxxabiv120__si_class_type_infoE = external global i8*
@_ZTSN10FruitClick5AppleE = linkonce_odr constant [21 x i8] c"N10FruitClick5AppleE\00"
@_ZTIN10FruitClick9B2DObjectE = external constant i8*
@_ZTIN10FruitClick5AppleE = linkonce_odr unnamed_addr constant { i8*, i8*, i8* } { i8* bitcast (i8** getelementptr inbounds (i8** @_ZTVN10__cxxabiv120__si_class_type_infoE, i32 2) to i8*), i8* getelementptr inbounds ([21 x i8]* @_ZTSN10FruitClick5AppleE, i32 0, i32 0), i8* bitcast (i8** @_ZTIN10FruitClick9B2DObjectE to i8*) }
@_ZTV13b2CircleShape = external unnamed_addr constant [10 x i8*]
@_ZTV7b2Shape = linkonce_odr unnamed_addr constant [10 x i8*] [i8* null, i8* bitcast ({ i8*, i8* }* @_ZTI7b2Shape to i8*), i8* bitcast (void (%class.b2Shape*)* @_ZN7b2ShapeD1Ev to i8*), i8* bitcast (void (%class.b2Shape*)* @_ZN7b2ShapeD0Ev to i8*), i8* bitcast (void ()* @__cxa_pure_virtual to i8*), i8* bitcast (void ()* @__cxa_pure_virtual to i8*), i8* bitcast (void ()* @__cxa_pure_virtual to i8*), i8* bitcast (void ()* @__cxa_pure_virtual to i8*), i8* bitcast (void ()* @__cxa_pure_virtual to i8*), i8* bitcast (void ()* @__cxa_pure_virtual to i8*)]
@_ZTVN10__cxxabiv117__class_type_infoE = external global i8*
@_ZTS7b2Shape = linkonce_odr constant [9 x i8] c"7b2Shape\00"
@_ZTI7b2Shape = linkonce_odr unnamed_addr constant { i8*, i8* } { i8* bitcast (i8** getelementptr inbounds (i8** @_ZTVN10__cxxabiv117__class_type_infoE, i32 2) to i8*), i8* getelementptr inbounds ([9 x i8]* @_ZTS7b2Shape, i32 0, i32 0) }

@_ZN10FruitClick5AppleC1ER7b2World = alias void (%"class.FruitClick::Apple"*, %class.b2World*)* @_ZN10FruitClick5AppleC2ER7b2World

define void @_ZN10FruitClick5AppleC2ER7b2World(%"class.FruitClick::Apple"* %this, %class.b2World* %world) unnamed_addr align 2 {
  %1 = alloca %"class.FruitClick::Apple"*, align 4
  %2 = alloca %class.b2World*, align 4
  %bodyDef = alloca %struct.b2BodyDef, align 4
  %3 = alloca i8*
  %4 = alloca i32
  %shape = alloca %class.b2CircleShape, align 4
  %body = alloca %class.b2Body*, align 4
  %fixtureDef = alloca %struct.b2FixtureDef, align 4
  store %"class.FruitClick::Apple"* %this, %"class.FruitClick::Apple"** %1, align 4
  call void @llvm.dbg.declare(metadata !{%"class.FruitClick::Apple"** %1}, metadata !3704), !dbg !3705
  store %class.b2World* %world, %class.b2World** %2, align 4
  call void @llvm.dbg.declare(metadata !{%class.b2World** %2}, metadata !3706), !dbg !3707
  %5 = load %"class.FruitClick::Apple"** %1
  %6 = bitcast %"class.FruitClick::Apple"* %5 to %"class.FruitClick::B2DObject"*, !dbg !3708
  %7 = load %class.b2World** %2, !dbg !3708
  call void @_ZN10FruitClick9B2DObjectC2ER7b2World(%"class.FruitClick::B2DObject"* %6, %class.b2World* %7), !dbg !3708
  %8 = bitcast %"class.FruitClick::Apple"* %5 to i8***, !dbg !3708
  store i8** getelementptr inbounds ([4 x i8*]* @_ZTVN10FruitClick5AppleE, i64 0, i64 2), i8*** %8, !dbg !3708
  call void @llvm.dbg.declare(metadata !{%struct.b2BodyDef* %bodyDef}, metadata !3709), !dbg !3711
  invoke void @_ZN9b2BodyDefC1Ev(%struct.b2BodyDef* %bodyDef)
          to label %9 unwind label %35, !dbg !3712

; <label>:9                                       ; preds = %0
  %10 = getelementptr inbounds %struct.b2BodyDef* %bodyDef, i32 0, i32 0, !dbg !3713
  store i32 2, i32* %10, align 4, !dbg !3713
  call void @llvm.dbg.declare(metadata !{%class.b2CircleShape* %shape}, metadata !3714), !dbg !3715
  invoke void @_ZN13b2CircleShapeC1Ev(%class.b2CircleShape* %shape)
          to label %11 unwind label %35, !dbg !3716

; <label>:11                                      ; preds = %9
  %12 = invoke float @_ZN10FruitClick7toWorldEf(float 2.500000e+01)
          to label %13 unwind label %39, !dbg !3717

; <label>:13                                      ; preds = %11
  %14 = bitcast %class.b2CircleShape* %shape to %class.b2Shape*, !dbg !3717
  %15 = getelementptr inbounds %class.b2Shape* %14, i32 0, i32 2, !dbg !3717
  store float %12, float* %15, align 4, !dbg !3717
  call void @llvm.dbg.declare(metadata !{%class.b2Body** %body}, metadata !3718), !dbg !3719
  %16 = load %class.b2World** %2, !dbg !3720
  %17 = invoke %class.b2Body* @_ZN7b2World10CreateBodyEPK9b2BodyDef(%class.b2World* %16, %struct.b2BodyDef* %bodyDef)
          to label %18 unwind label %39, !dbg !3720

; <label>:18                                      ; preds = %13
  store %class.b2Body* %17, %class.b2Body** %body, align 4, !dbg !3720
  call void @llvm.dbg.declare(metadata !{%struct.b2FixtureDef* %fixtureDef}, metadata !3721), !dbg !3722
  invoke void @_ZN12b2FixtureDefC1Ev(%struct.b2FixtureDef* %fixtureDef)
          to label %19 unwind label %39, !dbg !3723

; <label>:19                                      ; preds = %18
  %20 = bitcast %class.b2CircleShape* %shape to %class.b2Shape*, !dbg !3724
  %21 = getelementptr inbounds %struct.b2FixtureDef* %fixtureDef, i32 0, i32 0, !dbg !3724
  store %class.b2Shape* %20, %class.b2Shape** %21, align 4, !dbg !3724
  %22 = getelementptr inbounds %struct.b2FixtureDef* %fixtureDef, i32 0, i32 4, !dbg !3725
  store float 1.000000e+01, float* %22, align 4, !dbg !3725
  %23 = getelementptr inbounds %struct.b2FixtureDef* %fixtureDef, i32 0, i32 2, !dbg !3726
  store float 1.000000e+00, float* %23, align 4, !dbg !3726
  %24 = getelementptr inbounds %struct.b2FixtureDef* %fixtureDef, i32 0, i32 3, !dbg !3727
  store float 0x3FE99999A0000000, float* %24, align 4, !dbg !3727
  %25 = load %class.b2Body** %body, align 4, !dbg !3728
  %26 = invoke %class.b2Fixture* @_ZN6b2Body13CreateFixtureEPK12b2FixtureDef(%class.b2Body* %25, %struct.b2FixtureDef* %fixtureDef)
          to label %27 unwind label %39, !dbg !3728

; <label>:27                                      ; preds = %19
  %28 = load %class.b2Body** %body, align 4, !dbg !3729
  %29 = bitcast %"class.FruitClick::Apple"* %5 to %"class.FruitClick::B2DObject"*, !dbg !3729
  %30 = getelementptr inbounds %"class.FruitClick::B2DObject"* %29, i32 0, i32 2, !dbg !3729
  store %class.b2Body* %28, %class.b2Body** %30, align 4, !dbg !3729
  %31 = load %class.b2Body** %body, align 4, !dbg !3730
  %32 = bitcast %"class.FruitClick::Apple"* %5 to i8*, !dbg !3730
  invoke void @_ZN6b2Body11SetUserDataEPv(%class.b2Body* %31, i8* %32)
          to label %33 unwind label %39, !dbg !3730

; <label>:33                                      ; preds = %27
  invoke void @_ZN13b2CircleShapeD1Ev(%class.b2CircleShape* %shape)
          to label %34 unwind label %35, !dbg !3731

; <label>:34                                      ; preds = %33
  ret void, !dbg !3731

; <label>:35                                      ; preds = %33, %9, %0
  %36 = landingpad { i8*, i32 } personality i8* bitcast (i32 (...)* @__gxx_personality_v0 to i8*)
          cleanup, !dbg !3712
  %37 = extractvalue { i8*, i32 } %36, 0, !dbg !3712
  store i8* %37, i8** %3, !dbg !3712
  %38 = extractvalue { i8*, i32 } %36, 1, !dbg !3712
  store i32 %38, i32* %4, !dbg !3712
  br label %44, !dbg !3712

; <label>:39                                      ; preds = %27, %19, %18, %13, %11
  %40 = landingpad { i8*, i32 } personality i8* bitcast (i32 (...)* @__gxx_personality_v0 to i8*)
          cleanup, !dbg !3717
  %41 = extractvalue { i8*, i32 } %40, 0, !dbg !3717
  store i8* %41, i8** %3, !dbg !3717
  %42 = extractvalue { i8*, i32 } %40, 1, !dbg !3717
  store i32 %42, i32* %4, !dbg !3717
  invoke void @_ZN13b2CircleShapeD1Ev(%class.b2CircleShape* %shape)
          to label %43 unwind label %53, !dbg !3731

; <label>:43                                      ; preds = %39
  br label %44, !dbg !3731

; <label>:44                                      ; preds = %43, %35
  %45 = bitcast %"class.FruitClick::Apple"* %5 to %"class.FruitClick::B2DObject"*, !dbg !3731
  invoke void @_ZN10FruitClick9B2DObjectD2Ev(%"class.FruitClick::B2DObject"* %45)
          to label %46 unwind label %53, !dbg !3731

; <label>:46                                      ; preds = %44
  br label %47, !dbg !3731

; <label>:47                                      ; preds = %46
  %48 = load i8** %3, !dbg !3731
  %49 = load i8** %3, !dbg !3731
  %50 = load i32* %4, !dbg !3731
  %51 = insertvalue { i8*, i32 } undef, i8* %49, 0, !dbg !3731
  %52 = insertvalue { i8*, i32 } %51, i32 %50, 1, !dbg !3731
  resume { i8*, i32 } %52, !dbg !3731

; <label>:53                                      ; preds = %44, %39
  %54 = landingpad { i8*, i32 } personality i8* bitcast (i32 (...)* @__gxx_personality_v0 to i8*)
          catch i8* null, !dbg !3731
  call void @_ZSt9terminatev() noreturn nounwind, !dbg !3731
  unreachable, !dbg !3731
}

declare void @llvm.dbg.declare(metadata, metadata) nounwind readnone

declare void @_ZN10FruitClick9B2DObjectC2ER7b2World(%"class.FruitClick::B2DObject"*, %class.b2World*)

define linkonce_odr void @_ZN9b2BodyDefC1Ev(%struct.b2BodyDef* %this) unnamed_addr align 2 {
  %1 = alloca %struct.b2BodyDef*, align 4
  store %struct.b2BodyDef* %this, %struct.b2BodyDef** %1, align 4
  call void @llvm.dbg.declare(metadata !{%struct.b2BodyDef** %1}, metadata !3732), !dbg !3733
  %2 = load %struct.b2BodyDef** %1
  call void @_ZN9b2BodyDefC2Ev(%struct.b2BodyDef* %2), !dbg !3734
  ret void, !dbg !3734
}

declare i32 @__gxx_personality_v0(...)

define linkonce_odr void @_ZN13b2CircleShapeC1Ev(%class.b2CircleShape* %this) unnamed_addr inlinehint align 2 {
  %1 = alloca %class.b2CircleShape*, align 4
  store %class.b2CircleShape* %this, %class.b2CircleShape** %1, align 4
  call void @llvm.dbg.declare(metadata !{%class.b2CircleShape** %1}, metadata !3735), !dbg !3736
  %2 = load %class.b2CircleShape** %1
  call void @_ZN13b2CircleShapeC2Ev(%class.b2CircleShape* %2), !dbg !3737
  ret void, !dbg !3737
}

declare float @_ZN10FruitClick7toWorldEf(float)

declare %class.b2Body* @_ZN7b2World10CreateBodyEPK9b2BodyDef(%class.b2World*, %struct.b2BodyDef*)

define linkonce_odr void @_ZN12b2FixtureDefC1Ev(%struct.b2FixtureDef* %this) unnamed_addr align 2 {
  %1 = alloca %struct.b2FixtureDef*, align 4
  store %struct.b2FixtureDef* %this, %struct.b2FixtureDef** %1, align 4
  call void @llvm.dbg.declare(metadata !{%struct.b2FixtureDef** %1}, metadata !3738), !dbg !3739
  %2 = load %struct.b2FixtureDef** %1
  call void @_ZN12b2FixtureDefC2Ev(%struct.b2FixtureDef* %2), !dbg !3740
  ret void, !dbg !3740
}

declare %class.b2Fixture* @_ZN6b2Body13CreateFixtureEPK12b2FixtureDef(%class.b2Body*, %struct.b2FixtureDef*)

define linkonce_odr void @_ZN6b2Body11SetUserDataEPv(%class.b2Body* %this, i8* %data) nounwind inlinehint align 2 {
  %1 = alloca %class.b2Body*, align 4
  %2 = alloca i8*, align 4
  store %class.b2Body* %this, %class.b2Body** %1, align 4
  call void @llvm.dbg.declare(metadata !{%class.b2Body** %1}, metadata !3741), !dbg !3742
  store i8* %data, i8** %2, align 4
  call void @llvm.dbg.declare(metadata !{i8** %2}, metadata !3743), !dbg !3744
  %3 = load %class.b2Body** %1
  %4 = load i8** %2, align 4, !dbg !3745
  %5 = getelementptr inbounds %class.b2Body* %3, i32 0, i32 24, !dbg !3745
  store i8* %4, i8** %5, align 4, !dbg !3745
  ret void, !dbg !3747
}

define linkonce_odr void @_ZN13b2CircleShapeD1Ev(%class.b2CircleShape* %this) unnamed_addr inlinehint align 2 {
  %1 = alloca %class.b2CircleShape*, align 4
  store %class.b2CircleShape* %this, %class.b2CircleShape** %1, align 4
  call void @llvm.dbg.declare(metadata !{%class.b2CircleShape** %1}, metadata !3748), !dbg !3749
  %2 = load %class.b2CircleShape** %1
  call void @_ZN13b2CircleShapeD2Ev(%class.b2CircleShape* %2), !dbg !3749
  ret void, !dbg !3749
}

declare void @_ZSt9terminatev()

declare void @_ZN10FruitClick9B2DObjectD2Ev(%"class.FruitClick::B2DObject"*)

define linkonce_odr void @_ZN10FruitClick5AppleD1Ev(%"class.FruitClick::Apple"* %this) unnamed_addr inlinehint align 2 {
  %1 = alloca %"class.FruitClick::Apple"*, align 4
  store %"class.FruitClick::Apple"* %this, %"class.FruitClick::Apple"** %1, align 4
  call void @llvm.dbg.declare(metadata !{%"class.FruitClick::Apple"** %1}, metadata !3750), !dbg !3751
  %2 = load %"class.FruitClick::Apple"** %1
  call void @_ZN10FruitClick5AppleD2Ev(%"class.FruitClick::Apple"* %2), !dbg !3751
  ret void, !dbg !3751
}

define linkonce_odr void @_ZN10FruitClick5AppleD0Ev(%"class.FruitClick::Apple"* %this) unnamed_addr inlinehint align 2 {
  %1 = alloca %"class.FruitClick::Apple"*, align 4
  %2 = alloca i8*
  %3 = alloca i32
  store %"class.FruitClick::Apple"* %this, %"class.FruitClick::Apple"** %1, align 4
  call void @llvm.dbg.declare(metadata !{%"class.FruitClick::Apple"** %1}, metadata !3752), !dbg !3753
  %4 = load %"class.FruitClick::Apple"** %1
  invoke void @_ZN10FruitClick5AppleD1Ev(%"class.FruitClick::Apple"* %4)
          to label %5 unwind label %7, !dbg !3753

; <label>:5                                       ; preds = %0
  %6 = bitcast %"class.FruitClick::Apple"* %4 to i8*, !dbg !3753
  call void @_ZdlPv(i8* %6) nounwind, !dbg !3753
  ret void, !dbg !3753

; <label>:7                                       ; preds = %0
  %8 = landingpad { i8*, i32 } personality i8* bitcast (i32 (...)* @__gxx_personality_v0 to i8*)
          cleanup, !dbg !3753
  %9 = extractvalue { i8*, i32 } %8, 0, !dbg !3753
  store i8* %9, i8** %2, !dbg !3753
  %10 = extractvalue { i8*, i32 } %8, 1, !dbg !3753
  store i32 %10, i32* %3, !dbg !3753
  %11 = bitcast %"class.FruitClick::Apple"* %4 to i8*, !dbg !3753
  call void @_ZdlPv(i8* %11) nounwind, !dbg !3753
  br label %12, !dbg !3753

; <label>:12                                      ; preds = %7
  %13 = load i8** %2, !dbg !3753
  %14 = load i8** %2, !dbg !3753
  %15 = load i32* %3, !dbg !3753
  %16 = insertvalue { i8*, i32 } undef, i8* %14, 0, !dbg !3753
  %17 = insertvalue { i8*, i32 } %16, i32 %15, 1, !dbg !3753
  resume { i8*, i32 } %17, !dbg !3753
}

declare void @_ZdlPv(i8*) nounwind

define linkonce_odr void @_ZN10FruitClick5AppleD2Ev(%"class.FruitClick::Apple"* %this) unnamed_addr inlinehint align 2 {
  %1 = alloca %"class.FruitClick::Apple"*, align 4
  store %"class.FruitClick::Apple"* %this, %"class.FruitClick::Apple"** %1, align 4
  call void @llvm.dbg.declare(metadata !{%"class.FruitClick::Apple"** %1}, metadata !3754), !dbg !3755
  %2 = load %"class.FruitClick::Apple"** %1
  %3 = bitcast %"class.FruitClick::Apple"* %2 to %"class.FruitClick::B2DObject"*, !dbg !3756
  call void @_ZN10FruitClick9B2DObjectD2Ev(%"class.FruitClick::B2DObject"* %3), !dbg !3756
  ret void, !dbg !3756
}

define linkonce_odr void @_ZN13b2CircleShapeD2Ev(%class.b2CircleShape* %this) unnamed_addr inlinehint align 2 {
  %1 = alloca %class.b2CircleShape*, align 4
  store %class.b2CircleShape* %this, %class.b2CircleShape** %1, align 4
  call void @llvm.dbg.declare(metadata !{%class.b2CircleShape** %1}, metadata !3758), !dbg !3759
  %2 = load %class.b2CircleShape** %1
  %3 = bitcast %class.b2CircleShape* %2 to %class.b2Shape*, !dbg !3760
  call void @_ZN7b2ShapeD2Ev(%class.b2Shape* %3), !dbg !3760
  ret void, !dbg !3760
}

define linkonce_odr void @_ZN7b2ShapeD2Ev(%class.b2Shape* %this) unnamed_addr nounwind align 2 {
  %1 = alloca %class.b2Shape*, align 4
  store %class.b2Shape* %this, %class.b2Shape** %1, align 4
  call void @llvm.dbg.declare(metadata !{%class.b2Shape** %1}, metadata !3762), !dbg !3763
  %2 = load %class.b2Shape** %1
  ret void, !dbg !3764
}

define linkonce_odr void @_ZN12b2FixtureDefC2Ev(%struct.b2FixtureDef* %this) unnamed_addr align 2 {
  %1 = alloca %struct.b2FixtureDef*, align 4
  store %struct.b2FixtureDef* %this, %struct.b2FixtureDef** %1, align 4
  call void @llvm.dbg.declare(metadata !{%struct.b2FixtureDef** %1}, metadata !3766), !dbg !3767
  %2 = load %struct.b2FixtureDef** %1
  %3 = getelementptr inbounds %struct.b2FixtureDef* %2, i32 0, i32 6, !dbg !3768
  call void @_ZN8b2FilterC1Ev(%struct.b2Filter* %3), !dbg !3768
  %4 = getelementptr inbounds %struct.b2FixtureDef* %2, i32 0, i32 0, !dbg !3769
  store %class.b2Shape* null, %class.b2Shape** %4, align 4, !dbg !3769
  %5 = getelementptr inbounds %struct.b2FixtureDef* %2, i32 0, i32 1, !dbg !3771
  store i8* null, i8** %5, align 4, !dbg !3771
  %6 = getelementptr inbounds %struct.b2FixtureDef* %2, i32 0, i32 2, !dbg !3772
  store float 0x3FC99999A0000000, float* %6, align 4, !dbg !3772
  %7 = getelementptr inbounds %struct.b2FixtureDef* %2, i32 0, i32 3, !dbg !3773
  store float 0.000000e+00, float* %7, align 4, !dbg !3773
  %8 = getelementptr inbounds %struct.b2FixtureDef* %2, i32 0, i32 4, !dbg !3774
  store float 0.000000e+00, float* %8, align 4, !dbg !3774
  %9 = getelementptr inbounds %struct.b2FixtureDef* %2, i32 0, i32 5, !dbg !3775
  store i8 0, i8* %9, align 1, !dbg !3775
  ret void, !dbg !3776
}

define linkonce_odr void @_ZN8b2FilterC1Ev(%struct.b2Filter* %this) unnamed_addr align 2 {
  %1 = alloca %struct.b2Filter*, align 4
  store %struct.b2Filter* %this, %struct.b2Filter** %1, align 4
  call void @llvm.dbg.declare(metadata !{%struct.b2Filter** %1}, metadata !3777), !dbg !3778
  %2 = load %struct.b2Filter** %1
  call void @_ZN8b2FilterC2Ev(%struct.b2Filter* %2), !dbg !3779
  ret void, !dbg !3779
}

define linkonce_odr void @_ZN8b2FilterC2Ev(%struct.b2Filter* %this) unnamed_addr nounwind align 2 {
  %1 = alloca %struct.b2Filter*, align 4
  store %struct.b2Filter* %this, %struct.b2Filter** %1, align 4
  call void @llvm.dbg.declare(metadata !{%struct.b2Filter** %1}, metadata !3780), !dbg !3781
  %2 = load %struct.b2Filter** %1
  %3 = getelementptr inbounds %struct.b2Filter* %2, i32 0, i32 0, !dbg !3782
  store i16 1, i16* %3, align 2, !dbg !3782
  %4 = getelementptr inbounds %struct.b2Filter* %2, i32 0, i32 1, !dbg !3784
  store i16 -1, i16* %4, align 2, !dbg !3784
  %5 = getelementptr inbounds %struct.b2Filter* %2, i32 0, i32 2, !dbg !3785
  store i16 0, i16* %5, align 2, !dbg !3785
  ret void, !dbg !3786
}

define linkonce_odr void @_ZN13b2CircleShapeC2Ev(%class.b2CircleShape* %this) unnamed_addr inlinehint align 2 {
  %1 = alloca %class.b2CircleShape*, align 4
  %2 = alloca i8*
  %3 = alloca i32
  store %class.b2CircleShape* %this, %class.b2CircleShape** %1, align 4
  call void @llvm.dbg.declare(metadata !{%class.b2CircleShape** %1}, metadata !3787), !dbg !3788
  %4 = load %class.b2CircleShape** %1
  %5 = bitcast %class.b2CircleShape* %4 to %class.b2Shape*, !dbg !3789
  call void @_ZN7b2ShapeC2Ev(%class.b2Shape* %5) nounwind, !dbg !3789
  %6 = bitcast %class.b2CircleShape* %4 to i8***, !dbg !3789
  store i8** getelementptr inbounds ([10 x i8*]* @_ZTV13b2CircleShape, i64 0, i64 2), i8*** %6, !dbg !3789
  %7 = getelementptr inbounds %class.b2CircleShape* %4, i32 0, i32 1, !dbg !3789
  invoke void @_ZN6b2Vec2C1Ev(%struct.b2Vec2* %7)
          to label %8 unwind label %15, !dbg !3789

; <label>:8                                       ; preds = %0
  %9 = bitcast %class.b2CircleShape* %4 to %class.b2Shape*, !dbg !3790
  %10 = getelementptr inbounds %class.b2Shape* %9, i32 0, i32 1, !dbg !3790
  store i32 0, i32* %10, align 4, !dbg !3790
  %11 = bitcast %class.b2CircleShape* %4 to %class.b2Shape*, !dbg !3792
  %12 = getelementptr inbounds %class.b2Shape* %11, i32 0, i32 2, !dbg !3792
  store float 0.000000e+00, float* %12, align 4, !dbg !3792
  %13 = getelementptr inbounds %class.b2CircleShape* %4, i32 0, i32 1, !dbg !3793
  invoke void @_ZN6b2Vec27SetZeroEv(%struct.b2Vec2* %13)
          to label %14 unwind label %15, !dbg !3793

; <label>:14                                      ; preds = %8
  ret void, !dbg !3794

; <label>:15                                      ; preds = %8, %0
  %16 = landingpad { i8*, i32 } personality i8* bitcast (i32 (...)* @__gxx_personality_v0 to i8*)
          cleanup, !dbg !3789
  %17 = extractvalue { i8*, i32 } %16, 0, !dbg !3789
  store i8* %17, i8** %2, !dbg !3789
  %18 = extractvalue { i8*, i32 } %16, 1, !dbg !3789
  store i32 %18, i32* %3, !dbg !3789
  %19 = bitcast %class.b2CircleShape* %4 to %class.b2Shape*, !dbg !3794
  invoke void @_ZN7b2ShapeD2Ev(%class.b2Shape* %19)
          to label %20 unwind label %27, !dbg !3794

; <label>:20                                      ; preds = %15
  br label %21, !dbg !3794

; <label>:21                                      ; preds = %20
  %22 = load i8** %2, !dbg !3794
  %23 = load i8** %2, !dbg !3794
  %24 = load i32* %3, !dbg !3794
  %25 = insertvalue { i8*, i32 } undef, i8* %23, 0, !dbg !3794
  %26 = insertvalue { i8*, i32 } %25, i32 %24, 1, !dbg !3794
  resume { i8*, i32 } %26, !dbg !3794

; <label>:27                                      ; preds = %15
  %28 = landingpad { i8*, i32 } personality i8* bitcast (i32 (...)* @__gxx_personality_v0 to i8*)
          catch i8* null, !dbg !3794
  call void @_ZSt9terminatev() noreturn nounwind, !dbg !3794
  unreachable, !dbg !3794
}

define linkonce_odr void @_ZN7b2ShapeC2Ev(%class.b2Shape* %this) unnamed_addr nounwind inlinehint align 2 {
  %1 = alloca %class.b2Shape*, align 4
  store %class.b2Shape* %this, %class.b2Shape** %1, align 4
  call void @llvm.dbg.declare(metadata !{%class.b2Shape** %1}, metadata !3795), !dbg !3796
  %2 = load %class.b2Shape** %1
  %3 = bitcast %class.b2Shape* %2 to i8***, !dbg !3796
  store i8** getelementptr inbounds ([10 x i8*]* @_ZTV7b2Shape, i64 0, i64 2), i8*** %3, !dbg !3796
  ret void, !dbg !3797
}

define linkonce_odr void @_ZN6b2Vec2C1Ev(%struct.b2Vec2* %this) unnamed_addr align 2 {
  %1 = alloca %struct.b2Vec2*, align 4
  store %struct.b2Vec2* %this, %struct.b2Vec2** %1, align 4
  call void @llvm.dbg.declare(metadata !{%struct.b2Vec2** %1}, metadata !3799), !dbg !3800
  %2 = load %struct.b2Vec2** %1
  call void @_ZN6b2Vec2C2Ev(%struct.b2Vec2* %2), !dbg !3801
  ret void, !dbg !3801
}

define linkonce_odr void @_ZN6b2Vec27SetZeroEv(%struct.b2Vec2* %this) nounwind align 2 {
  %1 = alloca %struct.b2Vec2*, align 4
  store %struct.b2Vec2* %this, %struct.b2Vec2** %1, align 4
  call void @llvm.dbg.declare(metadata !{%struct.b2Vec2** %1}, metadata !3802), !dbg !3803
  %2 = load %struct.b2Vec2** %1
  %3 = getelementptr inbounds %struct.b2Vec2* %2, i32 0, i32 0, !dbg !3804
  store float 0.000000e+00, float* %3, align 4, !dbg !3804
  %4 = getelementptr inbounds %struct.b2Vec2* %2, i32 0, i32 1, !dbg !3806
  store float 0.000000e+00, float* %4, align 4, !dbg !3806
  ret void, !dbg !3807
}

define linkonce_odr void @_ZN6b2Vec2C2Ev(%struct.b2Vec2* %this) unnamed_addr nounwind align 2 {
  %1 = alloca %struct.b2Vec2*, align 4
  store %struct.b2Vec2* %this, %struct.b2Vec2** %1, align 4
  call void @llvm.dbg.declare(metadata !{%struct.b2Vec2** %1}, metadata !3808), !dbg !3809
  %2 = load %struct.b2Vec2** %1
  ret void, !dbg !3810
}

define linkonce_odr void @_ZN7b2ShapeD1Ev(%class.b2Shape* %this) unnamed_addr nounwind align 2 {
  %1 = alloca %class.b2Shape*, align 4
  store %class.b2Shape* %this, %class.b2Shape** %1, align 4
  call void @llvm.dbg.declare(metadata !{%class.b2Shape** %1}, metadata !3812), !dbg !3813
  %2 = load %class.b2Shape** %1
  call void @_ZN7b2ShapeD2Ev(%class.b2Shape* %2), !dbg !3814
  ret void, !dbg !3815
}

define linkonce_odr void @_ZN7b2ShapeD0Ev(%class.b2Shape* %this) unnamed_addr align 2 {
  %1 = alloca %class.b2Shape*, align 4
  %2 = alloca i8*
  %3 = alloca i32
  store %class.b2Shape* %this, %class.b2Shape** %1, align 4
  call void @llvm.dbg.declare(metadata !{%class.b2Shape** %1}, metadata !3816), !dbg !3817
  %4 = load %class.b2Shape** %1
  invoke void @_ZN7b2ShapeD1Ev(%class.b2Shape* %4)
          to label %5 unwind label %7, !dbg !3818

; <label>:5                                       ; preds = %0
  %6 = bitcast %class.b2Shape* %4 to i8*, !dbg !3818
  call void @_ZdlPv(i8* %6) nounwind, !dbg !3818
  ret void, !dbg !3819

; <label>:7                                       ; preds = %0
  %8 = landingpad { i8*, i32 } personality i8* bitcast (i32 (...)* @__gxx_personality_v0 to i8*)
          cleanup, !dbg !3818
  %9 = extractvalue { i8*, i32 } %8, 0, !dbg !3818
  store i8* %9, i8** %2, !dbg !3818
  %10 = extractvalue { i8*, i32 } %8, 1, !dbg !3818
  store i32 %10, i32* %3, !dbg !3818
  %11 = bitcast %class.b2Shape* %4 to i8*, !dbg !3818
  call void @_ZdlPv(i8* %11) nounwind, !dbg !3818
  br label %12, !dbg !3818

; <label>:12                                      ; preds = %7
  %13 = load i8** %2, !dbg !3818
  %14 = load i8** %2, !dbg !3818
  %15 = load i32* %3, !dbg !3818
  %16 = insertvalue { i8*, i32 } undef, i8* %14, 0, !dbg !3818
  %17 = insertvalue { i8*, i32 } %16, i32 %15, 1, !dbg !3818
  resume { i8*, i32 } %17, !dbg !3818
}

declare void @__cxa_pure_virtual()

define linkonce_odr void @_ZN9b2BodyDefC2Ev(%struct.b2BodyDef* %this) unnamed_addr align 2 {
  %1 = alloca %struct.b2BodyDef*, align 4
  store %struct.b2BodyDef* %this, %struct.b2BodyDef** %1, align 4
  call void @llvm.dbg.declare(metadata !{%struct.b2BodyDef** %1}, metadata !3820), !dbg !3821
  %2 = load %struct.b2BodyDef** %1
  %3 = getelementptr inbounds %struct.b2BodyDef* %2, i32 0, i32 1, !dbg !3822
  call void @_ZN6b2Vec2C1Ev(%struct.b2Vec2* %3), !dbg !3822
  %4 = getelementptr inbounds %struct.b2BodyDef* %2, i32 0, i32 3, !dbg !3822
  call void @_ZN6b2Vec2C1Ev(%struct.b2Vec2* %4), !dbg !3822
  %5 = getelementptr inbounds %struct.b2BodyDef* %2, i32 0, i32 12, !dbg !3823
  store i8* null, i8** %5, align 4, !dbg !3823
  %6 = getelementptr inbounds %struct.b2BodyDef* %2, i32 0, i32 1, !dbg !3825
  call void @_ZN6b2Vec23SetEff(%struct.b2Vec2* %6, float 0.000000e+00, float 0.000000e+00), !dbg !3825
  %7 = getelementptr inbounds %struct.b2BodyDef* %2, i32 0, i32 2, !dbg !3826
  store float 0.000000e+00, float* %7, align 4, !dbg !3826
  %8 = getelementptr inbounds %struct.b2BodyDef* %2, i32 0, i32 3, !dbg !3827
  call void @_ZN6b2Vec23SetEff(%struct.b2Vec2* %8, float 0.000000e+00, float 0.000000e+00), !dbg !3827
  %9 = getelementptr inbounds %struct.b2BodyDef* %2, i32 0, i32 4, !dbg !3828
  store float 0.000000e+00, float* %9, align 4, !dbg !3828
  %10 = getelementptr inbounds %struct.b2BodyDef* %2, i32 0, i32 5, !dbg !3829
  store float 0.000000e+00, float* %10, align 4, !dbg !3829
  %11 = getelementptr inbounds %struct.b2BodyDef* %2, i32 0, i32 6, !dbg !3830
  store float 0.000000e+00, float* %11, align 4, !dbg !3830
  %12 = getelementptr inbounds %struct.b2BodyDef* %2, i32 0, i32 7, !dbg !3831
  store i8 1, i8* %12, align 1, !dbg !3831
  %13 = getelementptr inbounds %struct.b2BodyDef* %2, i32 0, i32 8, !dbg !3832
  store i8 1, i8* %13, align 1, !dbg !3832
  %14 = getelementptr inbounds %struct.b2BodyDef* %2, i32 0, i32 9, !dbg !3833
  store i8 0, i8* %14, align 1, !dbg !3833
  %15 = getelementptr inbounds %struct.b2BodyDef* %2, i32 0, i32 10, !dbg !3834
  store i8 0, i8* %15, align 1, !dbg !3834
  %16 = getelementptr inbounds %struct.b2BodyDef* %2, i32 0, i32 0, !dbg !3835
  store i32 0, i32* %16, align 4, !dbg !3835
  %17 = getelementptr inbounds %struct.b2BodyDef* %2, i32 0, i32 11, !dbg !3836
  store i8 1, i8* %17, align 1, !dbg !3836
  %18 = getelementptr inbounds %struct.b2BodyDef* %2, i32 0, i32 13, !dbg !3837
  store float 1.000000e+00, float* %18, align 4, !dbg !3837
  ret void, !dbg !3838
}

define linkonce_odr void @_ZN6b2Vec23SetEff(%struct.b2Vec2* %this, float %x_, float %y_) nounwind align 2 {
  %1 = alloca %struct.b2Vec2*, align 4
  %2 = alloca float, align 4
  %3 = alloca float, align 4
  store %struct.b2Vec2* %this, %struct.b2Vec2** %1, align 4
  call void @llvm.dbg.declare(metadata !{%struct.b2Vec2** %1}, metadata !3839), !dbg !3840
  store float %x_, float* %2, align 4
  call void @llvm.dbg.declare(metadata !{float* %2}, metadata !3841), !dbg !3842
  store float %y_, float* %3, align 4
  call void @llvm.dbg.declare(metadata !{float* %3}, metadata !3843), !dbg !3844
  %4 = load %struct.b2Vec2** %1
  %5 = load float* %2, align 4, !dbg !3845
  %6 = getelementptr inbounds %struct.b2Vec2* %4, i32 0, i32 0, !dbg !3845
  store float %5, float* %6, align 4, !dbg !3845
  %7 = load float* %3, align 4, !dbg !3847
  %8 = getelementptr inbounds %struct.b2Vec2* %4, i32 0, i32 1, !dbg !3847
  store float %7, float* %8, align 4, !dbg !3847
  ret void, !dbg !3848
}

!llvm.dbg.cu = !{!0}

!0 = metadata !{i32 720913, i32 0, i32 4, metadata !"apple.cpp", metadata !"/home/bxl/nacl-app/fruit-click-read-only/fruitclick-nacl", metadata !"clang version 3.0 (tags/RELEASE_30/final 167235)", i1 true, i1 false, metadata !"", i32 0, metadata !1, metadata !415, metadata !417, metadata !415} ; [ DW_TAG_compile_unit ]
!1 = metadata !{metadata !2}
!2 = metadata !{metadata !3, metadata !9, metadata !341, metadata !355, metadata !361, metadata !3, metadata !9, metadata !3}
!3 = metadata !{i32 720900, null, metadata !"b2BodyType", metadata !4, i32 39, i64 32, i64 32, i32 0, i32 0, i32 0, metadata !5, i32 0, i32 0} ; [ DW_TAG_enumeration_type ]
!4 = metadata !{i32 720937, metadata !"./Box2D/Dynamics/b2Body.h", metadata !"/home/bxl/nacl-app/fruit-click-read-only/fruitclick-nacl", null} ; [ DW_TAG_file_type ]
!5 = metadata !{metadata !6, metadata !7, metadata !8}
!6 = metadata !{i32 720936, metadata !"b2_staticBody", i64 0} ; [ DW_TAG_enumerator ]
!7 = metadata !{i32 720936, metadata !"b2_kinematicBody", i64 1} ; [ DW_TAG_enumerator ]
!8 = metadata !{i32 720936, metadata !"b2_dynamicBody", i64 2} ; [ DW_TAG_enumerator ]
!9 = metadata !{i32 720900, metadata !10, metadata !"Type", metadata !11, i32 46, i64 32, i64 32, i32 0, i32 0, i32 0, metadata !335, i32 0, i32 0} ; [ DW_TAG_enumeration_type ]
!10 = metadata !{i32 720898, null, metadata !"b2Shape", metadata !11, i32 42, i64 96, i64 32, i32 0, i32 0, null, metadata !12, i32 0, metadata !10, null} ; [ DW_TAG_class_type ]
!11 = metadata !{i32 720937, metadata !"./Box2D/Collision/Shapes/b2Shape.h", metadata !"/home/bxl/nacl-app/fruit-click-read-only/fruitclick-nacl", null} ; [ DW_TAG_file_type ]
!12 = metadata !{metadata !13, metadata !19, metadata !20, metadata !24, metadata !30, metadata !75, metadata !80, metadata !85, metadata !252, metadata !270, metadata !321, metadata !332}
!13 = metadata !{i32 720909, metadata !11, metadata !"_vptr$b2Shape", metadata !11, i32 0, i64 32, i64 0, i64 0, i32 0, metadata !14} ; [ DW_TAG_member ]
!14 = metadata !{i32 720911, null, metadata !"", null, i32 0, i64 32, i64 0, i64 0, i32 0, metadata !15} ; [ DW_TAG_pointer_type ]
!15 = metadata !{i32 720911, null, metadata !"__vtbl_ptr_type", null, i32 0, i64 32, i64 0, i64 0, i32 0, metadata !16} ; [ DW_TAG_pointer_type ]
!16 = metadata !{i32 720917, i32 0, metadata !"", i32 0, i32 0, i64 0, i64 0, i32 0, i32 0, i32 0, metadata !17, i32 0, i32 0} ; [ DW_TAG_subroutine_type ]
!17 = metadata !{metadata !18}
!18 = metadata !{i32 720932, null, metadata !"int", null, i32 0, i64 32, i64 32, i64 0, i32 0, i32 5} ; [ DW_TAG_base_type ]
!19 = metadata !{i32 720909, metadata !10, metadata !"m_type", metadata !11, i32 92, i64 32, i64 32, i64 32, i32 0, metadata !9} ; [ DW_TAG_member ]
!20 = metadata !{i32 720909, metadata !10, metadata !"m_radius", metadata !11, i32 93, i64 32, i64 32, i64 64, i32 0, metadata !21} ; [ DW_TAG_member ]
!21 = metadata !{i32 720918, null, metadata !"float32", metadata !22, i32 34, i64 0, i64 0, i64 0, i32 0, metadata !23} ; [ DW_TAG_typedef ]
!22 = metadata !{i32 720937, metadata !"./Box2D/Common/b2Math.h", metadata !"/home/bxl/nacl-app/fruit-click-read-only/fruitclick-nacl", null} ; [ DW_TAG_file_type ]
!23 = metadata !{i32 720932, null, metadata !"float", null, i32 0, i64 32, i64 32, i64 0, i32 0, i32 4} ; [ DW_TAG_base_type ]
!24 = metadata !{i32 720942, i32 0, metadata !10, metadata !"~b2Shape", metadata !"~b2Shape", metadata !"", metadata !11, i32 55, metadata !25, i1 false, i1 false, i32 1, i32 0, metadata !10, i32 256, i1 false, null, null, i32 0, metadata !28} ; [ DW_TAG_subprogram ]
!25 = metadata !{i32 720917, i32 0, metadata !"", i32 0, i32 0, i64 0, i64 0, i32 0, i32 0, i32 0, metadata !26, i32 0, i32 0} ; [ DW_TAG_subroutine_type ]
!26 = metadata !{null, metadata !27}
!27 = metadata !{i32 720911, i32 0, metadata !"", i32 0, i32 0, i64 32, i64 32, i64 0, i32 64, metadata !10} ; [ DW_TAG_pointer_type ]
!28 = metadata !{metadata !29}
!29 = metadata !{i32 720932}                      ; [ DW_TAG_base_type ]
!30 = metadata !{i32 720942, i32 0, metadata !10, metadata !"Clone", metadata !"Clone", metadata !"_ZNK7b2Shape5CloneEP16b2BlockAllocator", metadata !11, i32 58, metadata !31, i1 false, i1 false, i32 2, i32 2, metadata !10, i32 256, i1 false, null, null, i32 0, metadata !73} ; [ DW_TAG_subprogram ]
!31 = metadata !{i32 720917, i32 0, metadata !"", i32 0, i32 0, i64 0, i64 0, i32 0, i32 0, i32 0, metadata !32, i32 0, i32 0} ; [ DW_TAG_subroutine_type ]
!32 = metadata !{metadata !27, metadata !33, metadata !35}
!33 = metadata !{i32 720911, i32 0, metadata !"", i32 0, i32 0, i64 32, i64 32, i64 0, i32 64, metadata !34} ; [ DW_TAG_pointer_type ]
!34 = metadata !{i32 720934, null, metadata !"", null, i32 0, i64 0, i64 0, i64 0, i32 0, metadata !10} ; [ DW_TAG_const_type ]
!35 = metadata !{i32 720911, i32 0, metadata !"", i32 0, i32 0, i64 32, i64 32, i64 0, i32 64, metadata !36} ; [ DW_TAG_pointer_type ]
!36 = metadata !{i32 720898, null, metadata !"b2BlockAllocator", metadata !37, i32 35, i64 544, i64 32, i32 0, i32 0, null, metadata !38, i32 0, null, null} ; [ DW_TAG_class_type ]
!37 = metadata !{i32 720937, metadata !"./Box2D/Common/b2BlockAllocator.h", metadata !"/home/bxl/nacl-app/fruit-click-read-only/fruitclick-nacl", null} ; [ DW_TAG_file_type ]
!38 = metadata !{metadata !39, metadata !42, metadata !44, metadata !45, metadata !51, metadata !56, metadata !59, metadata !65, metadata !70}
!39 = metadata !{i32 720909, metadata !36, metadata !"m_chunks", metadata !37, i32 51, i64 32, i64 32, i64 0, i32 1, metadata !40} ; [ DW_TAG_member ]
!40 = metadata !{i32 720911, null, metadata !"", null, i32 0, i64 32, i64 32, i64 0, i32 0, metadata !41} ; [ DW_TAG_pointer_type ]
!41 = metadata !{i32 720915, null, metadata !"b2Chunk", metadata !37, i32 30, i64 0, i64 0, i32 0, i32 4, i32 0, null, i32 0, i32 0} ; [ DW_TAG_structure_type ]
!42 = metadata !{i32 720909, metadata !36, metadata !"m_chunkCount", metadata !37, i32 52, i64 32, i64 32, i64 32, i32 1, metadata !43} ; [ DW_TAG_member ]
!43 = metadata !{i32 720918, null, metadata !"int32", metadata !37, i32 30, i64 0, i64 0, i64 0, i32 0, metadata !18} ; [ DW_TAG_typedef ]
!44 = metadata !{i32 720909, metadata !36, metadata !"m_chunkSpace", metadata !37, i32 53, i64 32, i64 32, i64 64, i32 1, metadata !43} ; [ DW_TAG_member ]
!45 = metadata !{i32 720909, metadata !36, metadata !"m_freeLists", metadata !37, i32 55, i64 448, i64 32, i64 96, i32 1, metadata !46} ; [ DW_TAG_member ]
!46 = metadata !{i32 720897, null, metadata !"", null, i32 0, i64 448, i64 32, i32 0, i32 0, metadata !47, metadata !49, i32 0, i32 0} ; [ DW_TAG_array_type ]
!47 = metadata !{i32 720911, null, metadata !"", null, i32 0, i64 32, i64 32, i64 0, i32 0, metadata !48} ; [ DW_TAG_pointer_type ]
!48 = metadata !{i32 720915, null, metadata !"b2Block", metadata !37, i32 29, i64 0, i64 0, i32 0, i32 4, i32 0, null, i32 0, i32 0} ; [ DW_TAG_structure_type ]
!49 = metadata !{metadata !50}
!50 = metadata !{i32 720929, i64 0, i64 13}       ; [ DW_TAG_subrange_type ]
!51 = metadata !{i32 720942, i32 0, metadata !36, metadata !"b2BlockAllocator", metadata !"b2BlockAllocator", metadata !"", metadata !37, i32 38, metadata !52, i1 false, i1 false, i32 0, i32 0, null, i32 256, i1 false, null, null, i32 0, metadata !54} ; [ DW_TAG_subprogram ]
!52 = metadata !{i32 720917, i32 0, metadata !"", i32 0, i32 0, i64 0, i64 0, i32 0, i32 0, i32 0, metadata !53, i32 0, i32 0} ; [ DW_TAG_subroutine_type ]
!53 = metadata !{null, metadata !35}
!54 = metadata !{metadata !55}
!55 = metadata !{i32 720932}                      ; [ DW_TAG_base_type ]
!56 = metadata !{i32 720942, i32 0, metadata !36, metadata !"~b2BlockAllocator", metadata !"~b2BlockAllocator", metadata !"", metadata !37, i32 39, metadata !52, i1 false, i1 false, i32 0, i32 0, null, i32 256, i1 false, null, null, i32 0, metadata !57} ; [ DW_TAG_subprogram ]
!57 = metadata !{metadata !58}
!58 = metadata !{i32 720932}                      ; [ DW_TAG_base_type ]
!59 = metadata !{i32 720942, i32 0, metadata !36, metadata !"Allocate", metadata !"Allocate", metadata !"_ZN16b2BlockAllocator8AllocateEi", metadata !37, i32 42, metadata !60, i1 false, i1 false, i32 0, i32 0, null, i32 256, i1 false, null, null, i32 0, metadata !63} ; [ DW_TAG_subprogram ]
!60 = metadata !{i32 720917, i32 0, metadata !"", i32 0, i32 0, i64 0, i64 0, i32 0, i32 0, i32 0, metadata !61, i32 0, i32 0} ; [ DW_TAG_subroutine_type ]
!61 = metadata !{metadata !62, metadata !35, metadata !43}
!62 = metadata !{i32 720911, null, metadata !"", null, i32 0, i64 32, i64 32, i64 0, i32 0, null} ; [ DW_TAG_pointer_type ]
!63 = metadata !{metadata !64}
!64 = metadata !{i32 720932}                      ; [ DW_TAG_base_type ]
!65 = metadata !{i32 720942, i32 0, metadata !36, metadata !"Free", metadata !"Free", metadata !"_ZN16b2BlockAllocator4FreeEPvi", metadata !37, i32 45, metadata !66, i1 false, i1 false, i32 0, i32 0, null, i32 256, i1 false, null, null, i32 0, metadata !68} ; [ DW_TAG_subprogram ]
!66 = metadata !{i32 720917, i32 0, metadata !"", i32 0, i32 0, i64 0, i64 0, i32 0, i32 0, i32 0, metadata !67, i32 0, i32 0} ; [ DW_TAG_subroutine_type ]
!67 = metadata !{null, metadata !35, metadata !62, metadata !43}
!68 = metadata !{metadata !69}
!69 = metadata !{i32 720932}                      ; [ DW_TAG_base_type ]
!70 = metadata !{i32 720942, i32 0, metadata !36, metadata !"Clear", metadata !"Clear", metadata !"_ZN16b2BlockAllocator5ClearEv", metadata !37, i32 47, metadata !52, i1 false, i1 false, i32 0, i32 0, null, i32 256, i1 false, null, null, i32 0, metadata !71} ; [ DW_TAG_subprogram ]
!71 = metadata !{metadata !72}
!72 = metadata !{i32 720932}                      ; [ DW_TAG_base_type ]
!73 = metadata !{metadata !74}
!74 = metadata !{i32 720932}                      ; [ DW_TAG_base_type ]
!75 = metadata !{i32 720942, i32 0, metadata !10, metadata !"GetType", metadata !"GetType", metadata !"_ZNK7b2Shape7GetTypeEv", metadata !11, i32 62, metadata !76, i1 false, i1 false, i32 0, i32 0, null, i32 256, i1 false, null, null, i32 0, metadata !78} ; [ DW_TAG_subprogram ]
!76 = metadata !{i32 720917, i32 0, metadata !"", i32 0, i32 0, i64 0, i64 0, i32 0, i32 0, i32 0, metadata !77, i32 0, i32 0} ; [ DW_TAG_subroutine_type ]
!77 = metadata !{metadata !9, metadata !33}
!78 = metadata !{metadata !79}
!79 = metadata !{i32 720932}                      ; [ DW_TAG_base_type ]
!80 = metadata !{i32 720942, i32 0, metadata !10, metadata !"GetChildCount", metadata !"GetChildCount", metadata !"_ZNK7b2Shape13GetChildCountEv", metadata !11, i32 65, metadata !81, i1 false, i1 false, i32 2, i32 3, metadata !10, i32 256, i1 false, null, null, i32 0, metadata !83} ; [ DW_TAG_subprogram ]
!81 = metadata !{i32 720917, i32 0, metadata !"", i32 0, i32 0, i64 0, i64 0, i32 0, i32 0, i32 0, metadata !82, i32 0, i32 0} ; [ DW_TAG_subroutine_type ]
!82 = metadata !{metadata !43, metadata !33}
!83 = metadata !{metadata !84}
!84 = metadata !{i32 720932}                      ; [ DW_TAG_base_type ]
!85 = metadata !{i32 720942, i32 0, metadata !10, metadata !"TestPoint", metadata !"TestPoint", metadata !"_ZNK7b2Shape9TestPointERK11b2TransformRK6b2Vec2", metadata !11, i32 70, metadata !86, i1 false, i1 false, i32 2, i32 4, metadata !10, i32 256, i1 false, null, null, i32 0, metadata !250} ; [ DW_TAG_subprogram ]
!86 = metadata !{i32 720917, i32 0, metadata !"", i32 0, i32 0, i64 0, i64 0, i32 0, i32 0, i32 0, metadata !87, i32 0, i32 0} ; [ DW_TAG_subroutine_type ]
!87 = metadata !{metadata !88, metadata !33, metadata !89, metadata !136}
!88 = metadata !{i32 720932, null, metadata !"bool", null, i32 0, i64 8, i64 8, i64 0, i32 0, i32 2} ; [ DW_TAG_base_type ]
!89 = metadata !{i32 720912, null, null, null, i32 0, i64 0, i64 0, i64 0, i32 0, metadata !90} ; [ DW_TAG_reference_type ]
!90 = metadata !{i32 720934, null, metadata !"", null, i32 0, i64 0, i64 0, i64 0, i32 0, metadata !91} ; [ DW_TAG_const_type ]
!91 = metadata !{i32 720898, null, metadata !"b2Transform", metadata !22, i32 361, i64 128, i64 32, i32 0, i32 0, null, metadata !92, i32 0, null, null} ; [ DW_TAG_class_type ]
!92 = metadata !{metadata !93, metadata !177, metadata !226, metadata !232, metadata !237, metadata !240, metadata !245}
!93 = metadata !{i32 720909, metadata !91, metadata !"p", metadata !22, i32 383, i64 64, i64 32, i64 0, i32 0, metadata !94} ; [ DW_TAG_member ]
!94 = metadata !{i32 720898, null, metadata !"b2Vec2", metadata !22, i32 64, i64 64, i64 32, i32 0, i32 0, null, metadata !95, i32 0, null, null} ; [ DW_TAG_class_type ]
!95 = metadata !{metadata !96, metadata !97, metadata !98, metadata !104, metadata !109, metadata !112, metadata !115, metadata !122, metadata !127, metadata !133, metadata !139, metadata !142, metadata !147, metadata !152, metadata !155, metadata !160, metadata !165, metadata !168, metadata !171}
!96 = metadata !{i32 720909, metadata !94, metadata !"x", metadata !22, i32 151, i64 32, i64 32, i64 0, i32 0, metadata !21} ; [ DW_TAG_member ]
!97 = metadata !{i32 720909, metadata !94, metadata !"y", metadata !22, i32 151, i64 32, i64 32, i64 32, i32 0, metadata !21} ; [ DW_TAG_member ]
!98 = metadata !{i32 720942, i32 0, metadata !94, metadata !"b2Vec2", metadata !"b2Vec2", metadata !"", metadata !22, i32 67, metadata !99, i1 false, i1 false, i32 0, i32 0, null, i32 256, i1 false, null, null, i32 0, metadata !102} ; [ DW_TAG_subprogram ]
!99 = metadata !{i32 720917, i32 0, metadata !"", i32 0, i32 0, i64 0, i64 0, i32 0, i32 0, i32 0, metadata !100, i32 0, i32 0} ; [ DW_TAG_subroutine_type ]
!100 = metadata !{null, metadata !101}
!101 = metadata !{i32 720911, i32 0, metadata !"", i32 0, i32 0, i64 32, i64 32, i64 0, i32 64, metadata !94} ; [ DW_TAG_pointer_type ]
!102 = metadata !{metadata !103}
!103 = metadata !{i32 720932}                     ; [ DW_TAG_base_type ]
!104 = metadata !{i32 720942, i32 0, metadata !94, metadata !"b2Vec2", metadata !"b2Vec2", metadata !"", metadata !22, i32 70, metadata !105, i1 false, i1 false, i32 0, i32 0, null, i32 256, i1 false, null, null, i32 0, metadata !107} ; [ DW_TAG_subprogram ]
!105 = metadata !{i32 720917, i32 0, metadata !"", i32 0, i32 0, i64 0, i64 0, i32 0, i32 0, i32 0, metadata !106, i32 0, i32 0} ; [ DW_TAG_subroutine_type ]
!106 = metadata !{null, metadata !101, metadata !21, metadata !21}
!107 = metadata !{metadata !108}
!108 = metadata !{i32 720932}                     ; [ DW_TAG_base_type ]
!109 = metadata !{i32 720942, i32 0, metadata !94, metadata !"SetZero", metadata !"SetZero", metadata !"_ZN6b2Vec27SetZeroEv", metadata !22, i32 73, metadata !99, i1 false, i1 false, i32 0, i32 0, null, i32 256, i1 false, null, null, i32 0, metadata !110} ; [ DW_TAG_subprogram ]
!110 = metadata !{metadata !111}
!111 = metadata !{i32 720932}                     ; [ DW_TAG_base_type ]
!112 = metadata !{i32 720942, i32 0, metadata !94, metadata !"Set", metadata !"Set", metadata !"_ZN6b2Vec23SetEff", metadata !22, i32 76, metadata !105, i1 false, i1 false, i32 0, i32 0, null, i32 256, i1 false, null, null, i32 0, metadata !113} ; [ DW_TAG_subprogram ]
!113 = metadata !{metadata !114}
!114 = metadata !{i32 720932}                     ; [ DW_TAG_base_type ]
!115 = metadata !{i32 720942, i32 0, metadata !94, metadata !"operator-", metadata !"operator-", metadata !"_ZNK6b2Vec2ngEv", metadata !22, i32 79, metadata !116, i1 false, i1 false, i32 0, i32 0, null, i32 256, i1 false, null, null, i32 0, metadata !120} ; [ DW_TAG_subprogram ]
!116 = metadata !{i32 720917, i32 0, metadata !"", i32 0, i32 0, i64 0, i64 0, i32 0, i32 0, i32 0, metadata !117, i32 0, i32 0} ; [ DW_TAG_subroutine_type ]
!117 = metadata !{metadata !94, metadata !118}
!118 = metadata !{i32 720911, i32 0, metadata !"", i32 0, i32 0, i64 32, i64 32, i64 0, i32 64, metadata !119} ; [ DW_TAG_pointer_type ]
!119 = metadata !{i32 720934, null, metadata !"", null, i32 0, i64 0, i64 0, i64 0, i32 0, metadata !94} ; [ DW_TAG_const_type ]
!120 = metadata !{metadata !121}
!121 = metadata !{i32 720932}                     ; [ DW_TAG_base_type ]
!122 = metadata !{i32 720942, i32 0, metadata !94, metadata !"operator()", metadata !"operator()", metadata !"_ZNK6b2Vec2clEi", metadata !22, i32 82, metadata !123, i1 false, i1 false, i32 0, i32 0, null, i32 256, i1 false, null, null, i32 0, metadata !125} ; [ DW_TAG_subprogram ]
!123 = metadata !{i32 720917, i32 0, metadata !"", i32 0, i32 0, i64 0, i64 0, i32 0, i32 0, i32 0, metadata !124, i32 0, i32 0} ; [ DW_TAG_subroutine_type ]
!124 = metadata !{metadata !21, metadata !118, metadata !43}
!125 = metadata !{metadata !126}
!126 = metadata !{i32 720932}                     ; [ DW_TAG_base_type ]
!127 = metadata !{i32 720942, i32 0, metadata !94, metadata !"operator()", metadata !"operator()", metadata !"_ZN6b2Vec2clEi", metadata !22, i32 88, metadata !128, i1 false, i1 false, i32 0, i32 0, null, i32 256, i1 false, null, null, i32 0, metadata !131} ; [ DW_TAG_subprogram ]
!128 = metadata !{i32 720917, i32 0, metadata !"", i32 0, i32 0, i64 0, i64 0, i32 0, i32 0, i32 0, metadata !129, i32 0, i32 0} ; [ DW_TAG_subroutine_type ]
!129 = metadata !{metadata !130, metadata !101, metadata !43}
!130 = metadata !{i32 720912, null, null, null, i32 0, i64 0, i64 0, i64 0, i32 0, metadata !21} ; [ DW_TAG_reference_type ]
!131 = metadata !{metadata !132}
!132 = metadata !{i32 720932}                     ; [ DW_TAG_base_type ]
!133 = metadata !{i32 720942, i32 0, metadata !94, metadata !"operator+=", metadata !"operator+=", metadata !"_ZN6b2Vec2pLERKS_", metadata !22, i32 94, metadata !134, i1 false, i1 false, i32 0, i32 0, null, i32 256, i1 false, null, null, i32 0, metadata !137} ; [ DW_TAG_subprogram ]
!134 = metadata !{i32 720917, i32 0, metadata !"", i32 0, i32 0, i64 0, i64 0, i32 0, i32 0, i32 0, metadata !135, i32 0, i32 0} ; [ DW_TAG_subroutine_type ]
!135 = metadata !{null, metadata !101, metadata !136}
!136 = metadata !{i32 720912, null, null, null, i32 0, i64 0, i64 0, i64 0, i32 0, metadata !119} ; [ DW_TAG_reference_type ]
!137 = metadata !{metadata !138}
!138 = metadata !{i32 720932}                     ; [ DW_TAG_base_type ]
!139 = metadata !{i32 720942, i32 0, metadata !94, metadata !"operator-=", metadata !"operator-=", metadata !"_ZN6b2Vec2mIERKS_", metadata !22, i32 100, metadata !134, i1 false, i1 false, i32 0, i32 0, null, i32 256, i1 false, null, null, i32 0, metadata !140} ; [ DW_TAG_subprogram ]
!140 = metadata !{metadata !141}
!141 = metadata !{i32 720932}                     ; [ DW_TAG_base_type ]
!142 = metadata !{i32 720942, i32 0, metadata !94, metadata !"operator*=", metadata !"operator*=", metadata !"_ZN6b2Vec2mLEf", metadata !22, i32 106, metadata !143, i1 false, i1 false, i32 0, i32 0, null, i32 256, i1 false, null, null, i32 0, metadata !145} ; [ DW_TAG_subprogram ]
!143 = metadata !{i32 720917, i32 0, metadata !"", i32 0, i32 0, i64 0, i64 0, i32 0, i32 0, i32 0, metadata !144, i32 0, i32 0} ; [ DW_TAG_subroutine_type ]
!144 = metadata !{null, metadata !101, metadata !21}
!145 = metadata !{metadata !146}
!146 = metadata !{i32 720932}                     ; [ DW_TAG_base_type ]
!147 = metadata !{i32 720942, i32 0, metadata !94, metadata !"Length", metadata !"Length", metadata !"_ZNK6b2Vec26LengthEv", metadata !22, i32 112, metadata !148, i1 false, i1 false, i32 0, i32 0, null, i32 256, i1 false, null, null, i32 0, metadata !150} ; [ DW_TAG_subprogram ]
!148 = metadata !{i32 720917, i32 0, metadata !"", i32 0, i32 0, i64 0, i64 0, i32 0, i32 0, i32 0, metadata !149, i32 0, i32 0} ; [ DW_TAG_subroutine_type ]
!149 = metadata !{metadata !21, metadata !118}
!150 = metadata !{metadata !151}
!151 = metadata !{i32 720932}                     ; [ DW_TAG_base_type ]
!152 = metadata !{i32 720942, i32 0, metadata !94, metadata !"LengthSquared", metadata !"LengthSquared", metadata !"_ZNK6b2Vec213LengthSquaredEv", metadata !22, i32 119, metadata !148, i1 false, i1 false, i32 0, i32 0, null, i32 256, i1 false, null, null, i32 0, metadata !153} ; [ DW_TAG_subprogram ]
!153 = metadata !{metadata !154}
!154 = metadata !{i32 720932}                     ; [ DW_TAG_base_type ]
!155 = metadata !{i32 720942, i32 0, metadata !94, metadata !"Normalize", metadata !"Normalize", metadata !"_ZN6b2Vec29NormalizeEv", metadata !22, i32 125, metadata !156, i1 false, i1 false, i32 0, i32 0, null, i32 256, i1 false, null, null, i32 0, metadata !158} ; [ DW_TAG_subprogram ]
!156 = metadata !{i32 720917, i32 0, metadata !"", i32 0, i32 0, i64 0, i64 0, i32 0, i32 0, i32 0, metadata !157, i32 0, i32 0} ; [ DW_TAG_subroutine_type ]
!157 = metadata !{metadata !21, metadata !101}
!158 = metadata !{metadata !159}
!159 = metadata !{i32 720932}                     ; [ DW_TAG_base_type ]
!160 = metadata !{i32 720942, i32 0, metadata !94, metadata !"IsValid", metadata !"IsValid", metadata !"_ZNK6b2Vec27IsValidEv", metadata !22, i32 140, metadata !161, i1 false, i1 false, i32 0, i32 0, null, i32 256, i1 false, null, null, i32 0, metadata !163} ; [ DW_TAG_subprogram ]
!161 = metadata !{i32 720917, i32 0, metadata !"", i32 0, i32 0, i64 0, i64 0, i32 0, i32 0, i32 0, metadata !162, i32 0, i32 0} ; [ DW_TAG_subroutine_type ]
!162 = metadata !{metadata !88, metadata !118}
!163 = metadata !{metadata !164}
!164 = metadata !{i32 720932}                     ; [ DW_TAG_base_type ]
!165 = metadata !{i32 720942, i32 0, metadata !94, metadata !"Skew", metadata !"Skew", metadata !"_ZNK6b2Vec24SkewEv", metadata !22, i32 146, metadata !116, i1 false, i1 false, i32 0, i32 0, null, i32 256, i1 false, null, null, i32 0, metadata !166} ; [ DW_TAG_subprogram ]
!166 = metadata !{metadata !167}
!167 = metadata !{i32 720932}                     ; [ DW_TAG_base_type ]
!168 = metadata !{i32 720942, i32 0, metadata !94, metadata !"b2Vec2", metadata !"b2Vec2", metadata !"", metadata !22, i32 64, metadata !134, i1 false, i1 false, i32 0, i32 0, null, i32 320, i1 false, null, null, i32 0, metadata !169} ; [ DW_TAG_subprogram ]
!169 = metadata !{metadata !170}
!170 = metadata !{i32 720932}                     ; [ DW_TAG_base_type ]
!171 = metadata !{i32 720942, i32 0, metadata !94, metadata !"operator=", metadata !"operator=", metadata !"_ZN6b2Vec2aSERKS_", metadata !22, i32 64, metadata !172, i1 false, i1 false, i32 0, i32 0, null, i32 320, i1 false, null, null, i32 0, metadata !175} ; [ DW_TAG_subprogram ]
!172 = metadata !{i32 720917, i32 0, metadata !"", i32 0, i32 0, i64 0, i64 0, i32 0, i32 0, i32 0, metadata !173, i32 0, i32 0} ; [ DW_TAG_subroutine_type ]
!173 = metadata !{metadata !174, metadata !101, metadata !136}
!174 = metadata !{i32 720912, null, null, null, i32 0, i64 0, i64 0, i64 0, i32 0, metadata !94} ; [ DW_TAG_reference_type ]
!175 = metadata !{metadata !176}
!176 = metadata !{i32 720932}                     ; [ DW_TAG_base_type ]
!177 = metadata !{i32 720909, metadata !91, metadata !"q", metadata !22, i32 384, i64 64, i64 32, i64 64, i32 0, metadata !178} ; [ DW_TAG_member ]
!178 = metadata !{i32 720898, null, metadata !"b2Rot", metadata !22, i32 310, i64 64, i64 32, i32 0, i32 0, null, metadata !179, i32 0, null, null} ; [ DW_TAG_class_type ]
!179 = metadata !{metadata !180, metadata !181, metadata !182, metadata !188, metadata !193, metadata !196, metadata !199, metadata !206, metadata !211, metadata !214, metadata !220}
!180 = metadata !{i32 720909, metadata !178, metadata !"s", metadata !22, i32 356, i64 32, i64 32, i64 0, i32 0, metadata !21} ; [ DW_TAG_member ]
!181 = metadata !{i32 720909, metadata !178, metadata !"c", metadata !22, i32 356, i64 32, i64 32, i64 32, i32 0, metadata !21} ; [ DW_TAG_member ]
!182 = metadata !{i32 720942, i32 0, metadata !178, metadata !"b2Rot", metadata !"b2Rot", metadata !"", metadata !22, i32 312, metadata !183, i1 false, i1 false, i32 0, i32 0, null, i32 256, i1 false, null, null, i32 0, metadata !186} ; [ DW_TAG_subprogram ]
!183 = metadata !{i32 720917, i32 0, metadata !"", i32 0, i32 0, i64 0, i64 0, i32 0, i32 0, i32 0, metadata !184, i32 0, i32 0} ; [ DW_TAG_subroutine_type ]
!184 = metadata !{null, metadata !185}
!185 = metadata !{i32 720911, i32 0, metadata !"", i32 0, i32 0, i64 32, i64 32, i64 0, i32 64, metadata !178} ; [ DW_TAG_pointer_type ]
!186 = metadata !{metadata !187}
!187 = metadata !{i32 720932}                     ; [ DW_TAG_base_type ]
!188 = metadata !{i32 720942, i32 0, metadata !178, metadata !"b2Rot", metadata !"b2Rot", metadata !"", metadata !22, i32 315, metadata !189, i1 false, i1 false, i32 0, i32 0, null, i32 384, i1 false, null, null, i32 0, metadata !191} ; [ DW_TAG_subprogram ]
!189 = metadata !{i32 720917, i32 0, metadata !"", i32 0, i32 0, i64 0, i64 0, i32 0, i32 0, i32 0, metadata !190, i32 0, i32 0} ; [ DW_TAG_subroutine_type ]
!190 = metadata !{null, metadata !185, metadata !21}
!191 = metadata !{metadata !192}
!192 = metadata !{i32 720932}                     ; [ DW_TAG_base_type ]
!193 = metadata !{i32 720942, i32 0, metadata !178, metadata !"Set", metadata !"Set", metadata !"_ZN5b2Rot3SetEf", metadata !22, i32 323, metadata !189, i1 false, i1 false, i32 0, i32 0, null, i32 256, i1 false, null, null, i32 0, metadata !194} ; [ DW_TAG_subprogram ]
!194 = metadata !{metadata !195}
!195 = metadata !{i32 720932}                     ; [ DW_TAG_base_type ]
!196 = metadata !{i32 720942, i32 0, metadata !178, metadata !"SetIdentity", metadata !"SetIdentity", metadata !"_ZN5b2Rot11SetIdentityEv", metadata !22, i32 331, metadata !183, i1 false, i1 false, i32 0, i32 0, null, i32 256, i1 false, null, null, i32 0, metadata !197} ; [ DW_TAG_subprogram ]
!197 = metadata !{metadata !198}
!198 = metadata !{i32 720932}                     ; [ DW_TAG_base_type ]
!199 = metadata !{i32 720942, i32 0, metadata !178, metadata !"GetAngle", metadata !"GetAngle", metadata !"_ZNK5b2Rot8GetAngleEv", metadata !22, i32 338, metadata !200, i1 false, i1 false, i32 0, i32 0, null, i32 256, i1 false, null, null, i32 0, metadata !204} ; [ DW_TAG_subprogram ]
!200 = metadata !{i32 720917, i32 0, metadata !"", i32 0, i32 0, i64 0, i64 0, i32 0, i32 0, i32 0, metadata !201, i32 0, i32 0} ; [ DW_TAG_subroutine_type ]
!201 = metadata !{metadata !21, metadata !202}
!202 = metadata !{i32 720911, i32 0, metadata !"", i32 0, i32 0, i64 32, i64 32, i64 0, i32 64, metadata !203} ; [ DW_TAG_pointer_type ]
!203 = metadata !{i32 720934, null, metadata !"", null, i32 0, i64 0, i64 0, i64 0, i32 0, metadata !178} ; [ DW_TAG_const_type ]
!204 = metadata !{metadata !205}
!205 = metadata !{i32 720932}                     ; [ DW_TAG_base_type ]
!206 = metadata !{i32 720942, i32 0, metadata !178, metadata !"GetXAxis", metadata !"GetXAxis", metadata !"_ZNK5b2Rot8GetXAxisEv", metadata !22, i32 344, metadata !207, i1 false, i1 false, i32 0, i32 0, null, i32 256, i1 false, null, null, i32 0, metadata !209} ; [ DW_TAG_subprogram ]
!207 = metadata !{i32 720917, i32 0, metadata !"", i32 0, i32 0, i64 0, i64 0, i32 0, i32 0, i32 0, metadata !208, i32 0, i32 0} ; [ DW_TAG_subroutine_type ]
!208 = metadata !{metadata !94, metadata !202}
!209 = metadata !{metadata !210}
!210 = metadata !{i32 720932}                     ; [ DW_TAG_base_type ]
!211 = metadata !{i32 720942, i32 0, metadata !178, metadata !"GetYAxis", metadata !"GetYAxis", metadata !"_ZNK5b2Rot8GetYAxisEv", metadata !22, i32 350, metadata !207, i1 false, i1 false, i32 0, i32 0, null, i32 256, i1 false, null, null, i32 0, metadata !212} ; [ DW_TAG_subprogram ]
!212 = metadata !{metadata !213}
!213 = metadata !{i32 720932}                     ; [ DW_TAG_base_type ]
!214 = metadata !{i32 720942, i32 0, metadata !178, metadata !"b2Rot", metadata !"b2Rot", metadata !"", metadata !22, i32 310, metadata !215, i1 false, i1 false, i32 0, i32 0, null, i32 320, i1 false, null, null, i32 0, metadata !218} ; [ DW_TAG_subprogram ]
!215 = metadata !{i32 720917, i32 0, metadata !"", i32 0, i32 0, i64 0, i64 0, i32 0, i32 0, i32 0, metadata !216, i32 0, i32 0} ; [ DW_TAG_subroutine_type ]
!216 = metadata !{null, metadata !185, metadata !217}
!217 = metadata !{i32 720912, null, null, null, i32 0, i64 0, i64 0, i64 0, i32 0, metadata !203} ; [ DW_TAG_reference_type ]
!218 = metadata !{metadata !219}
!219 = metadata !{i32 720932}                     ; [ DW_TAG_base_type ]
!220 = metadata !{i32 720942, i32 0, metadata !178, metadata !"operator=", metadata !"operator=", metadata !"_ZN5b2RotaSERKS_", metadata !22, i32 310, metadata !221, i1 false, i1 false, i32 0, i32 0, null, i32 320, i1 false, null, null, i32 0, metadata !224} ; [ DW_TAG_subprogram ]
!221 = metadata !{i32 720917, i32 0, metadata !"", i32 0, i32 0, i64 0, i64 0, i32 0, i32 0, i32 0, metadata !222, i32 0, i32 0} ; [ DW_TAG_subroutine_type ]
!222 = metadata !{metadata !223, metadata !185, metadata !217}
!223 = metadata !{i32 720912, null, null, null, i32 0, i64 0, i64 0, i64 0, i32 0, metadata !178} ; [ DW_TAG_reference_type ]
!224 = metadata !{metadata !225}
!225 = metadata !{i32 720932}                     ; [ DW_TAG_base_type ]
!226 = metadata !{i32 720942, i32 0, metadata !91, metadata !"b2Transform", metadata !"b2Transform", metadata !"", metadata !22, i32 364, metadata !227, i1 false, i1 false, i32 0, i32 0, null, i32 256, i1 false, null, null, i32 0, metadata !230} ; [ DW_TAG_subprogram ]
!227 = metadata !{i32 720917, i32 0, metadata !"", i32 0, i32 0, i64 0, i64 0, i32 0, i32 0, i32 0, metadata !228, i32 0, i32 0} ; [ DW_TAG_subroutine_type ]
!228 = metadata !{null, metadata !229}
!229 = metadata !{i32 720911, i32 0, metadata !"", i32 0, i32 0, i64 32, i64 32, i64 0, i32 64, metadata !91} ; [ DW_TAG_pointer_type ]
!230 = metadata !{metadata !231}
!231 = metadata !{i32 720932}                     ; [ DW_TAG_base_type ]
!232 = metadata !{i32 720942, i32 0, metadata !91, metadata !"b2Transform", metadata !"b2Transform", metadata !"", metadata !22, i32 367, metadata !233, i1 false, i1 false, i32 0, i32 0, null, i32 256, i1 false, null, null, i32 0, metadata !235} ; [ DW_TAG_subprogram ]
!233 = metadata !{i32 720917, i32 0, metadata !"", i32 0, i32 0, i64 0, i64 0, i32 0, i32 0, i32 0, metadata !234, i32 0, i32 0} ; [ DW_TAG_subroutine_type ]
!234 = metadata !{null, metadata !229, metadata !136, metadata !217}
!235 = metadata !{metadata !236}
!236 = metadata !{i32 720932}                     ; [ DW_TAG_base_type ]
!237 = metadata !{i32 720942, i32 0, metadata !91, metadata !"SetIdentity", metadata !"SetIdentity", metadata !"_ZN11b2Transform11SetIdentityEv", metadata !22, i32 370, metadata !227, i1 false, i1 false, i32 0, i32 0, null, i32 256, i1 false, null, null, i32 0, metadata !238} ; [ DW_TAG_subprogram ]
!238 = metadata !{metadata !239}
!239 = metadata !{i32 720932}                     ; [ DW_TAG_base_type ]
!240 = metadata !{i32 720942, i32 0, metadata !91, metadata !"Set", metadata !"Set", metadata !"_ZN11b2Transform3SetERK6b2Vec2f", metadata !22, i32 377, metadata !241, i1 false, i1 false, i32 0, i32 0, null, i32 256, i1 false, null, null, i32 0, metadata !243} ; [ DW_TAG_subprogram ]
!241 = metadata !{i32 720917, i32 0, metadata !"", i32 0, i32 0, i64 0, i64 0, i32 0, i32 0, i32 0, metadata !242, i32 0, i32 0} ; [ DW_TAG_subroutine_type ]
!242 = metadata !{null, metadata !229, metadata !136, metadata !21}
!243 = metadata !{metadata !244}
!244 = metadata !{i32 720932}                     ; [ DW_TAG_base_type ]
!245 = metadata !{i32 720942, i32 0, metadata !91, metadata !"b2Transform", metadata !"b2Transform", metadata !"", metadata !22, i32 361, metadata !246, i1 false, i1 false, i32 0, i32 0, null, i32 320, i1 false, null, null, i32 0, metadata !248} ; [ DW_TAG_subprogram ]
!246 = metadata !{i32 720917, i32 0, metadata !"", i32 0, i32 0, i64 0, i64 0, i32 0, i32 0, i32 0, metadata !247, i32 0, i32 0} ; [ DW_TAG_subroutine_type ]
!247 = metadata !{null, metadata !229, metadata !89}
!248 = metadata !{metadata !249}
!249 = metadata !{i32 720932}                     ; [ DW_TAG_base_type ]
!250 = metadata !{metadata !251}
!251 = metadata !{i32 720932}                     ; [ DW_TAG_base_type ]
!252 = metadata !{i32 720942, i32 0, metadata !10, metadata !"RayCast", metadata !"RayCast", metadata !"_ZNK7b2Shape7RayCastEP15b2RayCastOutputRK14b2RayCastInputRK11b2Transformi", metadata !11, i32 77, metadata !253, i1 false, i1 false, i32 2, i32 5, metadata !10, i32 256, i1 false, null, null, i32 0, metadata !268} ; [ DW_TAG_subprogram ]
!253 = metadata !{i32 720917, i32 0, metadata !"", i32 0, i32 0, i64 0, i64 0, i32 0, i32 0, i32 0, metadata !254, i32 0, i32 0} ; [ DW_TAG_subroutine_type ]
!254 = metadata !{metadata !88, metadata !33, metadata !255, metadata !261, metadata !89, metadata !43}
!255 = metadata !{i32 720911, null, metadata !"", null, i32 0, i64 32, i64 32, i64 0, i32 0, metadata !256} ; [ DW_TAG_pointer_type ]
!256 = metadata !{i32 720898, null, metadata !"b2RayCastOutput", metadata !257, i32 154, i64 96, i64 32, i32 0, i32 0, null, metadata !258, i32 0, null, null} ; [ DW_TAG_class_type ]
!257 = metadata !{i32 720937, metadata !"./Box2D/Collision/b2Collision.h", metadata !"/home/bxl/nacl-app/fruit-click-read-only/fruitclick-nacl", null} ; [ DW_TAG_file_type ]
!258 = metadata !{metadata !259, metadata !260}
!259 = metadata !{i32 720909, metadata !256, metadata !"normal", metadata !257, i32 156, i64 64, i64 32, i64 0, i32 0, metadata !94} ; [ DW_TAG_member ]
!260 = metadata !{i32 720909, metadata !256, metadata !"fraction", metadata !257, i32 157, i64 32, i64 32, i64 64, i32 0, metadata !21} ; [ DW_TAG_member ]
!261 = metadata !{i32 720912, null, null, null, i32 0, i64 0, i64 0, i64 0, i32 0, metadata !262} ; [ DW_TAG_reference_type ]
!262 = metadata !{i32 720934, null, metadata !"", null, i32 0, i64 0, i64 0, i64 0, i32 0, metadata !263} ; [ DW_TAG_const_type ]
!263 = metadata !{i32 720898, null, metadata !"b2RayCastInput", metadata !257, i32 146, i64 160, i64 32, i32 0, i32 0, null, metadata !264, i32 0, null, null} ; [ DW_TAG_class_type ]
!264 = metadata !{metadata !265, metadata !266, metadata !267}
!265 = metadata !{i32 720909, metadata !263, metadata !"p1", metadata !257, i32 148, i64 64, i64 32, i64 0, i32 0, metadata !94} ; [ DW_TAG_member ]
!266 = metadata !{i32 720909, metadata !263, metadata !"p2", metadata !257, i32 148, i64 64, i64 32, i64 64, i32 0, metadata !94} ; [ DW_TAG_member ]
!267 = metadata !{i32 720909, metadata !263, metadata !"maxFraction", metadata !257, i32 149, i64 32, i64 32, i64 128, i32 0, metadata !21} ; [ DW_TAG_member ]
!268 = metadata !{metadata !269}
!269 = metadata !{i32 720932}                     ; [ DW_TAG_base_type ]
!270 = metadata !{i32 720942, i32 0, metadata !10, metadata !"ComputeAABB", metadata !"ComputeAABB", metadata !"_ZNK7b2Shape11ComputeAABBEP6b2AABBRK11b2Transformi", metadata !11, i32 84, metadata !271, i1 false, i1 false, i32 2, i32 6, metadata !10, i32 256, i1 false, null, null, i32 0, metadata !319} ; [ DW_TAG_subprogram ]
!271 = metadata !{i32 720917, i32 0, metadata !"", i32 0, i32 0, i64 0, i64 0, i32 0, i32 0, i32 0, metadata !272, i32 0, i32 0} ; [ DW_TAG_subroutine_type ]
!272 = metadata !{null, metadata !33, metadata !273, metadata !89, metadata !43}
!273 = metadata !{i32 720911, i32 0, metadata !"", i32 0, i32 0, i64 32, i64 32, i64 0, i32 64, metadata !274} ; [ DW_TAG_pointer_type ]
!274 = metadata !{i32 720898, null, metadata !"b2AABB", metadata !257, i32 161, i64 128, i64 32, i32 0, i32 0, null, metadata !275, i32 0, null, null} ; [ DW_TAG_class_type ]
!275 = metadata !{metadata !276, metadata !277, metadata !278, metadata !285, metadata !290, metadata !293, metadata !298, metadata !304, metadata !309, metadata !314}
!276 = metadata !{i32 720909, metadata !274, metadata !"lowerBound", metadata !257, i32 213, i64 64, i64 32, i64 0, i32 0, metadata !94} ; [ DW_TAG_member ]
!277 = metadata !{i32 720909, metadata !274, metadata !"upperBound", metadata !257, i32 214, i64 64, i64 32, i64 64, i32 0, metadata !94} ; [ DW_TAG_member ]
!278 = metadata !{i32 720942, i32 0, metadata !274, metadata !"IsValid", metadata !"IsValid", metadata !"_ZNK6b2AABB7IsValidEv", metadata !257, i32 164, metadata !279, i1 false, i1 false, i32 0, i32 0, null, i32 256, i1 false, null, null, i32 0, metadata !283} ; [ DW_TAG_subprogram ]
!279 = metadata !{i32 720917, i32 0, metadata !"", i32 0, i32 0, i64 0, i64 0, i32 0, i32 0, i32 0, metadata !280, i32 0, i32 0} ; [ DW_TAG_subroutine_type ]
!280 = metadata !{metadata !88, metadata !281}
!281 = metadata !{i32 720911, i32 0, metadata !"", i32 0, i32 0, i64 32, i64 32, i64 0, i32 64, metadata !282} ; [ DW_TAG_pointer_type ]
!282 = metadata !{i32 720934, null, metadata !"", null, i32 0, i64 0, i64 0, i64 0, i32 0, metadata !274} ; [ DW_TAG_const_type ]
!283 = metadata !{metadata !284}
!284 = metadata !{i32 720932}                     ; [ DW_TAG_base_type ]
!285 = metadata !{i32 720942, i32 0, metadata !274, metadata !"GetCenter", metadata !"GetCenter", metadata !"_ZNK6b2AABB9GetCenterEv", metadata !257, i32 167, metadata !286, i1 false, i1 false, i32 0, i32 0, null, i32 256, i1 false, null, null, i32 0, metadata !288} ; [ DW_TAG_subprogram ]
!286 = metadata !{i32 720917, i32 0, metadata !"", i32 0, i32 0, i64 0, i64 0, i32 0, i32 0, i32 0, metadata !287, i32 0, i32 0} ; [ DW_TAG_subroutine_type ]
!287 = metadata !{metadata !94, metadata !281}
!288 = metadata !{metadata !289}
!289 = metadata !{i32 720932}                     ; [ DW_TAG_base_type ]
!290 = metadata !{i32 720942, i32 0, metadata !274, metadata !"GetExtents", metadata !"GetExtents", metadata !"_ZNK6b2AABB10GetExtentsEv", metadata !257, i32 173, metadata !286, i1 false, i1 false, i32 0, i32 0, null, i32 256, i1 false, null, null, i32 0, metadata !291} ; [ DW_TAG_subprogram ]
!291 = metadata !{metadata !292}
!292 = metadata !{i32 720932}                     ; [ DW_TAG_base_type ]
!293 = metadata !{i32 720942, i32 0, metadata !274, metadata !"GetPerimeter", metadata !"GetPerimeter", metadata !"_ZNK6b2AABB12GetPerimeterEv", metadata !257, i32 179, metadata !294, i1 false, i1 false, i32 0, i32 0, null, i32 256, i1 false, null, null, i32 0, metadata !296} ; [ DW_TAG_subprogram ]
!294 = metadata !{i32 720917, i32 0, metadata !"", i32 0, i32 0, i64 0, i64 0, i32 0, i32 0, i32 0, metadata !295, i32 0, i32 0} ; [ DW_TAG_subroutine_type ]
!295 = metadata !{metadata !21, metadata !281}
!296 = metadata !{metadata !297}
!297 = metadata !{i32 720932}                     ; [ DW_TAG_base_type ]
!298 = metadata !{i32 720942, i32 0, metadata !274, metadata !"Combine", metadata !"Combine", metadata !"_ZN6b2AABB7CombineERKS_", metadata !257, i32 187, metadata !299, i1 false, i1 false, i32 0, i32 0, null, i32 256, i1 false, null, null, i32 0, metadata !302} ; [ DW_TAG_subprogram ]
!299 = metadata !{i32 720917, i32 0, metadata !"", i32 0, i32 0, i64 0, i64 0, i32 0, i32 0, i32 0, metadata !300, i32 0, i32 0} ; [ DW_TAG_subroutine_type ]
!300 = metadata !{null, metadata !273, metadata !301}
!301 = metadata !{i32 720912, null, null, null, i32 0, i64 0, i64 0, i64 0, i32 0, metadata !282} ; [ DW_TAG_reference_type ]
!302 = metadata !{metadata !303}
!303 = metadata !{i32 720932}                     ; [ DW_TAG_base_type ]
!304 = metadata !{i32 720942, i32 0, metadata !274, metadata !"Combine", metadata !"Combine", metadata !"_ZN6b2AABB7CombineERKS_S1_", metadata !257, i32 194, metadata !305, i1 false, i1 false, i32 0, i32 0, null, i32 256, i1 false, null, null, i32 0, metadata !307} ; [ DW_TAG_subprogram ]
!305 = metadata !{i32 720917, i32 0, metadata !"", i32 0, i32 0, i64 0, i64 0, i32 0, i32 0, i32 0, metadata !306, i32 0, i32 0} ; [ DW_TAG_subroutine_type ]
!306 = metadata !{null, metadata !273, metadata !301, metadata !301}
!307 = metadata !{metadata !308}
!308 = metadata !{i32 720932}                     ; [ DW_TAG_base_type ]
!309 = metadata !{i32 720942, i32 0, metadata !274, metadata !"Contains", metadata !"Contains", metadata !"_ZNK6b2AABB8ContainsERKS_", metadata !257, i32 201, metadata !310, i1 false, i1 false, i32 0, i32 0, null, i32 256, i1 false, null, null, i32 0, metadata !312} ; [ DW_TAG_subprogram ]
!310 = metadata !{i32 720917, i32 0, metadata !"", i32 0, i32 0, i64 0, i64 0, i32 0, i32 0, i32 0, metadata !311, i32 0, i32 0} ; [ DW_TAG_subroutine_type ]
!311 = metadata !{metadata !88, metadata !281, metadata !301}
!312 = metadata !{metadata !313}
!313 = metadata !{i32 720932}                     ; [ DW_TAG_base_type ]
!314 = metadata !{i32 720942, i32 0, metadata !274, metadata !"RayCast", metadata !"RayCast", metadata !"_ZNK6b2AABB7RayCastEP15b2RayCastOutputRK14b2RayCastInput", metadata !257, i32 211, metadata !315, i1 false, i1 false, i32 0, i32 0, null, i32 256, i1 false, null, null, i32 0, metadata !317} ; [ DW_TAG_subprogram ]
!315 = metadata !{i32 720917, i32 0, metadata !"", i32 0, i32 0, i64 0, i64 0, i32 0, i32 0, i32 0, metadata !316, i32 0, i32 0} ; [ DW_TAG_subroutine_type ]
!316 = metadata !{metadata !88, metadata !281, metadata !255, metadata !261}
!317 = metadata !{metadata !318}
!318 = metadata !{i32 720932}                     ; [ DW_TAG_base_type ]
!319 = metadata !{metadata !320}
!320 = metadata !{i32 720932}                     ; [ DW_TAG_base_type ]
!321 = metadata !{i32 720942, i32 0, metadata !10, metadata !"ComputeMass", metadata !"ComputeMass", metadata !"_ZNK7b2Shape11ComputeMassEP10b2MassDataf", metadata !11, i32 90, metadata !322, i1 false, i1 false, i32 2, i32 7, metadata !10, i32 256, i1 false, null, null, i32 0, metadata !330} ; [ DW_TAG_subprogram ]
!322 = metadata !{i32 720917, i32 0, metadata !"", i32 0, i32 0, i64 0, i64 0, i32 0, i32 0, i32 0, metadata !323, i32 0, i32 0} ; [ DW_TAG_subroutine_type ]
!323 = metadata !{null, metadata !33, metadata !324, metadata !21}
!324 = metadata !{i32 720911, null, metadata !"", null, i32 0, i64 32, i64 32, i64 0, i32 0, metadata !325} ; [ DW_TAG_pointer_type ]
!325 = metadata !{i32 720898, null, metadata !"b2MassData", metadata !11, i32 27, i64 128, i64 32, i32 0, i32 0, null, metadata !326, i32 0, null, null} ; [ DW_TAG_class_type ]
!326 = metadata !{metadata !327, metadata !328, metadata !329}
!327 = metadata !{i32 720909, metadata !325, metadata !"mass", metadata !11, i32 30, i64 32, i64 32, i64 0, i32 0, metadata !21} ; [ DW_TAG_member ]
!328 = metadata !{i32 720909, metadata !325, metadata !"center", metadata !11, i32 33, i64 64, i64 32, i64 32, i32 0, metadata !94} ; [ DW_TAG_member ]
!329 = metadata !{i32 720909, metadata !325, metadata !"I", metadata !11, i32 36, i64 32, i64 32, i64 96, i32 0, metadata !21} ; [ DW_TAG_member ]
!330 = metadata !{metadata !331}
!331 = metadata !{i32 720932}                     ; [ DW_TAG_base_type ]
!332 = metadata !{i32 720942, i32 0, metadata !10, metadata !"b2Shape", metadata !"b2Shape", metadata !"", metadata !11, i32 42, metadata !25, i1 false, i1 false, i32 0, i32 0, null, i32 320, i1 false, null, null, i32 0, metadata !333} ; [ DW_TAG_subprogram ]
!333 = metadata !{metadata !334}
!334 = metadata !{i32 720932}                     ; [ DW_TAG_base_type ]
!335 = metadata !{metadata !336, metadata !337, metadata !338, metadata !339, metadata !340}
!336 = metadata !{i32 720936, metadata !"e_circle", i64 0} ; [ DW_TAG_enumerator ]
!337 = metadata !{i32 720936, metadata !"e_edge", i64 1} ; [ DW_TAG_enumerator ]
!338 = metadata !{i32 720936, metadata !"e_polygon", i64 2} ; [ DW_TAG_enumerator ]
!339 = metadata !{i32 720936, metadata !"e_chain", i64 3} ; [ DW_TAG_enumerator ]
!340 = metadata !{i32 720936, metadata !"e_typeCount", i64 4} ; [ DW_TAG_enumerator ]
!341 = metadata !{i32 720900, null, metadata !"b2JointType", metadata !342, i32 29, i64 32, i64 32, i32 0, i32 0, i32 0, metadata !343, i32 0, i32 0} ; [ DW_TAG_enumeration_type ]
!342 = metadata !{i32 720937, metadata !"./Box2D/Dynamics/Joints/b2Joint.h", metadata !"/home/bxl/nacl-app/fruit-click-read-only/fruitclick-nacl", null} ; [ DW_TAG_file_type ]
!343 = metadata !{metadata !344, metadata !345, metadata !346, metadata !347, metadata !348, metadata !349, metadata !350, metadata !351, metadata !352, metadata !353, metadata !354}
!344 = metadata !{i32 720936, metadata !"e_unknownJoint", i64 0} ; [ DW_TAG_enumerator ]
!345 = metadata !{i32 720936, metadata !"e_revoluteJoint", i64 1} ; [ DW_TAG_enumerator ]
!346 = metadata !{i32 720936, metadata !"e_prismaticJoint", i64 2} ; [ DW_TAG_enumerator ]
!347 = metadata !{i32 720936, metadata !"e_distanceJoint", i64 3} ; [ DW_TAG_enumerator ]
!348 = metadata !{i32 720936, metadata !"e_pulleyJoint", i64 4} ; [ DW_TAG_enumerator ]
!349 = metadata !{i32 720936, metadata !"e_mouseJoint", i64 5} ; [ DW_TAG_enumerator ]
!350 = metadata !{i32 720936, metadata !"e_gearJoint", i64 6} ; [ DW_TAG_enumerator ]
!351 = metadata !{i32 720936, metadata !"e_wheelJoint", i64 7} ; [ DW_TAG_enumerator ]
!352 = metadata !{i32 720936, metadata !"e_weldJoint", i64 8} ; [ DW_TAG_enumerator ]
!353 = metadata !{i32 720936, metadata !"e_frictionJoint", i64 9} ; [ DW_TAG_enumerator ]
!354 = metadata !{i32 720936, metadata !"e_ropeJoint", i64 10} ; [ DW_TAG_enumerator ]
!355 = metadata !{i32 720900, null, metadata !"b2LimitState", metadata !342, i32 44, i64 32, i64 32, i32 0, i32 0, i32 0, metadata !356, i32 0, i32 0} ; [ DW_TAG_enumeration_type ]
!356 = metadata !{metadata !357, metadata !358, metadata !359, metadata !360}
!357 = metadata !{i32 720936, metadata !"e_inactiveLimit", i64 0} ; [ DW_TAG_enumerator ]
!358 = metadata !{i32 720936, metadata !"e_atLowerLimit", i64 1} ; [ DW_TAG_enumerator ]
!359 = metadata !{i32 720936, metadata !"e_atUpperLimit", i64 2} ; [ DW_TAG_enumerator ]
!360 = metadata !{i32 720936, metadata !"e_equalLimits", i64 3} ; [ DW_TAG_enumerator ]
!361 = metadata !{i32 720900, metadata !362, metadata !"Type", metadata !257, i32 95, i64 32, i64 32, i32 0, i32 0, i32 0, metadata !411, i32 0, i32 0} ; [ DW_TAG_enumeration_type ]
!362 = metadata !{i32 720898, null, metadata !"b2Manifold", metadata !257, i32 93, i64 512, i64 32, i32 0, i32 0, null, metadata !363, i32 0, null, null} ; [ DW_TAG_class_type ]
!363 = metadata !{metadata !364, metadata !401, metadata !402, metadata !403, metadata !404, metadata !405}
!364 = metadata !{i32 720909, metadata !362, metadata !"points", metadata !257, i32 102, i64 320, i64 32, i64 0, i32 0, metadata !365} ; [ DW_TAG_member ]
!365 = metadata !{i32 720897, null, metadata !"", null, i32 0, i64 320, i64 32, i32 0, i32 0, metadata !366, metadata !399, i32 0, i32 0} ; [ DW_TAG_array_type ]
!366 = metadata !{i32 720898, null, metadata !"b2ManifoldPoint", metadata !257, i32 69, i64 160, i64 32, i32 0, i32 0, null, metadata !367, i32 0, null, null} ; [ DW_TAG_class_type ]
!367 = metadata !{metadata !368, metadata !369, metadata !370, metadata !371, metadata !393}
!368 = metadata !{i32 720909, metadata !366, metadata !"localPoint", metadata !257, i32 71, i64 64, i64 32, i64 0, i32 0, metadata !94} ; [ DW_TAG_member ]
!369 = metadata !{i32 720909, metadata !366, metadata !"normalImpulse", metadata !257, i32 72, i64 32, i64 32, i64 64, i32 0, metadata !21} ; [ DW_TAG_member ]
!370 = metadata !{i32 720909, metadata !366, metadata !"tangentImpulse", metadata !257, i32 73, i64 32, i64 32, i64 96, i32 0, metadata !21} ; [ DW_TAG_member ]
!371 = metadata !{i32 720909, metadata !366, metadata !"id", metadata !257, i32 74, i64 32, i64 32, i64 128, i32 0, metadata !372} ; [ DW_TAG_member ]
!372 = metadata !{i32 720919, null, metadata !"b2ContactID", metadata !257, i32 53, i64 32, i64 32, i64 0, i32 0, i32 0, metadata !373, i32 0, i32 0} ; [ DW_TAG_union_type ]
!373 = metadata !{metadata !374, metadata !383, metadata !387}
!374 = metadata !{i32 720909, metadata !372, metadata !"cf", metadata !257, i32 55, i64 32, i64 8, i64 0, i32 0, metadata !375} ; [ DW_TAG_member ]
!375 = metadata !{i32 720898, null, metadata !"b2ContactFeature", metadata !257, i32 38, i64 32, i64 8, i32 0, i32 0, null, metadata !376, i32 0, null, null} ; [ DW_TAG_class_type ]
!376 = metadata !{metadata !377, metadata !380, metadata !381, metadata !382}
!377 = metadata !{i32 720909, metadata !375, metadata !"indexA", metadata !257, i32 46, i64 8, i64 8, i64 0, i32 0, metadata !378} ; [ DW_TAG_member ]
!378 = metadata !{i32 720918, null, metadata !"uint8", metadata !257, i32 31, i64 0, i64 0, i64 0, i32 0, metadata !379} ; [ DW_TAG_typedef ]
!379 = metadata !{i32 720932, null, metadata !"unsigned char", null, i32 0, i64 8, i64 8, i64 0, i32 0, i32 8} ; [ DW_TAG_base_type ]
!380 = metadata !{i32 720909, metadata !375, metadata !"indexB", metadata !257, i32 47, i64 8, i64 8, i64 8, i32 0, metadata !378} ; [ DW_TAG_member ]
!381 = metadata !{i32 720909, metadata !375, metadata !"typeA", metadata !257, i32 48, i64 8, i64 8, i64 16, i32 0, metadata !378} ; [ DW_TAG_member ]
!382 = metadata !{i32 720909, metadata !375, metadata !"typeB", metadata !257, i32 49, i64 8, i64 8, i64 24, i32 0, metadata !378} ; [ DW_TAG_member ]
!383 = metadata !{i32 720909, metadata !372, metadata !"key", metadata !257, i32 56, i64 32, i64 32, i64 0, i32 0, metadata !384} ; [ DW_TAG_member ]
!384 = metadata !{i32 720918, null, metadata !"uint32", metadata !385, i32 33, i64 0, i64 0, i64 0, i32 0, metadata !386} ; [ DW_TAG_typedef ]
!385 = metadata !{i32 720937, metadata !"./Box2D/Collision/b2DynamicTree.h", metadata !"/home/bxl/nacl-app/fruit-click-read-only/fruitclick-nacl", null} ; [ DW_TAG_file_type ]
!386 = metadata !{i32 720932, null, metadata !"unsigned int", null, i32 0, i64 32, i64 32, i64 0, i32 0, i32 7} ; [ DW_TAG_base_type ]
!387 = metadata !{i32 720942, i32 0, metadata !372, metadata !"b2ContactID", metadata !"b2ContactID", metadata !"", metadata !257, i32 53, metadata !388, i1 false, i1 false, i32 0, i32 0, null, i32 320, i1 false, null, null, i32 0, metadata !391} ; [ DW_TAG_subprogram ]
!388 = metadata !{i32 720917, i32 0, metadata !"", i32 0, i32 0, i64 0, i64 0, i32 0, i32 0, i32 0, metadata !389, i32 0, i32 0} ; [ DW_TAG_subroutine_type ]
!389 = metadata !{null, metadata !390}
!390 = metadata !{i32 720911, i32 0, metadata !"", i32 0, i32 0, i64 32, i64 32, i64 0, i32 64, metadata !372} ; [ DW_TAG_pointer_type ]
!391 = metadata !{metadata !392}
!392 = metadata !{i32 720932}                     ; [ DW_TAG_base_type ]
!393 = metadata !{i32 720942, i32 0, metadata !366, metadata !"b2ManifoldPoint", metadata !"b2ManifoldPoint", metadata !"", metadata !257, i32 69, metadata !394, i1 false, i1 false, i32 0, i32 0, null, i32 320, i1 false, null, null, i32 0, metadata !397} ; [ DW_TAG_subprogram ]
!394 = metadata !{i32 720917, i32 0, metadata !"", i32 0, i32 0, i64 0, i64 0, i32 0, i32 0, i32 0, metadata !395, i32 0, i32 0} ; [ DW_TAG_subroutine_type ]
!395 = metadata !{null, metadata !396}
!396 = metadata !{i32 720911, i32 0, metadata !"", i32 0, i32 0, i64 32, i64 32, i64 0, i32 64, metadata !366} ; [ DW_TAG_pointer_type ]
!397 = metadata !{metadata !398}
!398 = metadata !{i32 720932}                     ; [ DW_TAG_base_type ]
!399 = metadata !{metadata !400}
!400 = metadata !{i32 720929, i64 0, i64 1}       ; [ DW_TAG_subrange_type ]
!401 = metadata !{i32 720909, metadata !362, metadata !"localNormal", metadata !257, i32 103, i64 64, i64 32, i64 320, i32 0, metadata !94} ; [ DW_TAG_member ]
!402 = metadata !{i32 720909, metadata !362, metadata !"localPoint", metadata !257, i32 104, i64 64, i64 32, i64 384, i32 0, metadata !94} ; [ DW_TAG_member ]
!403 = metadata !{i32 720909, metadata !362, metadata !"type", metadata !257, i32 105, i64 32, i64 32, i64 448, i32 0, metadata !361} ; [ DW_TAG_member ]
!404 = metadata !{i32 720909, metadata !362, metadata !"pointCount", metadata !257, i32 106, i64 32, i64 32, i64 480, i32 0, metadata !43} ; [ DW_TAG_member ]
!405 = metadata !{i32 720942, i32 0, metadata !362, metadata !"b2Manifold", metadata !"b2Manifold", metadata !"", metadata !257, i32 93, metadata !406, i1 false, i1 false, i32 0, i32 0, null, i32 320, i1 false, null, null, i32 0, metadata !409} ; [ DW_TAG_subprogram ]
!406 = metadata !{i32 720917, i32 0, metadata !"", i32 0, i32 0, i64 0, i64 0, i32 0, i32 0, i32 0, metadata !407, i32 0, i32 0} ; [ DW_TAG_subroutine_type ]
!407 = metadata !{null, metadata !408}
!408 = metadata !{i32 720911, i32 0, metadata !"", i32 0, i32 0, i64 32, i64 32, i64 0, i32 64, metadata !362} ; [ DW_TAG_pointer_type ]
!409 = metadata !{metadata !410}
!410 = metadata !{i32 720932}                     ; [ DW_TAG_base_type ]
!411 = metadata !{metadata !412, metadata !413, metadata !414}
!412 = metadata !{i32 720936, metadata !"e_circles", i64 0} ; [ DW_TAG_enumerator ]
!413 = metadata !{i32 720936, metadata !"e_faceA", i64 1} ; [ DW_TAG_enumerator ]
!414 = metadata !{i32 720936, metadata !"e_faceB", i64 2} ; [ DW_TAG_enumerator ]
!415 = metadata !{metadata !416}
!416 = metadata !{i32 0}
!417 = metadata !{metadata !418}
!418 = metadata !{metadata !419, metadata !3572, metadata !3577, metadata !3580, metadata !3583, metadata !3650, metadata !3653, metadata !3656, metadata !3659, metadata !3662, metadata !3665, metadata !3668, metadata !3671, metadata !3674, metadata !3677, metadata !3680, metadata !3683, metadata !3686, metadata !3689, metadata !3692, metadata !3695, metadata !3698, metadata !3701}
!419 = metadata !{i32 720942, i32 0, metadata !420, metadata !"Apple", metadata !"Apple", metadata !"_ZN10FruitClick5AppleC2ER7b2World", metadata !422, i32 7, metadata !423, i1 false, i1 true, i32 0, i32 0, i32 0, i32 256, i1 false, void (%"class.FruitClick::Apple"*, %class.b2World*)* @_ZN10FruitClick5AppleC2ER7b2World, null, metadata !3567, metadata !3570} ; [ DW_TAG_subprogram ]
!420 = metadata !{i32 720953, null, metadata !"FruitClick", metadata !421, i32 6} ; [ DW_TAG_namespace ]
!421 = metadata !{i32 720937, metadata !"./apple.h", metadata !"/home/bxl/nacl-app/fruit-click-read-only/fruitclick-nacl", null} ; [ DW_TAG_file_type ]
!422 = metadata !{i32 720937, metadata !"apple.cpp", metadata !"/home/bxl/nacl-app/fruit-click-read-only/fruitclick-nacl", null} ; [ DW_TAG_file_type ]
!423 = metadata !{i32 720917, i32 0, metadata !"", i32 0, i32 0, i64 0, i64 0, i32 0, i32 0, i32 0, metadata !424, i32 0, i32 0} ; [ DW_TAG_subroutine_type ]
!424 = metadata !{null, metadata !425, metadata !435}
!425 = metadata !{i32 720911, i32 0, metadata !"", i32 0, i32 0, i64 32, i64 32, i64 0, i32 64, metadata !426} ; [ DW_TAG_pointer_type ]
!426 = metadata !{i32 720898, metadata !420, metadata !"Apple", metadata !421, i32 8, i64 96, i64 32, i32 0, i32 0, null, metadata !427, i32 0, metadata !429, null} ; [ DW_TAG_class_type ]
!427 = metadata !{metadata !428, metadata !3567}
!428 = metadata !{i32 720924, metadata !426, null, metadata !421, i32 0, i64 0, i64 0, i64 0, i32 0, metadata !429} ; [ DW_TAG_inheritance ]
!429 = metadata !{i32 720898, metadata !430, metadata !"B2DObject", metadata !431, i32 9, i64 96, i64 32, i32 0, i32 0, null, metadata !432, i32 0, metadata !429, null} ; [ DW_TAG_class_type ]
!430 = metadata !{i32 720953, null, metadata !"FruitClick", metadata !431, i32 7} ; [ DW_TAG_namespace ]
!431 = metadata !{i32 720937, metadata !"./b2dobject.h", metadata !"/home/bxl/nacl-app/fruit-click-read-only/fruitclick-nacl", null} ; [ DW_TAG_file_type ]
!432 = metadata !{metadata !433, metadata !434, metadata !3529, metadata !3530, metadata !3536, metadata !3541, metadata !3548, metadata !3551, metadata !3554, metadata !3559, metadata !3562}
!433 = metadata !{i32 720909, metadata !431, metadata !"_vptr$B2DObject", metadata !431, i32 0, i64 32, i64 0, i64 0, i32 0, metadata !14} ; [ DW_TAG_member ]
!434 = metadata !{i32 720909, metadata !429, metadata !"m_world", metadata !431, i32 24, i64 32, i64 32, i64 32, i32 2, metadata !435} ; [ DW_TAG_member ]
!435 = metadata !{i32 720912, null, null, null, i32 0, i64 0, i64 0, i64 0, i32 0, metadata !436} ; [ DW_TAG_reference_type ]
!436 = metadata !{i32 720898, null, metadata !"b2World", metadata !437, i32 41, i64 824224, i64 32, i32 0, i32 0, null, metadata !438, i32 0, null, null} ; [ DW_TAG_class_type ]
!437 = metadata !{i32 720937, metadata !"./Box2D/Dynamics/b2World.h", metadata !"/home/bxl/nacl-app/fruit-click-read-only/fruitclick-nacl", null} ; [ DW_TAG_file_type ]
!438 = metadata !{metadata !439, metadata !440, metadata !489, metadata !490, metadata !3160, metadata !3161, metadata !3162, metadata !3163, metadata !3164, metadata !3165, metadata !3166, metadata !3187, metadata !3270, metadata !3271, metadata !3272, metadata !3273, metadata !3274, metadata !3275, metadata !3286, metadata !3292, metadata !3297, metadata !3302, metadata !3307, metadata !3312, metadata !3317, metadata !3322, metadata !3327, metadata !3332, metadata !3337, metadata !3342, metadata !3345, metadata !3348, metadata !3369, metadata !3389, metadata !3394, metadata !3399, metadata !3404, metadata !3409, metadata !3414, metadata !3419, metadata !3424, metadata !3429, metadata !3432, metadata !3435, metadata !3438, metadata !3441, metadata !3444, metadata !3447, metadata !3452, metadata !3455, metadata !3458, metadata !3461, metadata !3464, metadata !3467, metadata !3472, metadata !3475, metadata !3480, metadata !3483, metadata !3486, metadata !3489, metadata !3496, metadata !3503, metadata !3506, metadata !3513, metadata !3516, metadata !3519, metadata !3524, metadata !3526, metadata !3527, metadata !3528}
!439 = metadata !{i32 720909, metadata !436, metadata !"m_blockAllocator", metadata !437, i32 228, i64 544, i64 32, i64 0, i32 1, metadata !36} ; [ DW_TAG_member ]
!440 = metadata !{i32 720909, metadata !436, metadata !"m_stackAllocator", metadata !437, i32 229, i64 822400, i64 32, i64 544, i32 1, metadata !441} ; [ DW_TAG_member ]
!441 = metadata !{i32 720898, null, metadata !"b2StackAllocator", metadata !442, i32 37, i64 822400, i64 32, i32 0, i32 0, null, metadata !443, i32 0, null, null} ; [ DW_TAG_class_type ]
!442 = metadata !{i32 720937, metadata !"./Box2D/Common/b2StackAllocator.h", metadata !"/home/bxl/nacl-app/fruit-click-read-only/fruitclick-nacl", null} ; [ DW_TAG_file_type ]
!443 = metadata !{metadata !444, metadata !449, metadata !450, metadata !451, metadata !452, metadata !462, metadata !463, metadata !469, metadata !472, metadata !477, metadata !482}
!444 = metadata !{i32 720909, metadata !441, metadata !"m_data", metadata !442, i32 50, i64 819200, i64 8, i64 0, i32 1, metadata !445} ; [ DW_TAG_member ]
!445 = metadata !{i32 720897, null, metadata !"", null, i32 0, i64 819200, i64 8, i32 0, i32 0, metadata !446, metadata !447, i32 0, i32 0} ; [ DW_TAG_array_type ]
!446 = metadata !{i32 720932, null, metadata !"char", null, i32 0, i64 8, i64 8, i64 0, i32 0, i32 6} ; [ DW_TAG_base_type ]
!447 = metadata !{metadata !448}
!448 = metadata !{i32 720929, i64 0, i64 102399}  ; [ DW_TAG_subrange_type ]
!449 = metadata !{i32 720909, metadata !441, metadata !"m_index", metadata !442, i32 51, i64 32, i64 32, i64 819200, i32 1, metadata !43} ; [ DW_TAG_member ]
!450 = metadata !{i32 720909, metadata !441, metadata !"m_allocation", metadata !442, i32 53, i64 32, i64 32, i64 819232, i32 1, metadata !43} ; [ DW_TAG_member ]
!451 = metadata !{i32 720909, metadata !441, metadata !"m_maxAllocation", metadata !442, i32 54, i64 32, i64 32, i64 819264, i32 1, metadata !43} ; [ DW_TAG_member ]
!452 = metadata !{i32 720909, metadata !441, metadata !"m_entries", metadata !442, i32 56, i64 3072, i64 32, i64 819296, i32 1, metadata !453} ; [ DW_TAG_member ]
!453 = metadata !{i32 720897, null, metadata !"", null, i32 0, i64 3072, i64 32, i32 0, i32 0, metadata !454, metadata !460, i32 0, i32 0} ; [ DW_TAG_array_type ]
!454 = metadata !{i32 720898, null, metadata !"b2StackEntry", metadata !442, i32 27, i64 96, i64 32, i32 0, i32 0, null, metadata !455, i32 0, null, null} ; [ DW_TAG_class_type ]
!455 = metadata !{metadata !456, metadata !458, metadata !459}
!456 = metadata !{i32 720909, metadata !454, metadata !"data", metadata !442, i32 29, i64 32, i64 32, i64 0, i32 0, metadata !457} ; [ DW_TAG_member ]
!457 = metadata !{i32 720911, null, metadata !"", null, i32 0, i64 32, i64 32, i64 0, i32 0, metadata !446} ; [ DW_TAG_pointer_type ]
!458 = metadata !{i32 720909, metadata !454, metadata !"size", metadata !442, i32 30, i64 32, i64 32, i64 32, i32 0, metadata !43} ; [ DW_TAG_member ]
!459 = metadata !{i32 720909, metadata !454, metadata !"usedMalloc", metadata !442, i32 31, i64 8, i64 8, i64 64, i32 0, metadata !88} ; [ DW_TAG_member ]
!460 = metadata !{metadata !461}
!461 = metadata !{i32 720929, i64 0, i64 31}      ; [ DW_TAG_subrange_type ]
!462 = metadata !{i32 720909, metadata !441, metadata !"m_entryCount", metadata !442, i32 57, i64 32, i64 32, i64 822368, i32 1, metadata !43} ; [ DW_TAG_member ]
!463 = metadata !{i32 720942, i32 0, metadata !441, metadata !"b2StackAllocator", metadata !"b2StackAllocator", metadata !"", metadata !442, i32 40, metadata !464, i1 false, i1 false, i32 0, i32 0, null, i32 256, i1 false, null, null, i32 0, metadata !467} ; [ DW_TAG_subprogram ]
!464 = metadata !{i32 720917, i32 0, metadata !"", i32 0, i32 0, i64 0, i64 0, i32 0, i32 0, i32 0, metadata !465, i32 0, i32 0} ; [ DW_TAG_subroutine_type ]
!465 = metadata !{null, metadata !466}
!466 = metadata !{i32 720911, i32 0, metadata !"", i32 0, i32 0, i64 32, i64 32, i64 0, i32 64, metadata !441} ; [ DW_TAG_pointer_type ]
!467 = metadata !{metadata !468}
!468 = metadata !{i32 720932}                     ; [ DW_TAG_base_type ]
!469 = metadata !{i32 720942, i32 0, metadata !441, metadata !"~b2StackAllocator", metadata !"~b2StackAllocator", metadata !"", metadata !442, i32 41, metadata !464, i1 false, i1 false, i32 0, i32 0, null, i32 256, i1 false, null, null, i32 0, metadata !470} ; [ DW_TAG_subprogram ]
!470 = metadata !{metadata !471}
!471 = metadata !{i32 720932}                     ; [ DW_TAG_base_type ]
!472 = metadata !{i32 720942, i32 0, metadata !441, metadata !"Allocate", metadata !"Allocate", metadata !"_ZN16b2StackAllocator8AllocateEi", metadata !442, i32 43, metadata !473, i1 false, i1 false, i32 0, i32 0, null, i32 256, i1 false, null, null, i32 0, metadata !475} ; [ DW_TAG_subprogram ]
!473 = metadata !{i32 720917, i32 0, metadata !"", i32 0, i32 0, i64 0, i64 0, i32 0, i32 0, i32 0, metadata !474, i32 0, i32 0} ; [ DW_TAG_subroutine_type ]
!474 = metadata !{metadata !62, metadata !466, metadata !43}
!475 = metadata !{metadata !476}
!476 = metadata !{i32 720932}                     ; [ DW_TAG_base_type ]
!477 = metadata !{i32 720942, i32 0, metadata !441, metadata !"Free", metadata !"Free", metadata !"_ZN16b2StackAllocator4FreeEPv", metadata !442, i32 44, metadata !478, i1 false, i1 false, i32 0, i32 0, null, i32 256, i1 false, null, null, i32 0, metadata !480} ; [ DW_TAG_subprogram ]
!478 = metadata !{i32 720917, i32 0, metadata !"", i32 0, i32 0, i64 0, i64 0, i32 0, i32 0, i32 0, metadata !479, i32 0, i32 0} ; [ DW_TAG_subroutine_type ]
!479 = metadata !{null, metadata !466, metadata !62}
!480 = metadata !{metadata !481}
!481 = metadata !{i32 720932}                     ; [ DW_TAG_base_type ]
!482 = metadata !{i32 720942, i32 0, metadata !441, metadata !"GetMaxAllocation", metadata !"GetMaxAllocation", metadata !"_ZNK16b2StackAllocator16GetMaxAllocationEv", metadata !442, i32 46, metadata !483, i1 false, i1 false, i32 0, i32 0, null, i32 256, i1 false, null, null, i32 0, metadata !487} ; [ DW_TAG_subprogram ]
!483 = metadata !{i32 720917, i32 0, metadata !"", i32 0, i32 0, i64 0, i64 0, i32 0, i32 0, i32 0, metadata !484, i32 0, i32 0} ; [ DW_TAG_subroutine_type ]
!484 = metadata !{metadata !43, metadata !485}
!485 = metadata !{i32 720911, i32 0, metadata !"", i32 0, i32 0, i64 32, i64 32, i64 0, i32 64, metadata !486} ; [ DW_TAG_pointer_type ]
!486 = metadata !{i32 720934, null, metadata !"", null, i32 0, i64 0, i64 0, i64 0, i32 0, metadata !441} ; [ DW_TAG_const_type ]
!487 = metadata !{metadata !488}
!488 = metadata !{i32 720932}                     ; [ DW_TAG_base_type ]
!489 = metadata !{i32 720909, metadata !436, metadata !"m_flags", metadata !437, i32 231, i64 32, i64 32, i64 822944, i32 1, metadata !43} ; [ DW_TAG_member ]
!490 = metadata !{i32 720909, metadata !436, metadata !"m_contactManager", metadata !437, i32 233, i64 640, i64 32, i64 822976, i32 1, metadata !491} ; [ DW_TAG_member ]
!491 = metadata !{i32 720898, null, metadata !"b2ContactManager", metadata !492, i32 30, i64 640, i64 32, i32 0, i32 0, null, metadata !493, i32 0, null, null} ; [ DW_TAG_class_type ]
!492 = metadata !{i32 720937, metadata !"./Box2D/Dynamics/b2ContactManager.h", metadata !"/home/bxl/nacl-app/fruit-click-read-only/fruitclick-nacl", null} ; [ DW_TAG_file_type ]
!493 = metadata !{metadata !494, metadata !707, metadata !3119, metadata !3120, metadata !3136, metadata !3137, metadata !3138, metadata !3144, metadata !3149, metadata !3152, metadata !3157}
!494 = metadata !{i32 720909, metadata !491, metadata !"m_broadPhase", metadata !492, i32 44, i64 480, i64 32, i64 0, i32 0, metadata !495} ; [ DW_TAG_member ]
!495 = metadata !{i32 720898, null, metadata !"b2BroadPhase", metadata !496, i32 37, i64 480, i64 32, i32 0, i32 0, null, metadata !497, i32 0, null, null} ; [ DW_TAG_class_type ]
!496 = metadata !{i32 720937, metadata !"./Box2D/Collision/b2BroadPhase.h", metadata !"/home/bxl/nacl-app/fruit-click-read-only/fruitclick-nacl", null} ; [ DW_TAG_file_type ]
!497 = metadata !{metadata !498, metadata !620, metadata !621, metadata !623, metadata !624, metadata !625, metadata !632, metadata !633, metadata !634, metadata !635, metadata !641, metadata !644, metadata !649, metadata !654, metadata !659, metadata !662, metadata !669, metadata !674, metadata !679, metadata !684, metadata !687, metadata !690, metadata !695, metadata !698, metadata !701, metadata !706}
!498 = metadata !{i32 720909, metadata !495, metadata !"m_tree", metadata !496, i32 112, i64 224, i64 32, i64 0, i32 1, metadata !499} ; [ DW_TAG_member ]
!499 = metadata !{i32 720898, null, metadata !"b2DynamicTree", metadata !385, i32 61, i64 224, i64 32, i32 0, i32 0, null, metadata !500, i32 0, null, null} ; [ DW_TAG_class_type ]
!500 = metadata !{metadata !501, metadata !502, metadata !523, metadata !524, metadata !525, metadata !526, metadata !527, metadata !528, metadata !534, metadata !537, metadata !542, metadata !547, metadata !552, metadata !559, metadata !564, metadata !569, metadata !574, metadata !577, metadata !582, metadata !585, metadata !590, metadata !593, metadata !596, metadata !599, metadata !604, metadata !607, metadata !612, metadata !617}
!501 = metadata !{i32 720909, metadata !499, metadata !"m_root", metadata !385, i32 137, i64 32, i64 32, i64 0, i32 1, metadata !43} ; [ DW_TAG_member ]
!502 = metadata !{i32 720909, metadata !499, metadata !"m_nodes", metadata !385, i32 139, i64 32, i64 32, i64 32, i32 1, metadata !503} ; [ DW_TAG_member ]
!503 = metadata !{i32 720911, null, metadata !"", null, i32 0, i64 32, i64 32, i64 0, i32 0, metadata !504} ; [ DW_TAG_pointer_type ]
!504 = metadata !{i32 720898, null, metadata !"b2TreeNode", metadata !385, i32 28, i64 288, i64 32, i32 0, i32 0, null, metadata !505, i32 0, null, null} ; [ DW_TAG_class_type ]
!505 = metadata !{metadata !506, metadata !507, metadata !508, metadata !513, metadata !514, metadata !515, metadata !516}
!506 = metadata !{i32 720909, metadata !504, metadata !"aabb", metadata !385, i32 36, i64 128, i64 32, i64 0, i32 0, metadata !274} ; [ DW_TAG_member ]
!507 = metadata !{i32 720909, metadata !504, metadata !"userData", metadata !385, i32 38, i64 32, i64 32, i64 128, i32 0, metadata !62} ; [ DW_TAG_member ]
!508 = metadata !{i32 720909, metadata !504, metadata !"", metadata !385, i32 40, i64 32, i64 32, i64 160, i32 0, metadata !509} ; [ DW_TAG_member ]
!509 = metadata !{i32 720919, metadata !504, metadata !"", metadata !385, i32 40, i64 32, i64 32, i64 0, i32 0, i32 0, metadata !510, i32 0, i32 0} ; [ DW_TAG_union_type ]
!510 = metadata !{metadata !511, metadata !512}
!511 = metadata !{i32 720909, metadata !509, metadata !"parent", metadata !385, i32 42, i64 32, i64 32, i64 0, i32 0, metadata !43} ; [ DW_TAG_member ]
!512 = metadata !{i32 720909, metadata !509, metadata !"next", metadata !385, i32 43, i64 32, i64 32, i64 0, i32 0, metadata !43} ; [ DW_TAG_member ]
!513 = metadata !{i32 720909, metadata !504, metadata !"child1", metadata !385, i32 46, i64 32, i64 32, i64 192, i32 0, metadata !43} ; [ DW_TAG_member ]
!514 = metadata !{i32 720909, metadata !504, metadata !"child2", metadata !385, i32 47, i64 32, i64 32, i64 224, i32 0, metadata !43} ; [ DW_TAG_member ]
!515 = metadata !{i32 720909, metadata !504, metadata !"height", metadata !385, i32 50, i64 32, i64 32, i64 256, i32 0, metadata !43} ; [ DW_TAG_member ]
!516 = metadata !{i32 720942, i32 0, metadata !504, metadata !"IsLeaf", metadata !"IsLeaf", metadata !"_ZNK10b2TreeNode6IsLeafEv", metadata !385, i32 30, metadata !517, i1 false, i1 false, i32 0, i32 0, null, i32 256, i1 false, null, null, i32 0, metadata !521} ; [ DW_TAG_subprogram ]
!517 = metadata !{i32 720917, i32 0, metadata !"", i32 0, i32 0, i64 0, i64 0, i32 0, i32 0, i32 0, metadata !518, i32 0, i32 0} ; [ DW_TAG_subroutine_type ]
!518 = metadata !{metadata !88, metadata !519}
!519 = metadata !{i32 720911, i32 0, metadata !"", i32 0, i32 0, i64 32, i64 32, i64 0, i32 64, metadata !520} ; [ DW_TAG_pointer_type ]
!520 = metadata !{i32 720934, null, metadata !"", null, i32 0, i64 0, i64 0, i64 0, i32 0, metadata !504} ; [ DW_TAG_const_type ]
!521 = metadata !{metadata !522}
!522 = metadata !{i32 720932}                     ; [ DW_TAG_base_type ]
!523 = metadata !{i32 720909, metadata !499, metadata !"m_nodeCount", metadata !385, i32 140, i64 32, i64 32, i64 64, i32 1, metadata !43} ; [ DW_TAG_member ]
!524 = metadata !{i32 720909, metadata !499, metadata !"m_nodeCapacity", metadata !385, i32 141, i64 32, i64 32, i64 96, i32 1, metadata !43} ; [ DW_TAG_member ]
!525 = metadata !{i32 720909, metadata !499, metadata !"m_freeList", metadata !385, i32 143, i64 32, i64 32, i64 128, i32 1, metadata !43} ; [ DW_TAG_member ]
!526 = metadata !{i32 720909, metadata !499, metadata !"m_path", metadata !385, i32 146, i64 32, i64 32, i64 160, i32 1, metadata !384} ; [ DW_TAG_member ]
!527 = metadata !{i32 720909, metadata !499, metadata !"m_insertionCount", metadata !385, i32 148, i64 32, i64 32, i64 192, i32 1, metadata !43} ; [ DW_TAG_member ]
!528 = metadata !{i32 720942, i32 0, metadata !499, metadata !"b2DynamicTree", metadata !"b2DynamicTree", metadata !"", metadata !385, i32 65, metadata !529, i1 false, i1 false, i32 0, i32 0, null, i32 256, i1 false, null, null, i32 0, metadata !532} ; [ DW_TAG_subprogram ]
!529 = metadata !{i32 720917, i32 0, metadata !"", i32 0, i32 0, i64 0, i64 0, i32 0, i32 0, i32 0, metadata !530, i32 0, i32 0} ; [ DW_TAG_subroutine_type ]
!530 = metadata !{null, metadata !531}
!531 = metadata !{i32 720911, i32 0, metadata !"", i32 0, i32 0, i64 32, i64 32, i64 0, i32 64, metadata !499} ; [ DW_TAG_pointer_type ]
!532 = metadata !{metadata !533}
!533 = metadata !{i32 720932}                     ; [ DW_TAG_base_type ]
!534 = metadata !{i32 720942, i32 0, metadata !499, metadata !"~b2DynamicTree", metadata !"~b2DynamicTree", metadata !"", metadata !385, i32 68, metadata !529, i1 false, i1 false, i32 0, i32 0, null, i32 256, i1 false, null, null, i32 0, metadata !535} ; [ DW_TAG_subprogram ]
!535 = metadata !{metadata !536}
!536 = metadata !{i32 720932}                     ; [ DW_TAG_base_type ]
!537 = metadata !{i32 720942, i32 0, metadata !499, metadata !"CreateProxy", metadata !"CreateProxy", metadata !"_ZN13b2DynamicTree11CreateProxyERK6b2AABBPv", metadata !385, i32 71, metadata !538, i1 false, i1 false, i32 0, i32 0, null, i32 256, i1 false, null, null, i32 0, metadata !540} ; [ DW_TAG_subprogram ]
!538 = metadata !{i32 720917, i32 0, metadata !"", i32 0, i32 0, i64 0, i64 0, i32 0, i32 0, i32 0, metadata !539, i32 0, i32 0} ; [ DW_TAG_subroutine_type ]
!539 = metadata !{metadata !43, metadata !531, metadata !301, metadata !62}
!540 = metadata !{metadata !541}
!541 = metadata !{i32 720932}                     ; [ DW_TAG_base_type ]
!542 = metadata !{i32 720942, i32 0, metadata !499, metadata !"DestroyProxy", metadata !"DestroyProxy", metadata !"_ZN13b2DynamicTree12DestroyProxyEi", metadata !385, i32 74, metadata !543, i1 false, i1 false, i32 0, i32 0, null, i32 256, i1 false, null, null, i32 0, metadata !545} ; [ DW_TAG_subprogram ]
!543 = metadata !{i32 720917, i32 0, metadata !"", i32 0, i32 0, i64 0, i64 0, i32 0, i32 0, i32 0, metadata !544, i32 0, i32 0} ; [ DW_TAG_subroutine_type ]
!544 = metadata !{null, metadata !531, metadata !43}
!545 = metadata !{metadata !546}
!546 = metadata !{i32 720932}                     ; [ DW_TAG_base_type ]
!547 = metadata !{i32 720942, i32 0, metadata !499, metadata !"MoveProxy", metadata !"MoveProxy", metadata !"_ZN13b2DynamicTree9MoveProxyEiRK6b2AABBRK6b2Vec2", metadata !385, i32 80, metadata !548, i1 false, i1 false, i32 0, i32 0, null, i32 256, i1 false, null, null, i32 0, metadata !550} ; [ DW_TAG_subprogram ]
!548 = metadata !{i32 720917, i32 0, metadata !"", i32 0, i32 0, i64 0, i64 0, i32 0, i32 0, i32 0, metadata !549, i32 0, i32 0} ; [ DW_TAG_subroutine_type ]
!549 = metadata !{metadata !88, metadata !531, metadata !43, metadata !301, metadata !136}
!550 = metadata !{metadata !551}
!551 = metadata !{i32 720932}                     ; [ DW_TAG_base_type ]
!552 = metadata !{i32 720942, i32 0, metadata !499, metadata !"GetUserData", metadata !"GetUserData", metadata !"_ZNK13b2DynamicTree11GetUserDataEi", metadata !385, i32 84, metadata !553, i1 false, i1 false, i32 0, i32 0, null, i32 256, i1 false, null, null, i32 0, metadata !557} ; [ DW_TAG_subprogram ]
!553 = metadata !{i32 720917, i32 0, metadata !"", i32 0, i32 0, i64 0, i64 0, i32 0, i32 0, i32 0, metadata !554, i32 0, i32 0} ; [ DW_TAG_subroutine_type ]
!554 = metadata !{metadata !62, metadata !555, metadata !43}
!555 = metadata !{i32 720911, i32 0, metadata !"", i32 0, i32 0, i64 32, i64 32, i64 0, i32 64, metadata !556} ; [ DW_TAG_pointer_type ]
!556 = metadata !{i32 720934, null, metadata !"", null, i32 0, i64 0, i64 0, i64 0, i32 0, metadata !499} ; [ DW_TAG_const_type ]
!557 = metadata !{metadata !558}
!558 = metadata !{i32 720932}                     ; [ DW_TAG_base_type ]
!559 = metadata !{i32 720942, i32 0, metadata !499, metadata !"GetFatAABB", metadata !"GetFatAABB", metadata !"_ZNK13b2DynamicTree10GetFatAABBEi", metadata !385, i32 87, metadata !560, i1 false, i1 false, i32 0, i32 0, null, i32 256, i1 false, null, null, i32 0, metadata !562} ; [ DW_TAG_subprogram ]
!560 = metadata !{i32 720917, i32 0, metadata !"", i32 0, i32 0, i64 0, i64 0, i32 0, i32 0, i32 0, metadata !561, i32 0, i32 0} ; [ DW_TAG_subroutine_type ]
!561 = metadata !{metadata !301, metadata !555, metadata !43}
!562 = metadata !{metadata !563}
!563 = metadata !{i32 720932}                     ; [ DW_TAG_base_type ]
!564 = metadata !{i32 720942, i32 0, metadata !499, metadata !"Validate", metadata !"Validate", metadata !"_ZNK13b2DynamicTree8ValidateEv", metadata !385, i32 105, metadata !565, i1 false, i1 false, i32 0, i32 0, null, i32 256, i1 false, null, null, i32 0, metadata !567} ; [ DW_TAG_subprogram ]
!565 = metadata !{i32 720917, i32 0, metadata !"", i32 0, i32 0, i64 0, i64 0, i32 0, i32 0, i32 0, metadata !566, i32 0, i32 0} ; [ DW_TAG_subroutine_type ]
!566 = metadata !{null, metadata !555}
!567 = metadata !{metadata !568}
!568 = metadata !{i32 720932}                     ; [ DW_TAG_base_type ]
!569 = metadata !{i32 720942, i32 0, metadata !499, metadata !"GetHeight", metadata !"GetHeight", metadata !"_ZNK13b2DynamicTree9GetHeightEv", metadata !385, i32 109, metadata !570, i1 false, i1 false, i32 0, i32 0, null, i32 256, i1 false, null, null, i32 0, metadata !572} ; [ DW_TAG_subprogram ]
!570 = metadata !{i32 720917, i32 0, metadata !"", i32 0, i32 0, i64 0, i64 0, i32 0, i32 0, i32 0, metadata !571, i32 0, i32 0} ; [ DW_TAG_subroutine_type ]
!571 = metadata !{metadata !43, metadata !555}
!572 = metadata !{metadata !573}
!573 = metadata !{i32 720932}                     ; [ DW_TAG_base_type ]
!574 = metadata !{i32 720942, i32 0, metadata !499, metadata !"GetMaxBalance", metadata !"GetMaxBalance", metadata !"_ZNK13b2DynamicTree13GetMaxBalanceEv", metadata !385, i32 113, metadata !570, i1 false, i1 false, i32 0, i32 0, null, i32 256, i1 false, null, null, i32 0, metadata !575} ; [ DW_TAG_subprogram ]
!575 = metadata !{metadata !576}
!576 = metadata !{i32 720932}                     ; [ DW_TAG_base_type ]
!577 = metadata !{i32 720942, i32 0, metadata !499, metadata !"GetAreaRatio", metadata !"GetAreaRatio", metadata !"_ZNK13b2DynamicTree12GetAreaRatioEv", metadata !385, i32 116, metadata !578, i1 false, i1 false, i32 0, i32 0, null, i32 256, i1 false, null, null, i32 0, metadata !580} ; [ DW_TAG_subprogram ]
!578 = metadata !{i32 720917, i32 0, metadata !"", i32 0, i32 0, i64 0, i64 0, i32 0, i32 0, i32 0, metadata !579, i32 0, i32 0} ; [ DW_TAG_subroutine_type ]
!579 = metadata !{metadata !21, metadata !555}
!580 = metadata !{metadata !581}
!581 = metadata !{i32 720932}                     ; [ DW_TAG_base_type ]
!582 = metadata !{i32 720942, i32 0, metadata !499, metadata !"RebuildBottomUp", metadata !"RebuildBottomUp", metadata !"_ZN13b2DynamicTree15RebuildBottomUpEv", metadata !385, i32 119, metadata !529, i1 false, i1 false, i32 0, i32 0, null, i32 256, i1 false, null, null, i32 0, metadata !583} ; [ DW_TAG_subprogram ]
!583 = metadata !{metadata !584}
!584 = metadata !{i32 720932}                     ; [ DW_TAG_base_type ]
!585 = metadata !{i32 720942, i32 0, metadata !499, metadata !"AllocateNode", metadata !"AllocateNode", metadata !"_ZN13b2DynamicTree12AllocateNodeEv", metadata !385, i32 123, metadata !586, i1 false, i1 false, i32 0, i32 0, null, i32 257, i1 false, null, null, i32 0, metadata !588} ; [ DW_TAG_subprogram ]
!586 = metadata !{i32 720917, i32 0, metadata !"", i32 0, i32 0, i64 0, i64 0, i32 0, i32 0, i32 0, metadata !587, i32 0, i32 0} ; [ DW_TAG_subroutine_type ]
!587 = metadata !{metadata !43, metadata !531}
!588 = metadata !{metadata !589}
!589 = metadata !{i32 720932}                     ; [ DW_TAG_base_type ]
!590 = metadata !{i32 720942, i32 0, metadata !499, metadata !"FreeNode", metadata !"FreeNode", metadata !"_ZN13b2DynamicTree8FreeNodeEi", metadata !385, i32 124, metadata !543, i1 false, i1 false, i32 0, i32 0, null, i32 257, i1 false, null, null, i32 0, metadata !591} ; [ DW_TAG_subprogram ]
!591 = metadata !{metadata !592}
!592 = metadata !{i32 720932}                     ; [ DW_TAG_base_type ]
!593 = metadata !{i32 720942, i32 0, metadata !499, metadata !"InsertLeaf", metadata !"InsertLeaf", metadata !"_ZN13b2DynamicTree10InsertLeafEi", metadata !385, i32 126, metadata !543, i1 false, i1 false, i32 0, i32 0, null, i32 257, i1 false, null, null, i32 0, metadata !594} ; [ DW_TAG_subprogram ]
!594 = metadata !{metadata !595}
!595 = metadata !{i32 720932}                     ; [ DW_TAG_base_type ]
!596 = metadata !{i32 720942, i32 0, metadata !499, metadata !"RemoveLeaf", metadata !"RemoveLeaf", metadata !"_ZN13b2DynamicTree10RemoveLeafEi", metadata !385, i32 127, metadata !543, i1 false, i1 false, i32 0, i32 0, null, i32 257, i1 false, null, null, i32 0, metadata !597} ; [ DW_TAG_subprogram ]
!597 = metadata !{metadata !598}
!598 = metadata !{i32 720932}                     ; [ DW_TAG_base_type ]
!599 = metadata !{i32 720942, i32 0, metadata !499, metadata !"Balance", metadata !"Balance", metadata !"_ZN13b2DynamicTree7BalanceEi", metadata !385, i32 129, metadata !600, i1 false, i1 false, i32 0, i32 0, null, i32 257, i1 false, null, null, i32 0, metadata !602} ; [ DW_TAG_subprogram ]
!600 = metadata !{i32 720917, i32 0, metadata !"", i32 0, i32 0, i64 0, i64 0, i32 0, i32 0, i32 0, metadata !601, i32 0, i32 0} ; [ DW_TAG_subroutine_type ]
!601 = metadata !{metadata !43, metadata !531, metadata !43}
!602 = metadata !{metadata !603}
!603 = metadata !{i32 720932}                     ; [ DW_TAG_base_type ]
!604 = metadata !{i32 720942, i32 0, metadata !499, metadata !"ComputeHeight", metadata !"ComputeHeight", metadata !"_ZNK13b2DynamicTree13ComputeHeightEv", metadata !385, i32 131, metadata !570, i1 false, i1 false, i32 0, i32 0, null, i32 257, i1 false, null, null, i32 0, metadata !605} ; [ DW_TAG_subprogram ]
!605 = metadata !{metadata !606}
!606 = metadata !{i32 720932}                     ; [ DW_TAG_base_type ]
!607 = metadata !{i32 720942, i32 0, metadata !499, metadata !"ComputeHeight", metadata !"ComputeHeight", metadata !"_ZNK13b2DynamicTree13ComputeHeightEi", metadata !385, i32 132, metadata !608, i1 false, i1 false, i32 0, i32 0, null, i32 257, i1 false, null, null, i32 0, metadata !610} ; [ DW_TAG_subprogram ]
!608 = metadata !{i32 720917, i32 0, metadata !"", i32 0, i32 0, i64 0, i64 0, i32 0, i32 0, i32 0, metadata !609, i32 0, i32 0} ; [ DW_TAG_subroutine_type ]
!609 = metadata !{metadata !43, metadata !555, metadata !43}
!610 = metadata !{metadata !611}
!611 = metadata !{i32 720932}                     ; [ DW_TAG_base_type ]
!612 = metadata !{i32 720942, i32 0, metadata !499, metadata !"ValidateStructure", metadata !"ValidateStructure", metadata !"_ZNK13b2DynamicTree17ValidateStructureEi", metadata !385, i32 134, metadata !613, i1 false, i1 false, i32 0, i32 0, null, i32 257, i1 false, null, null, i32 0, metadata !615} ; [ DW_TAG_subprogram ]
!613 = metadata !{i32 720917, i32 0, metadata !"", i32 0, i32 0, i64 0, i64 0, i32 0, i32 0, i32 0, metadata !614, i32 0, i32 0} ; [ DW_TAG_subroutine_type ]
!614 = metadata !{null, metadata !555, metadata !43}
!615 = metadata !{metadata !616}
!616 = metadata !{i32 720932}                     ; [ DW_TAG_base_type ]
!617 = metadata !{i32 720942, i32 0, metadata !499, metadata !"ValidateMetrics", metadata !"ValidateMetrics", metadata !"_ZNK13b2DynamicTree15ValidateMetricsEi", metadata !385, i32 135, metadata !613, i1 false, i1 false, i32 0, i32 0, null, i32 257, i1 false, null, null, i32 0, metadata !618} ; [ DW_TAG_subprogram ]
!618 = metadata !{metadata !619}
!619 = metadata !{i32 720932}                     ; [ DW_TAG_base_type ]
!620 = metadata !{i32 720909, metadata !495, metadata !"m_proxyCount", metadata !496, i32 114, i64 32, i64 32, i64 224, i32 1, metadata !43} ; [ DW_TAG_member ]
!621 = metadata !{i32 720909, metadata !495, metadata !"m_moveBuffer", metadata !496, i32 116, i64 32, i64 32, i64 256, i32 1, metadata !622} ; [ DW_TAG_member ]
!622 = metadata !{i32 720911, null, metadata !"", null, i32 0, i64 32, i64 32, i64 0, i32 0, metadata !43} ; [ DW_TAG_pointer_type ]
!623 = metadata !{i32 720909, metadata !495, metadata !"m_moveCapacity", metadata !496, i32 117, i64 32, i64 32, i64 288, i32 1, metadata !43} ; [ DW_TAG_member ]
!624 = metadata !{i32 720909, metadata !495, metadata !"m_moveCount", metadata !496, i32 118, i64 32, i64 32, i64 320, i32 1, metadata !43} ; [ DW_TAG_member ]
!625 = metadata !{i32 720909, metadata !495, metadata !"m_pairBuffer", metadata !496, i32 120, i64 32, i64 32, i64 352, i32 1, metadata !626} ; [ DW_TAG_member ]
!626 = metadata !{i32 720911, null, metadata !"", null, i32 0, i64 32, i64 32, i64 0, i32 0, metadata !627} ; [ DW_TAG_pointer_type ]
!627 = metadata !{i32 720898, null, metadata !"b2Pair", metadata !496, i32 27, i64 96, i64 32, i32 0, i32 0, null, metadata !628, i32 0, null, null} ; [ DW_TAG_class_type ]
!628 = metadata !{metadata !629, metadata !630, metadata !631}
!629 = metadata !{i32 720909, metadata !627, metadata !"proxyIdA", metadata !496, i32 29, i64 32, i64 32, i64 0, i32 0, metadata !43} ; [ DW_TAG_member ]
!630 = metadata !{i32 720909, metadata !627, metadata !"proxyIdB", metadata !496, i32 30, i64 32, i64 32, i64 32, i32 0, metadata !43} ; [ DW_TAG_member ]
!631 = metadata !{i32 720909, metadata !627, metadata !"next", metadata !496, i32 31, i64 32, i64 32, i64 64, i32 0, metadata !43} ; [ DW_TAG_member ]
!632 = metadata !{i32 720909, metadata !495, metadata !"m_pairCapacity", metadata !496, i32 121, i64 32, i64 32, i64 384, i32 1, metadata !43} ; [ DW_TAG_member ]
!633 = metadata !{i32 720909, metadata !495, metadata !"m_pairCount", metadata !496, i32 122, i64 32, i64 32, i64 416, i32 1, metadata !43} ; [ DW_TAG_member ]
!634 = metadata !{i32 720909, metadata !495, metadata !"m_queryProxyId", metadata !496, i32 124, i64 32, i64 32, i64 448, i32 1, metadata !43} ; [ DW_TAG_member ]
!635 = metadata !{i32 720942, i32 0, metadata !495, metadata !"b2BroadPhase", metadata !"b2BroadPhase", metadata !"", metadata !496, i32 46, metadata !636, i1 false, i1 false, i32 0, i32 0, null, i32 256, i1 false, null, null, i32 0, metadata !639} ; [ DW_TAG_subprogram ]
!636 = metadata !{i32 720917, i32 0, metadata !"", i32 0, i32 0, i64 0, i64 0, i32 0, i32 0, i32 0, metadata !637, i32 0, i32 0} ; [ DW_TAG_subroutine_type ]
!637 = metadata !{null, metadata !638}
!638 = metadata !{i32 720911, i32 0, metadata !"", i32 0, i32 0, i64 32, i64 32, i64 0, i32 64, metadata !495} ; [ DW_TAG_pointer_type ]
!639 = metadata !{metadata !640}
!640 = metadata !{i32 720932}                     ; [ DW_TAG_base_type ]
!641 = metadata !{i32 720942, i32 0, metadata !495, metadata !"~b2BroadPhase", metadata !"~b2BroadPhase", metadata !"", metadata !496, i32 47, metadata !636, i1 false, i1 false, i32 0, i32 0, null, i32 256, i1 false, null, null, i32 0, metadata !642} ; [ DW_TAG_subprogram ]
!642 = metadata !{metadata !643}
!643 = metadata !{i32 720932}                     ; [ DW_TAG_base_type ]
!644 = metadata !{i32 720942, i32 0, metadata !495, metadata !"CreateProxy", metadata !"CreateProxy", metadata !"_ZN12b2BroadPhase11CreateProxyERK6b2AABBPv", metadata !496, i32 51, metadata !645, i1 false, i1 false, i32 0, i32 0, null, i32 256, i1 false, null, null, i32 0, metadata !647} ; [ DW_TAG_subprogram ]
!645 = metadata !{i32 720917, i32 0, metadata !"", i32 0, i32 0, i64 0, i64 0, i32 0, i32 0, i32 0, metadata !646, i32 0, i32 0} ; [ DW_TAG_subroutine_type ]
!646 = metadata !{metadata !43, metadata !638, metadata !301, metadata !62}
!647 = metadata !{metadata !648}
!648 = metadata !{i32 720932}                     ; [ DW_TAG_base_type ]
!649 = metadata !{i32 720942, i32 0, metadata !495, metadata !"DestroyProxy", metadata !"DestroyProxy", metadata !"_ZN12b2BroadPhase12DestroyProxyEi", metadata !496, i32 54, metadata !650, i1 false, i1 false, i32 0, i32 0, null, i32 256, i1 false, null, null, i32 0, metadata !652} ; [ DW_TAG_subprogram ]
!650 = metadata !{i32 720917, i32 0, metadata !"", i32 0, i32 0, i64 0, i64 0, i32 0, i32 0, i32 0, metadata !651, i32 0, i32 0} ; [ DW_TAG_subroutine_type ]
!651 = metadata !{null, metadata !638, metadata !43}
!652 = metadata !{metadata !653}
!653 = metadata !{i32 720932}                     ; [ DW_TAG_base_type ]
!654 = metadata !{i32 720942, i32 0, metadata !495, metadata !"MoveProxy", metadata !"MoveProxy", metadata !"_ZN12b2BroadPhase9MoveProxyEiRK6b2AABBRK6b2Vec2", metadata !496, i32 58, metadata !655, i1 false, i1 false, i32 0, i32 0, null, i32 256, i1 false, null, null, i32 0, metadata !657} ; [ DW_TAG_subprogram ]
!655 = metadata !{i32 720917, i32 0, metadata !"", i32 0, i32 0, i64 0, i64 0, i32 0, i32 0, i32 0, metadata !656, i32 0, i32 0} ; [ DW_TAG_subroutine_type ]
!656 = metadata !{null, metadata !638, metadata !43, metadata !301, metadata !136}
!657 = metadata !{metadata !658}
!658 = metadata !{i32 720932}                     ; [ DW_TAG_base_type ]
!659 = metadata !{i32 720942, i32 0, metadata !495, metadata !"TouchProxy", metadata !"TouchProxy", metadata !"_ZN12b2BroadPhase10TouchProxyEi", metadata !496, i32 61, metadata !650, i1 false, i1 false, i32 0, i32 0, null, i32 256, i1 false, null, null, i32 0, metadata !660} ; [ DW_TAG_subprogram ]
!660 = metadata !{metadata !661}
!661 = metadata !{i32 720932}                     ; [ DW_TAG_base_type ]
!662 = metadata !{i32 720942, i32 0, metadata !495, metadata !"GetFatAABB", metadata !"GetFatAABB", metadata !"_ZNK12b2BroadPhase10GetFatAABBEi", metadata !496, i32 64, metadata !663, i1 false, i1 false, i32 0, i32 0, null, i32 256, i1 false, null, null, i32 0, metadata !667} ; [ DW_TAG_subprogram ]
!663 = metadata !{i32 720917, i32 0, metadata !"", i32 0, i32 0, i64 0, i64 0, i32 0, i32 0, i32 0, metadata !664, i32 0, i32 0} ; [ DW_TAG_subroutine_type ]
!664 = metadata !{metadata !301, metadata !665, metadata !43}
!665 = metadata !{i32 720911, i32 0, metadata !"", i32 0, i32 0, i64 32, i64 32, i64 0, i32 64, metadata !666} ; [ DW_TAG_pointer_type ]
!666 = metadata !{i32 720934, null, metadata !"", null, i32 0, i64 0, i64 0, i64 0, i32 0, metadata !495} ; [ DW_TAG_const_type ]
!667 = metadata !{metadata !668}
!668 = metadata !{i32 720932}                     ; [ DW_TAG_base_type ]
!669 = metadata !{i32 720942, i32 0, metadata !495, metadata !"GetUserData", metadata !"GetUserData", metadata !"_ZNK12b2BroadPhase11GetUserDataEi", metadata !496, i32 67, metadata !670, i1 false, i1 false, i32 0, i32 0, null, i32 256, i1 false, null, null, i32 0, metadata !672} ; [ DW_TAG_subprogram ]
!670 = metadata !{i32 720917, i32 0, metadata !"", i32 0, i32 0, i64 0, i64 0, i32 0, i32 0, i32 0, metadata !671, i32 0, i32 0} ; [ DW_TAG_subroutine_type ]
!671 = metadata !{metadata !62, metadata !665, metadata !43}
!672 = metadata !{metadata !673}
!673 = metadata !{i32 720932}                     ; [ DW_TAG_base_type ]
!674 = metadata !{i32 720942, i32 0, metadata !495, metadata !"TestOverlap", metadata !"TestOverlap", metadata !"_ZNK12b2BroadPhase11TestOverlapEii", metadata !496, i32 70, metadata !675, i1 false, i1 false, i32 0, i32 0, null, i32 256, i1 false, null, null, i32 0, metadata !677} ; [ DW_TAG_subprogram ]
!675 = metadata !{i32 720917, i32 0, metadata !"", i32 0, i32 0, i64 0, i64 0, i32 0, i32 0, i32 0, metadata !676, i32 0, i32 0} ; [ DW_TAG_subroutine_type ]
!676 = metadata !{metadata !88, metadata !665, metadata !43, metadata !43}
!677 = metadata !{metadata !678}
!678 = metadata !{i32 720932}                     ; [ DW_TAG_base_type ]
!679 = metadata !{i32 720942, i32 0, metadata !495, metadata !"GetProxyCount", metadata !"GetProxyCount", metadata !"_ZNK12b2BroadPhase13GetProxyCountEv", metadata !496, i32 73, metadata !680, i1 false, i1 false, i32 0, i32 0, null, i32 256, i1 false, null, null, i32 0, metadata !682} ; [ DW_TAG_subprogram ]
!680 = metadata !{i32 720917, i32 0, metadata !"", i32 0, i32 0, i64 0, i64 0, i32 0, i32 0, i32 0, metadata !681, i32 0, i32 0} ; [ DW_TAG_subroutine_type ]
!681 = metadata !{metadata !43, metadata !665}
!682 = metadata !{metadata !683}
!683 = metadata !{i32 720932}                     ; [ DW_TAG_base_type ]
!684 = metadata !{i32 720942, i32 0, metadata !495, metadata !"GetTreeHeight", metadata !"GetTreeHeight", metadata !"_ZNK12b2BroadPhase13GetTreeHeightEv", metadata !496, i32 95, metadata !680, i1 false, i1 false, i32 0, i32 0, null, i32 256, i1 false, null, null, i32 0, metadata !685} ; [ DW_TAG_subprogram ]
!685 = metadata !{metadata !686}
!686 = metadata !{i32 720932}                     ; [ DW_TAG_base_type ]
!687 = metadata !{i32 720942, i32 0, metadata !495, metadata !"GetTreeBalance", metadata !"GetTreeBalance", metadata !"_ZNK12b2BroadPhase14GetTreeBalanceEv", metadata !496, i32 98, metadata !680, i1 false, i1 false, i32 0, i32 0, null, i32 256, i1 false, null, null, i32 0, metadata !688} ; [ DW_TAG_subprogram ]
!688 = metadata !{metadata !689}
!689 = metadata !{i32 720932}                     ; [ DW_TAG_base_type ]
!690 = metadata !{i32 720942, i32 0, metadata !495, metadata !"GetTreeQuality", metadata !"GetTreeQuality", metadata !"_ZNK12b2BroadPhase14GetTreeQualityEv", metadata !496, i32 101, metadata !691, i1 false, i1 false, i32 0, i32 0, null, i32 256, i1 false, null, null, i32 0, metadata !693} ; [ DW_TAG_subprogram ]
!691 = metadata !{i32 720917, i32 0, metadata !"", i32 0, i32 0, i64 0, i64 0, i32 0, i32 0, i32 0, metadata !692, i32 0, i32 0} ; [ DW_TAG_subroutine_type ]
!692 = metadata !{metadata !21, metadata !665}
!693 = metadata !{metadata !694}
!694 = metadata !{i32 720932}                     ; [ DW_TAG_base_type ]
!695 = metadata !{i32 720942, i32 0, metadata !495, metadata !"BufferMove", metadata !"BufferMove", metadata !"_ZN12b2BroadPhase10BufferMoveEi", metadata !496, i32 107, metadata !650, i1 false, i1 false, i32 0, i32 0, null, i32 257, i1 false, null, null, i32 0, metadata !696} ; [ DW_TAG_subprogram ]
!696 = metadata !{metadata !697}
!697 = metadata !{i32 720932}                     ; [ DW_TAG_base_type ]
!698 = metadata !{i32 720942, i32 0, metadata !495, metadata !"UnBufferMove", metadata !"UnBufferMove", metadata !"_ZN12b2BroadPhase12UnBufferMoveEi", metadata !496, i32 108, metadata !650, i1 false, i1 false, i32 0, i32 0, null, i32 257, i1 false, null, null, i32 0, metadata !699} ; [ DW_TAG_subprogram ]
!699 = metadata !{metadata !700}
!700 = metadata !{i32 720932}                     ; [ DW_TAG_base_type ]
!701 = metadata !{i32 720942, i32 0, metadata !495, metadata !"QueryCallback", metadata !"QueryCallback", metadata !"_ZN12b2BroadPhase13QueryCallbackEi", metadata !496, i32 110, metadata !702, i1 false, i1 false, i32 0, i32 0, null, i32 257, i1 false, null, null, i32 0, metadata !704} ; [ DW_TAG_subprogram ]
!702 = metadata !{i32 720917, i32 0, metadata !"", i32 0, i32 0, i64 0, i64 0, i32 0, i32 0, i32 0, metadata !703, i32 0, i32 0} ; [ DW_TAG_subroutine_type ]
!703 = metadata !{metadata !88, metadata !638, metadata !43}
!704 = metadata !{metadata !705}
!705 = metadata !{i32 720932}                     ; [ DW_TAG_base_type ]
!706 = metadata !{i32 720938, metadata !495, null, metadata !496, i32 0, i64 0, i64 0, i64 0, i32 0, metadata !499} ; [ DW_TAG_friend ]
!707 = metadata !{i32 720909, metadata !491, metadata !"m_contactList", metadata !492, i32 45, i64 32, i64 32, i64 480, i32 0, metadata !708} ; [ DW_TAG_member ]
!708 = metadata !{i32 720911, null, metadata !"", null, i32 0, i64 32, i64 32, i64 0, i32 0, metadata !709} ; [ DW_TAG_pointer_type ]
!709 = metadata !{i32 720898, null, metadata !"b2Contact", metadata !710, i32 77, i64 1152, i64 32, i32 0, i32 0, null, metadata !711, i32 0, metadata !709, null} ; [ DW_TAG_class_type ]
!710 = metadata !{i32 720937, metadata !"./Box2D/Dynamics/Contacts/b2Contact.h", metadata !"/home/bxl/nacl-app/fruit-click-read-only/fruitclick-nacl", null} ; [ DW_TAG_file_type ]
!711 = metadata !{metadata !712, metadata !713, metadata !714, metadata !715, metadata !716, metadata !2911, metadata !2912, metadata !2913, metadata !2914, metadata !2915, metadata !2916, metadata !2917, metadata !2918, metadata !2919, metadata !2920, metadata !2921, metadata !2927, metadata !2936, metadata !2953, metadata !2958, metadata !2963, metadata !2966, metadata !2971, metadata !2976, metadata !2981, metadata !2986, metadata !2991, metadata !2994, metadata !2997, metadata !3000, metadata !3005, metadata !3010, metadata !3015, metadata !3018, metadata !3021, metadata !3024, metadata !3029, metadata !3032, metadata !3045, metadata !3050, metadata !3053, metadata !3058, metadata !3061, metadata !3064, metadata !3069, metadata !3072, metadata !3114, metadata !3115, metadata !3116, metadata !3117, metadata !3118}
!712 = metadata !{i32 720909, metadata !710, metadata !"_vptr$b2Contact", metadata !710, i32 0, i64 32, i64 0, i64 0, i32 0, metadata !14} ; [ DW_TAG_member ]
!713 = metadata !{i32 720909, metadata !709, metadata !"m_flags", metadata !710, i32 189, i64 32, i64 32, i64 32, i32 2, metadata !384} ; [ DW_TAG_member ]
!714 = metadata !{i32 720909, metadata !709, metadata !"m_prev", metadata !710, i32 192, i64 32, i64 32, i64 64, i32 2, metadata !708} ; [ DW_TAG_member ]
!715 = metadata !{i32 720909, metadata !709, metadata !"m_next", metadata !710, i32 193, i64 32, i64 32, i64 96, i32 2, metadata !708} ; [ DW_TAG_member ]
!716 = metadata !{i32 720909, metadata !709, metadata !"m_nodeA", metadata !710, i32 196, i64 128, i64 32, i64 128, i32 2, metadata !717} ; [ DW_TAG_member ]
!717 = metadata !{i32 720898, null, metadata !"b2ContactEdge", metadata !710, i32 66, i64 128, i64 32, i32 0, i32 0, null, metadata !718, i32 0, null, null} ; [ DW_TAG_class_type ]
!718 = metadata !{metadata !719, metadata !2902, metadata !2903, metadata !2904, metadata !2905}
!719 = metadata !{i32 720909, metadata !717, metadata !"other", metadata !710, i32 68, i64 32, i64 32, i64 0, i32 0, metadata !720} ; [ DW_TAG_member ]
!720 = metadata !{i32 720911, null, metadata !"", null, i32 0, i64 32, i64 32, i64 0, i32 0, metadata !721} ; [ DW_TAG_pointer_type ]
!721 = metadata !{i32 720898, null, metadata !"b2Body", metadata !4, i32 126, i64 1216, i64 32, i32 0, i32 0, null, metadata !722, i32 0, null, null} ; [ DW_TAG_class_type ]
!722 = metadata !{metadata !723, metadata !724, metadata !727, metadata !728, metadata !729, metadata !756, metadata !757, metadata !758, metadata !759, metadata !760, metadata !762, metadata !763, metadata !764, metadata !974, metadata !975, metadata !1263, metadata !1265, metadata !1266, metadata !1267, metadata !1268, metadata !1269, metadata !1270, metadata !1271, metadata !1272, metadata !1273, metadata !1274, metadata !1280, metadata !1285, metadata !1290, metadata !1295, metadata !1301, metadata !1306, metadata !1311, metadata !1314, metadata !1317, metadata !1322, metadata !1327, metadata !1332, metadata !1335, metadata !1340, metadata !1343, metadata !1346, metadata !1349, metadata !1352, metadata !1355, metadata !1358, metadata !1363, metadata !1370, metadata !1375, metadata !1380, metadata !1383, metadata !1386, metadata !1389, metadata !1392, metadata !1395, metadata !1398, metadata !1401, metadata !1404, metadata !1407, metadata !1410, metadata !1413, metadata !1418, metadata !1423, metadata !1428, metadata !1433, metadata !1436, metadata !1439, metadata !1442, metadata !1445, metadata !1448, metadata !1451, metadata !1454, metadata !1457, metadata !1462, metadata !1467, metadata !1472, metadata !1479, metadata !1484, metadata !1491, metadata !1496, metadata !1501, metadata !1506, metadata !1511, metadata !1516, metadata !1523, metadata !1526, metadata !1555, metadata !1558, metadata !1561, metadata !1564, metadata !1569, metadata !1572, metadata !1677, metadata !1836, metadata !2044, metadata !2207, metadata !2319, metadata !2492, metadata !2605, metadata !2774, metadata !2775, metadata !2896, metadata !2897, metadata !2899, metadata !2900, metadata !2901}
!723 = metadata !{i32 720909, metadata !721, metadata !"m_type", metadata !4, i32 424, i64 32, i64 32, i64 0, i32 1, metadata !3} ; [ DW_TAG_member ]
!724 = metadata !{i32 720909, metadata !721, metadata !"m_flags", metadata !4, i32 426, i64 16, i64 16, i64 32, i32 1, metadata !725} ; [ DW_TAG_member ]
!725 = metadata !{i32 720918, null, metadata !"uint16", metadata !4, i32 32, i64 0, i64 0, i64 0, i32 0, metadata !726} ; [ DW_TAG_typedef ]
!726 = metadata !{i32 720932, null, metadata !"unsigned short", null, i32 0, i64 16, i64 16, i64 0, i32 0, i32 7} ; [ DW_TAG_base_type ]
!727 = metadata !{i32 720909, metadata !721, metadata !"m_islandIndex", metadata !4, i32 428, i64 32, i64 32, i64 64, i32 1, metadata !43} ; [ DW_TAG_member ]
!728 = metadata !{i32 720909, metadata !721, metadata !"m_xf", metadata !4, i32 430, i64 128, i64 32, i64 96, i32 1, metadata !91} ; [ DW_TAG_member ]
!729 = metadata !{i32 720909, metadata !721, metadata !"m_sweep", metadata !4, i32 431, i64 288, i64 32, i64 224, i32 1, metadata !730} ; [ DW_TAG_member ]
!730 = metadata !{i32 720898, null, metadata !"b2Sweep", metadata !22, i32 391, i64 288, i64 32, i32 0, i32 0, null, metadata !731, i32 0, null, null} ; [ DW_TAG_class_type ]
!731 = metadata !{metadata !732, metadata !733, metadata !734, metadata !735, metadata !736, metadata !737, metadata !738, metadata !745, metadata !751}
!732 = metadata !{i32 720909, metadata !730, metadata !"localCenter", metadata !22, i32 404, i64 64, i64 32, i64 0, i32 0, metadata !94} ; [ DW_TAG_member ]
!733 = metadata !{i32 720909, metadata !730, metadata !"c0", metadata !22, i32 405, i64 64, i64 32, i64 64, i32 0, metadata !94} ; [ DW_TAG_member ]
!734 = metadata !{i32 720909, metadata !730, metadata !"c", metadata !22, i32 405, i64 64, i64 32, i64 128, i32 0, metadata !94} ; [ DW_TAG_member ]
!735 = metadata !{i32 720909, metadata !730, metadata !"a0", metadata !22, i32 406, i64 32, i64 32, i64 192, i32 0, metadata !21} ; [ DW_TAG_member ]
!736 = metadata !{i32 720909, metadata !730, metadata !"a", metadata !22, i32 406, i64 32, i64 32, i64 224, i32 0, metadata !21} ; [ DW_TAG_member ]
!737 = metadata !{i32 720909, metadata !730, metadata !"alpha0", metadata !22, i32 410, i64 32, i64 32, i64 256, i32 0, metadata !21} ; [ DW_TAG_member ]
!738 = metadata !{i32 720942, i32 0, metadata !730, metadata !"GetTransform", metadata !"GetTransform", metadata !"_ZNK7b2Sweep12GetTransformEP11b2Transformf", metadata !22, i32 395, metadata !739, i1 false, i1 false, i32 0, i32 0, null, i32 256, i1 false, null, null, i32 0, metadata !743} ; [ DW_TAG_subprogram ]
!739 = metadata !{i32 720917, i32 0, metadata !"", i32 0, i32 0, i64 0, i64 0, i32 0, i32 0, i32 0, metadata !740, i32 0, i32 0} ; [ DW_TAG_subroutine_type ]
!740 = metadata !{null, metadata !741, metadata !229, metadata !21}
!741 = metadata !{i32 720911, i32 0, metadata !"", i32 0, i32 0, i64 32, i64 32, i64 0, i32 64, metadata !742} ; [ DW_TAG_pointer_type ]
!742 = metadata !{i32 720934, null, metadata !"", null, i32 0, i64 0, i64 0, i64 0, i32 0, metadata !730} ; [ DW_TAG_const_type ]
!743 = metadata !{metadata !744}
!744 = metadata !{i32 720932}                     ; [ DW_TAG_base_type ]
!745 = metadata !{i32 720942, i32 0, metadata !730, metadata !"Advance", metadata !"Advance", metadata !"_ZN7b2Sweep7AdvanceEf", metadata !22, i32 399, metadata !746, i1 false, i1 false, i32 0, i32 0, null, i32 256, i1 false, null, null, i32 0, metadata !749} ; [ DW_TAG_subprogram ]
!746 = metadata !{i32 720917, i32 0, metadata !"", i32 0, i32 0, i64 0, i64 0, i32 0, i32 0, i32 0, metadata !747, i32 0, i32 0} ; [ DW_TAG_subroutine_type ]
!747 = metadata !{null, metadata !748, metadata !21}
!748 = metadata !{i32 720911, i32 0, metadata !"", i32 0, i32 0, i64 32, i64 32, i64 0, i32 64, metadata !730} ; [ DW_TAG_pointer_type ]
!749 = metadata !{metadata !750}
!750 = metadata !{i32 720932}                     ; [ DW_TAG_base_type ]
!751 = metadata !{i32 720942, i32 0, metadata !730, metadata !"Normalize", metadata !"Normalize", metadata !"_ZN7b2Sweep9NormalizeEv", metadata !22, i32 402, metadata !752, i1 false, i1 false, i32 0, i32 0, null, i32 256, i1 false, null, null, i32 0, metadata !754} ; [ DW_TAG_subprogram ]
!752 = metadata !{i32 720917, i32 0, metadata !"", i32 0, i32 0, i64 0, i64 0, i32 0, i32 0, i32 0, metadata !753, i32 0, i32 0} ; [ DW_TAG_subroutine_type ]
!753 = metadata !{null, metadata !748}
!754 = metadata !{metadata !755}
!755 = metadata !{i32 720932}                     ; [ DW_TAG_base_type ]
!756 = metadata !{i32 720909, metadata !721, metadata !"m_linearVelocity", metadata !4, i32 433, i64 64, i64 32, i64 512, i32 1, metadata !94} ; [ DW_TAG_member ]
!757 = metadata !{i32 720909, metadata !721, metadata !"m_angularVelocity", metadata !4, i32 434, i64 32, i64 32, i64 576, i32 1, metadata !21} ; [ DW_TAG_member ]
!758 = metadata !{i32 720909, metadata !721, metadata !"m_force", metadata !4, i32 436, i64 64, i64 32, i64 608, i32 1, metadata !94} ; [ DW_TAG_member ]
!759 = metadata !{i32 720909, metadata !721, metadata !"m_torque", metadata !4, i32 437, i64 32, i64 32, i64 672, i32 1, metadata !21} ; [ DW_TAG_member ]
!760 = metadata !{i32 720909, metadata !721, metadata !"m_world", metadata !4, i32 439, i64 32, i64 32, i64 704, i32 1, metadata !761} ; [ DW_TAG_member ]
!761 = metadata !{i32 720911, null, metadata !"", null, i32 0, i64 32, i64 32, i64 0, i32 0, metadata !436} ; [ DW_TAG_pointer_type ]
!762 = metadata !{i32 720909, metadata !721, metadata !"m_prev", metadata !4, i32 440, i64 32, i64 32, i64 736, i32 1, metadata !720} ; [ DW_TAG_member ]
!763 = metadata !{i32 720909, metadata !721, metadata !"m_next", metadata !4, i32 441, i64 32, i64 32, i64 768, i32 1, metadata !720} ; [ DW_TAG_member ]
!764 = metadata !{i32 720909, metadata !721, metadata !"m_fixtureList", metadata !4, i32 443, i64 32, i64 32, i64 800, i32 1, metadata !765} ; [ DW_TAG_member ]
!765 = metadata !{i32 720911, null, metadata !"", null, i32 0, i64 32, i64 32, i64 0, i32 0, metadata !766} ; [ DW_TAG_pointer_type ]
!766 = metadata !{i32 720898, null, metadata !"b2Fixture", metadata !767, i32 107, i64 352, i64 32, i32 0, i32 0, null, metadata !768, i32 0, null, null} ; [ DW_TAG_class_type ]
!767 = metadata !{i32 720937, metadata !"./Box2D/Dynamics/b2Fixture.h", metadata !"/home/bxl/nacl-app/fruit-click-read-only/fruitclick-nacl", null} ; [ DW_TAG_file_type ]
!768 = metadata !{metadata !769, metadata !770, metadata !771, metadata !772, metadata !774, metadata !775, metadata !776, metadata !784, metadata !785, metadata !799, metadata !800, metadata !801, metadata !808, metadata !814, metadata !819, metadata !824, metadata !829, metadata !836, metadata !841, metadata !846, metadata !851, metadata !858, metadata !863, metadata !868, metadata !873, metadata !878, metadata !883, metadata !888, metadata !893, metadata !898, metadata !903, metadata !906, metadata !909, metadata !912, metadata !915, metadata !920, metadata !925, metadata !928, metadata !950, metadata !955, metadata !960, metadata !965, metadata !970, metadata !971, metadata !972, metadata !973}
!769 = metadata !{i32 720909, metadata !766, metadata !"m_density", metadata !767, i32 218, i64 32, i64 32, i64 0, i32 2, metadata !21} ; [ DW_TAG_member ]
!770 = metadata !{i32 720909, metadata !766, metadata !"m_next", metadata !767, i32 220, i64 32, i64 32, i64 32, i32 2, metadata !765} ; [ DW_TAG_member ]
!771 = metadata !{i32 720909, metadata !766, metadata !"m_body", metadata !767, i32 221, i64 32, i64 32, i64 64, i32 2, metadata !720} ; [ DW_TAG_member ]
!772 = metadata !{i32 720909, metadata !766, metadata !"m_shape", metadata !767, i32 223, i64 32, i64 32, i64 96, i32 2, metadata !773} ; [ DW_TAG_member ]
!773 = metadata !{i32 720911, null, metadata !"", null, i32 0, i64 32, i64 32, i64 0, i32 0, metadata !10} ; [ DW_TAG_pointer_type ]
!774 = metadata !{i32 720909, metadata !766, metadata !"m_friction", metadata !767, i32 225, i64 32, i64 32, i64 128, i32 2, metadata !21} ; [ DW_TAG_member ]
!775 = metadata !{i32 720909, metadata !766, metadata !"m_restitution", metadata !767, i32 226, i64 32, i64 32, i64 160, i32 2, metadata !21} ; [ DW_TAG_member ]
!776 = metadata !{i32 720909, metadata !766, metadata !"m_proxies", metadata !767, i32 228, i64 32, i64 32, i64 192, i32 2, metadata !777} ; [ DW_TAG_member ]
!777 = metadata !{i32 720911, null, metadata !"", null, i32 0, i64 32, i64 32, i64 0, i32 0, metadata !778} ; [ DW_TAG_pointer_type ]
!778 = metadata !{i32 720898, null, metadata !"b2FixtureProxy", metadata !767, i32 94, i64 224, i64 32, i32 0, i32 0, null, metadata !779, i32 0, null, null} ; [ DW_TAG_class_type ]
!779 = metadata !{metadata !780, metadata !781, metadata !782, metadata !783}
!780 = metadata !{i32 720909, metadata !778, metadata !"aabb", metadata !767, i32 96, i64 128, i64 32, i64 0, i32 0, metadata !274} ; [ DW_TAG_member ]
!781 = metadata !{i32 720909, metadata !778, metadata !"fixture", metadata !767, i32 97, i64 32, i64 32, i64 128, i32 0, metadata !765} ; [ DW_TAG_member ]
!782 = metadata !{i32 720909, metadata !778, metadata !"childIndex", metadata !767, i32 98, i64 32, i64 32, i64 160, i32 0, metadata !43} ; [ DW_TAG_member ]
!783 = metadata !{i32 720909, metadata !778, metadata !"proxyId", metadata !767, i32 99, i64 32, i64 32, i64 192, i32 0, metadata !43} ; [ DW_TAG_member ]
!784 = metadata !{i32 720909, metadata !766, metadata !"m_proxyCount", metadata !767, i32 229, i64 32, i64 32, i64 224, i32 2, metadata !43} ; [ DW_TAG_member ]
!785 = metadata !{i32 720909, metadata !766, metadata !"m_filter", metadata !767, i32 231, i64 48, i64 16, i64 256, i32 2, metadata !786} ; [ DW_TAG_member ]
!786 = metadata !{i32 720898, null, metadata !"b2Filter", metadata !767, i32 32, i64 48, i64 16, i32 0, i32 0, null, metadata !787, i32 0, null, null} ; [ DW_TAG_class_type ]
!787 = metadata !{metadata !788, metadata !789, metadata !790, metadata !793}
!788 = metadata !{i32 720909, metadata !786, metadata !"categoryBits", metadata !767, i32 42, i64 16, i64 16, i64 0, i32 0, metadata !725} ; [ DW_TAG_member ]
!789 = metadata !{i32 720909, metadata !786, metadata !"maskBits", metadata !767, i32 46, i64 16, i64 16, i64 16, i32 0, metadata !725} ; [ DW_TAG_member ]
!790 = metadata !{i32 720909, metadata !786, metadata !"groupIndex", metadata !767, i32 51, i64 16, i64 16, i64 32, i32 0, metadata !791} ; [ DW_TAG_member ]
!791 = metadata !{i32 720918, null, metadata !"int16", metadata !767, i32 29, i64 0, i64 0, i64 0, i32 0, metadata !792} ; [ DW_TAG_typedef ]
!792 = metadata !{i32 720932, null, metadata !"short", null, i32 0, i64 16, i64 16, i64 0, i32 0, i32 5} ; [ DW_TAG_base_type ]
!793 = metadata !{i32 720942, i32 0, metadata !786, metadata !"b2Filter", metadata !"b2Filter", metadata !"", metadata !767, i32 34, metadata !794, i1 false, i1 false, i32 0, i32 0, null, i32 256, i1 false, null, null, i32 0, metadata !797} ; [ DW_TAG_subprogram ]
!794 = metadata !{i32 720917, i32 0, metadata !"", i32 0, i32 0, i64 0, i64 0, i32 0, i32 0, i32 0, metadata !795, i32 0, i32 0} ; [ DW_TAG_subroutine_type ]
!795 = metadata !{null, metadata !796}
!796 = metadata !{i32 720911, i32 0, metadata !"", i32 0, i32 0, i64 32, i64 32, i64 0, i32 64, metadata !786} ; [ DW_TAG_pointer_type ]
!797 = metadata !{metadata !798}
!798 = metadata !{i32 720932}                     ; [ DW_TAG_base_type ]
!799 = metadata !{i32 720909, metadata !766, metadata !"m_isSensor", metadata !767, i32 233, i64 8, i64 8, i64 304, i32 2, metadata !88} ; [ DW_TAG_member ]
!800 = metadata !{i32 720909, metadata !766, metadata !"m_userData", metadata !767, i32 235, i64 32, i64 32, i64 320, i32 2, metadata !62} ; [ DW_TAG_member ]
!801 = metadata !{i32 720942, i32 0, metadata !766, metadata !"GetType", metadata !"GetType", metadata !"_ZNK9b2Fixture7GetTypeEv", metadata !767, i32 112, metadata !802, i1 false, i1 false, i32 0, i32 0, null, i32 256, i1 false, null, null, i32 0, metadata !806} ; [ DW_TAG_subprogram ]
!802 = metadata !{i32 720917, i32 0, metadata !"", i32 0, i32 0, i64 0, i64 0, i32 0, i32 0, i32 0, metadata !803, i32 0, i32 0} ; [ DW_TAG_subroutine_type ]
!803 = metadata !{metadata !9, metadata !804}
!804 = metadata !{i32 720911, i32 0, metadata !"", i32 0, i32 0, i64 32, i64 32, i64 0, i32 64, metadata !805} ; [ DW_TAG_pointer_type ]
!805 = metadata !{i32 720934, null, metadata !"", null, i32 0, i64 0, i64 0, i64 0, i32 0, metadata !766} ; [ DW_TAG_const_type ]
!806 = metadata !{metadata !807}
!807 = metadata !{i32 720932}                     ; [ DW_TAG_base_type ]
!808 = metadata !{i32 720942, i32 0, metadata !766, metadata !"GetShape", metadata !"GetShape", metadata !"_ZN9b2Fixture8GetShapeEv", metadata !767, i32 117, metadata !809, i1 false, i1 false, i32 0, i32 0, null, i32 256, i1 false, null, null, i32 0, metadata !812} ; [ DW_TAG_subprogram ]
!809 = metadata !{i32 720917, i32 0, metadata !"", i32 0, i32 0, i64 0, i64 0, i32 0, i32 0, i32 0, metadata !810, i32 0, i32 0} ; [ DW_TAG_subroutine_type ]
!810 = metadata !{metadata !773, metadata !811}
!811 = metadata !{i32 720911, i32 0, metadata !"", i32 0, i32 0, i64 32, i64 32, i64 0, i32 64, metadata !766} ; [ DW_TAG_pointer_type ]
!812 = metadata !{metadata !813}
!813 = metadata !{i32 720932}                     ; [ DW_TAG_base_type ]
!814 = metadata !{i32 720942, i32 0, metadata !766, metadata !"GetShape", metadata !"GetShape", metadata !"_ZNK9b2Fixture8GetShapeEv", metadata !767, i32 118, metadata !815, i1 false, i1 false, i32 0, i32 0, null, i32 256, i1 false, null, null, i32 0, metadata !817} ; [ DW_TAG_subprogram ]
!815 = metadata !{i32 720917, i32 0, metadata !"", i32 0, i32 0, i64 0, i64 0, i32 0, i32 0, i32 0, metadata !816, i32 0, i32 0} ; [ DW_TAG_subroutine_type ]
!816 = metadata !{metadata !33, metadata !804}
!817 = metadata !{metadata !818}
!818 = metadata !{i32 720932}                     ; [ DW_TAG_base_type ]
!819 = metadata !{i32 720942, i32 0, metadata !766, metadata !"SetSensor", metadata !"SetSensor", metadata !"_ZN9b2Fixture9SetSensorEb", metadata !767, i32 121, metadata !820, i1 false, i1 false, i32 0, i32 0, null, i32 256, i1 false, null, null, i32 0, metadata !822} ; [ DW_TAG_subprogram ]
!820 = metadata !{i32 720917, i32 0, metadata !"", i32 0, i32 0, i64 0, i64 0, i32 0, i32 0, i32 0, metadata !821, i32 0, i32 0} ; [ DW_TAG_subroutine_type ]
!821 = metadata !{null, metadata !811, metadata !88}
!822 = metadata !{metadata !823}
!823 = metadata !{i32 720932}                     ; [ DW_TAG_base_type ]
!824 = metadata !{i32 720942, i32 0, metadata !766, metadata !"IsSensor", metadata !"IsSensor", metadata !"_ZNK9b2Fixture8IsSensorEv", metadata !767, i32 125, metadata !825, i1 false, i1 false, i32 0, i32 0, null, i32 256, i1 false, null, null, i32 0, metadata !827} ; [ DW_TAG_subprogram ]
!825 = metadata !{i32 720917, i32 0, metadata !"", i32 0, i32 0, i64 0, i64 0, i32 0, i32 0, i32 0, metadata !826, i32 0, i32 0} ; [ DW_TAG_subroutine_type ]
!826 = metadata !{metadata !88, metadata !804}
!827 = metadata !{metadata !828}
!828 = metadata !{i32 720932}                     ; [ DW_TAG_base_type ]
!829 = metadata !{i32 720942, i32 0, metadata !766, metadata !"SetFilterData", metadata !"SetFilterData", metadata !"_ZN9b2Fixture13SetFilterDataERK8b2Filter", metadata !767, i32 130, metadata !830, i1 false, i1 false, i32 0, i32 0, null, i32 256, i1 false, null, null, i32 0, metadata !834} ; [ DW_TAG_subprogram ]
!830 = metadata !{i32 720917, i32 0, metadata !"", i32 0, i32 0, i64 0, i64 0, i32 0, i32 0, i32 0, metadata !831, i32 0, i32 0} ; [ DW_TAG_subroutine_type ]
!831 = metadata !{null, metadata !811, metadata !832}
!832 = metadata !{i32 720912, null, null, null, i32 0, i64 0, i64 0, i64 0, i32 0, metadata !833} ; [ DW_TAG_reference_type ]
!833 = metadata !{i32 720934, null, metadata !"", null, i32 0, i64 0, i64 0, i64 0, i32 0, metadata !786} ; [ DW_TAG_const_type ]
!834 = metadata !{metadata !835}
!835 = metadata !{i32 720932}                     ; [ DW_TAG_base_type ]
!836 = metadata !{i32 720942, i32 0, metadata !766, metadata !"GetFilterData", metadata !"GetFilterData", metadata !"_ZNK9b2Fixture13GetFilterDataEv", metadata !767, i32 133, metadata !837, i1 false, i1 false, i32 0, i32 0, null, i32 256, i1 false, null, null, i32 0, metadata !839} ; [ DW_TAG_subprogram ]
!837 = metadata !{i32 720917, i32 0, metadata !"", i32 0, i32 0, i64 0, i64 0, i32 0, i32 0, i32 0, metadata !838, i32 0, i32 0} ; [ DW_TAG_subroutine_type ]
!838 = metadata !{metadata !832, metadata !804}
!839 = metadata !{metadata !840}
!840 = metadata !{i32 720932}                     ; [ DW_TAG_base_type ]
!841 = metadata !{i32 720942, i32 0, metadata !766, metadata !"Refilter", metadata !"Refilter", metadata !"_ZN9b2Fixture8RefilterEv", metadata !767, i32 136, metadata !842, i1 false, i1 false, i32 0, i32 0, null, i32 256, i1 false, null, null, i32 0, metadata !844} ; [ DW_TAG_subprogram ]
!842 = metadata !{i32 720917, i32 0, metadata !"", i32 0, i32 0, i64 0, i64 0, i32 0, i32 0, i32 0, metadata !843, i32 0, i32 0} ; [ DW_TAG_subroutine_type ]
!843 = metadata !{null, metadata !811}
!844 = metadata !{metadata !845}
!845 = metadata !{i32 720932}                     ; [ DW_TAG_base_type ]
!846 = metadata !{i32 720942, i32 0, metadata !766, metadata !"GetBody", metadata !"GetBody", metadata !"_ZN9b2Fixture7GetBodyEv", metadata !767, i32 140, metadata !847, i1 false, i1 false, i32 0, i32 0, null, i32 256, i1 false, null, null, i32 0, metadata !849} ; [ DW_TAG_subprogram ]
!847 = metadata !{i32 720917, i32 0, metadata !"", i32 0, i32 0, i64 0, i64 0, i32 0, i32 0, i32 0, metadata !848, i32 0, i32 0} ; [ DW_TAG_subroutine_type ]
!848 = metadata !{metadata !720, metadata !811}
!849 = metadata !{metadata !850}
!850 = metadata !{i32 720932}                     ; [ DW_TAG_base_type ]
!851 = metadata !{i32 720942, i32 0, metadata !766, metadata !"GetBody", metadata !"GetBody", metadata !"_ZNK9b2Fixture7GetBodyEv", metadata !767, i32 141, metadata !852, i1 false, i1 false, i32 0, i32 0, null, i32 256, i1 false, null, null, i32 0, metadata !856} ; [ DW_TAG_subprogram ]
!852 = metadata !{i32 720917, i32 0, metadata !"", i32 0, i32 0, i64 0, i64 0, i32 0, i32 0, i32 0, metadata !853, i32 0, i32 0} ; [ DW_TAG_subroutine_type ]
!853 = metadata !{metadata !854, metadata !804}
!854 = metadata !{i32 720911, null, metadata !"", null, i32 0, i64 32, i64 32, i64 0, i32 0, metadata !855} ; [ DW_TAG_pointer_type ]
!855 = metadata !{i32 720934, null, metadata !"", null, i32 0, i64 0, i64 0, i64 0, i32 0, metadata !721} ; [ DW_TAG_const_type ]
!856 = metadata !{metadata !857}
!857 = metadata !{i32 720932}                     ; [ DW_TAG_base_type ]
!858 = metadata !{i32 720942, i32 0, metadata !766, metadata !"GetNext", metadata !"GetNext", metadata !"_ZN9b2Fixture7GetNextEv", metadata !767, i32 145, metadata !859, i1 false, i1 false, i32 0, i32 0, null, i32 256, i1 false, null, null, i32 0, metadata !861} ; [ DW_TAG_subprogram ]
!859 = metadata !{i32 720917, i32 0, metadata !"", i32 0, i32 0, i64 0, i64 0, i32 0, i32 0, i32 0, metadata !860, i32 0, i32 0} ; [ DW_TAG_subroutine_type ]
!860 = metadata !{metadata !811, metadata !811}
!861 = metadata !{metadata !862}
!862 = metadata !{i32 720932}                     ; [ DW_TAG_base_type ]
!863 = metadata !{i32 720942, i32 0, metadata !766, metadata !"GetNext", metadata !"GetNext", metadata !"_ZNK9b2Fixture7GetNextEv", metadata !767, i32 146, metadata !864, i1 false, i1 false, i32 0, i32 0, null, i32 256, i1 false, null, null, i32 0, metadata !866} ; [ DW_TAG_subprogram ]
!864 = metadata !{i32 720917, i32 0, metadata !"", i32 0, i32 0, i64 0, i64 0, i32 0, i32 0, i32 0, metadata !865, i32 0, i32 0} ; [ DW_TAG_subroutine_type ]
!865 = metadata !{metadata !804, metadata !804}
!866 = metadata !{metadata !867}
!867 = metadata !{i32 720932}                     ; [ DW_TAG_base_type ]
!868 = metadata !{i32 720942, i32 0, metadata !766, metadata !"GetUserData", metadata !"GetUserData", metadata !"_ZNK9b2Fixture11GetUserDataEv", metadata !767, i32 150, metadata !869, i1 false, i1 false, i32 0, i32 0, null, i32 256, i1 false, null, null, i32 0, metadata !871} ; [ DW_TAG_subprogram ]
!869 = metadata !{i32 720917, i32 0, metadata !"", i32 0, i32 0, i64 0, i64 0, i32 0, i32 0, i32 0, metadata !870, i32 0, i32 0} ; [ DW_TAG_subroutine_type ]
!870 = metadata !{metadata !62, metadata !804}
!871 = metadata !{metadata !872}
!872 = metadata !{i32 720932}                     ; [ DW_TAG_base_type ]
!873 = metadata !{i32 720942, i32 0, metadata !766, metadata !"SetUserData", metadata !"SetUserData", metadata !"_ZN9b2Fixture11SetUserDataEPv", metadata !767, i32 153, metadata !874, i1 false, i1 false, i32 0, i32 0, null, i32 256, i1 false, null, null, i32 0, metadata !876} ; [ DW_TAG_subprogram ]
!874 = metadata !{i32 720917, i32 0, metadata !"", i32 0, i32 0, i64 0, i64 0, i32 0, i32 0, i32 0, metadata !875, i32 0, i32 0} ; [ DW_TAG_subroutine_type ]
!875 = metadata !{null, metadata !811, metadata !62}
!876 = metadata !{metadata !877}
!877 = metadata !{i32 720932}                     ; [ DW_TAG_base_type ]
!878 = metadata !{i32 720942, i32 0, metadata !766, metadata !"TestPoint", metadata !"TestPoint", metadata !"_ZNK9b2Fixture9TestPointERK6b2Vec2", metadata !767, i32 157, metadata !879, i1 false, i1 false, i32 0, i32 0, null, i32 256, i1 false, null, null, i32 0, metadata !881} ; [ DW_TAG_subprogram ]
!879 = metadata !{i32 720917, i32 0, metadata !"", i32 0, i32 0, i64 0, i64 0, i32 0, i32 0, i32 0, metadata !880, i32 0, i32 0} ; [ DW_TAG_subroutine_type ]
!880 = metadata !{metadata !88, metadata !804, metadata !136}
!881 = metadata !{metadata !882}
!882 = metadata !{i32 720932}                     ; [ DW_TAG_base_type ]
!883 = metadata !{i32 720942, i32 0, metadata !766, metadata !"RayCast", metadata !"RayCast", metadata !"_ZNK9b2Fixture7RayCastEP15b2RayCastOutputRK14b2RayCastInputi", metadata !767, i32 162, metadata !884, i1 false, i1 false, i32 0, i32 0, null, i32 256, i1 false, null, null, i32 0, metadata !886} ; [ DW_TAG_subprogram ]
!884 = metadata !{i32 720917, i32 0, metadata !"", i32 0, i32 0, i64 0, i64 0, i32 0, i32 0, i32 0, metadata !885, i32 0, i32 0} ; [ DW_TAG_subroutine_type ]
!885 = metadata !{metadata !88, metadata !804, metadata !255, metadata !261, metadata !43}
!886 = metadata !{metadata !887}
!887 = metadata !{i32 720932}                     ; [ DW_TAG_base_type ]
!888 = metadata !{i32 720942, i32 0, metadata !766, metadata !"GetMassData", metadata !"GetMassData", metadata !"_ZNK9b2Fixture11GetMassDataEP10b2MassData", metadata !767, i32 167, metadata !889, i1 false, i1 false, i32 0, i32 0, null, i32 256, i1 false, null, null, i32 0, metadata !891} ; [ DW_TAG_subprogram ]
!889 = metadata !{i32 720917, i32 0, metadata !"", i32 0, i32 0, i64 0, i64 0, i32 0, i32 0, i32 0, metadata !890, i32 0, i32 0} ; [ DW_TAG_subroutine_type ]
!890 = metadata !{null, metadata !804, metadata !324}
!891 = metadata !{metadata !892}
!892 = metadata !{i32 720932}                     ; [ DW_TAG_base_type ]
!893 = metadata !{i32 720942, i32 0, metadata !766, metadata !"SetDensity", metadata !"SetDensity", metadata !"_ZN9b2Fixture10SetDensityEf", metadata !767, i32 171, metadata !894, i1 false, i1 false, i32 0, i32 0, null, i32 256, i1 false, null, null, i32 0, metadata !896} ; [ DW_TAG_subprogram ]
!894 = metadata !{i32 720917, i32 0, metadata !"", i32 0, i32 0, i64 0, i64 0, i32 0, i32 0, i32 0, metadata !895, i32 0, i32 0} ; [ DW_TAG_subroutine_type ]
!895 = metadata !{null, metadata !811, metadata !21}
!896 = metadata !{metadata !897}
!897 = metadata !{i32 720932}                     ; [ DW_TAG_base_type ]
!898 = metadata !{i32 720942, i32 0, metadata !766, metadata !"GetDensity", metadata !"GetDensity", metadata !"_ZNK9b2Fixture10GetDensityEv", metadata !767, i32 174, metadata !899, i1 false, i1 false, i32 0, i32 0, null, i32 256, i1 false, null, null, i32 0, metadata !901} ; [ DW_TAG_subprogram ]
!899 = metadata !{i32 720917, i32 0, metadata !"", i32 0, i32 0, i64 0, i64 0, i32 0, i32 0, i32 0, metadata !900, i32 0, i32 0} ; [ DW_TAG_subroutine_type ]
!900 = metadata !{metadata !21, metadata !804}
!901 = metadata !{metadata !902}
!902 = metadata !{i32 720932}                     ; [ DW_TAG_base_type ]
!903 = metadata !{i32 720942, i32 0, metadata !766, metadata !"GetFriction", metadata !"GetFriction", metadata !"_ZNK9b2Fixture11GetFrictionEv", metadata !767, i32 177, metadata !899, i1 false, i1 false, i32 0, i32 0, null, i32 256, i1 false, null, null, i32 0, metadata !904} ; [ DW_TAG_subprogram ]
!904 = metadata !{metadata !905}
!905 = metadata !{i32 720932}                     ; [ DW_TAG_base_type ]
!906 = metadata !{i32 720942, i32 0, metadata !766, metadata !"SetFriction", metadata !"SetFriction", metadata !"_ZN9b2Fixture11SetFrictionEf", metadata !767, i32 181, metadata !894, i1 false, i1 false, i32 0, i32 0, null, i32 256, i1 false, null, null, i32 0, metadata !907} ; [ DW_TAG_subprogram ]
!907 = metadata !{metadata !908}
!908 = metadata !{i32 720932}                     ; [ DW_TAG_base_type ]
!909 = metadata !{i32 720942, i32 0, metadata !766, metadata !"GetRestitution", metadata !"GetRestitution", metadata !"_ZNK9b2Fixture14GetRestitutionEv", metadata !767, i32 184, metadata !899, i1 false, i1 false, i32 0, i32 0, null, i32 256, i1 false, null, null, i32 0, metadata !910} ; [ DW_TAG_subprogram ]
!910 = metadata !{metadata !911}
!911 = metadata !{i32 720932}                     ; [ DW_TAG_base_type ]
!912 = metadata !{i32 720942, i32 0, metadata !766, metadata !"SetRestitution", metadata !"SetRestitution", metadata !"_ZN9b2Fixture14SetRestitutionEf", metadata !767, i32 188, metadata !894, i1 false, i1 false, i32 0, i32 0, null, i32 256, i1 false, null, null, i32 0, metadata !913} ; [ DW_TAG_subprogram ]
!913 = metadata !{metadata !914}
!914 = metadata !{i32 720932}                     ; [ DW_TAG_base_type ]
!915 = metadata !{i32 720942, i32 0, metadata !766, metadata !"GetAABB", metadata !"GetAABB", metadata !"_ZNK9b2Fixture7GetAABBEi", metadata !767, i32 193, metadata !916, i1 false, i1 false, i32 0, i32 0, null, i32 256, i1 false, null, null, i32 0, metadata !918} ; [ DW_TAG_subprogram ]
!916 = metadata !{i32 720917, i32 0, metadata !"", i32 0, i32 0, i64 0, i64 0, i32 0, i32 0, i32 0, metadata !917, i32 0, i32 0} ; [ DW_TAG_subroutine_type ]
!917 = metadata !{metadata !301, metadata !804, metadata !43}
!918 = metadata !{metadata !919}
!919 = metadata !{i32 720932}                     ; [ DW_TAG_base_type ]
!920 = metadata !{i32 720942, i32 0, metadata !766, metadata !"Dump", metadata !"Dump", metadata !"_ZN9b2Fixture4DumpEi", metadata !767, i32 196, metadata !921, i1 false, i1 false, i32 0, i32 0, null, i32 256, i1 false, null, null, i32 0, metadata !923} ; [ DW_TAG_subprogram ]
!921 = metadata !{i32 720917, i32 0, metadata !"", i32 0, i32 0, i64 0, i64 0, i32 0, i32 0, i32 0, metadata !922, i32 0, i32 0} ; [ DW_TAG_subroutine_type ]
!922 = metadata !{null, metadata !811, metadata !43}
!923 = metadata !{metadata !924}
!924 = metadata !{i32 720932}                     ; [ DW_TAG_base_type ]
!925 = metadata !{i32 720942, i32 0, metadata !766, metadata !"b2Fixture", metadata !"b2Fixture", metadata !"", metadata !767, i32 205, metadata !842, i1 false, i1 false, i32 0, i32 0, null, i32 258, i1 false, null, null, i32 0, metadata !926} ; [ DW_TAG_subprogram ]
!926 = metadata !{metadata !927}
!927 = metadata !{i32 720932}                     ; [ DW_TAG_base_type ]
!928 = metadata !{i32 720942, i32 0, metadata !766, metadata !"Create", metadata !"Create", metadata !"_ZN9b2Fixture6CreateEP16b2BlockAllocatorP6b2BodyPK12b2FixtureDef", metadata !767, i32 209, metadata !929, i1 false, i1 false, i32 0, i32 0, null, i32 258, i1 false, null, null, i32 0, metadata !948} ; [ DW_TAG_subprogram ]
!929 = metadata !{i32 720917, i32 0, metadata !"", i32 0, i32 0, i64 0, i64 0, i32 0, i32 0, i32 0, metadata !930, i32 0, i32 0} ; [ DW_TAG_subroutine_type ]
!930 = metadata !{null, metadata !811, metadata !35, metadata !720, metadata !931}
!931 = metadata !{i32 720911, null, metadata !"", null, i32 0, i64 32, i64 32, i64 0, i32 0, metadata !932} ; [ DW_TAG_pointer_type ]
!932 = metadata !{i32 720934, null, metadata !"", null, i32 0, i64 0, i64 0, i64 0, i32 0, metadata !933} ; [ DW_TAG_const_type ]
!933 = metadata !{i32 720898, null, metadata !"b2FixtureDef", metadata !767, i32 56, i64 224, i64 32, i32 0, i32 0, null, metadata !934, i32 0, null, null} ; [ DW_TAG_class_type ]
!934 = metadata !{metadata !935, metadata !936, metadata !937, metadata !938, metadata !939, metadata !940, metadata !941, metadata !942}
!935 = metadata !{i32 720909, metadata !933, metadata !"shape", metadata !767, i32 71, i64 32, i64 32, i64 0, i32 0, metadata !33} ; [ DW_TAG_member ]
!936 = metadata !{i32 720909, metadata !933, metadata !"userData", metadata !767, i32 74, i64 32, i64 32, i64 32, i32 0, metadata !62} ; [ DW_TAG_member ]
!937 = metadata !{i32 720909, metadata !933, metadata !"friction", metadata !767, i32 77, i64 32, i64 32, i64 64, i32 0, metadata !21} ; [ DW_TAG_member ]
!938 = metadata !{i32 720909, metadata !933, metadata !"restitution", metadata !767, i32 80, i64 32, i64 32, i64 96, i32 0, metadata !21} ; [ DW_TAG_member ]
!939 = metadata !{i32 720909, metadata !933, metadata !"density", metadata !767, i32 83, i64 32, i64 32, i64 128, i32 0, metadata !21} ; [ DW_TAG_member ]
!940 = metadata !{i32 720909, metadata !933, metadata !"isSensor", metadata !767, i32 87, i64 8, i64 8, i64 160, i32 0, metadata !88} ; [ DW_TAG_member ]
!941 = metadata !{i32 720909, metadata !933, metadata !"filter", metadata !767, i32 90, i64 48, i64 16, i64 176, i32 0, metadata !786} ; [ DW_TAG_member ]
!942 = metadata !{i32 720942, i32 0, metadata !933, metadata !"b2FixtureDef", metadata !"b2FixtureDef", metadata !"", metadata !767, i32 59, metadata !943, i1 false, i1 false, i32 0, i32 0, null, i32 256, i1 false, null, null, i32 0, metadata !946} ; [ DW_TAG_subprogram ]
!943 = metadata !{i32 720917, i32 0, metadata !"", i32 0, i32 0, i64 0, i64 0, i32 0, i32 0, i32 0, metadata !944, i32 0, i32 0} ; [ DW_TAG_subroutine_type ]
!944 = metadata !{null, metadata !945}
!945 = metadata !{i32 720911, i32 0, metadata !"", i32 0, i32 0, i64 32, i64 32, i64 0, i32 64, metadata !933} ; [ DW_TAG_pointer_type ]
!946 = metadata !{metadata !947}
!947 = metadata !{i32 720932}                     ; [ DW_TAG_base_type ]
!948 = metadata !{metadata !949}
!949 = metadata !{i32 720932}                     ; [ DW_TAG_base_type ]
!950 = metadata !{i32 720942, i32 0, metadata !766, metadata !"Destroy", metadata !"Destroy", metadata !"_ZN9b2Fixture7DestroyEP16b2BlockAllocator", metadata !767, i32 210, metadata !951, i1 false, i1 false, i32 0, i32 0, null, i32 258, i1 false, null, null, i32 0, metadata !953} ; [ DW_TAG_subprogram ]
!951 = metadata !{i32 720917, i32 0, metadata !"", i32 0, i32 0, i64 0, i64 0, i32 0, i32 0, i32 0, metadata !952, i32 0, i32 0} ; [ DW_TAG_subroutine_type ]
!952 = metadata !{null, metadata !811, metadata !35}
!953 = metadata !{metadata !954}
!954 = metadata !{i32 720932}                     ; [ DW_TAG_base_type ]
!955 = metadata !{i32 720942, i32 0, metadata !766, metadata !"CreateProxies", metadata !"CreateProxies", metadata !"_ZN9b2Fixture13CreateProxiesEP12b2BroadPhaseRK11b2Transform", metadata !767, i32 213, metadata !956, i1 false, i1 false, i32 0, i32 0, null, i32 258, i1 false, null, null, i32 0, metadata !958} ; [ DW_TAG_subprogram ]
!956 = metadata !{i32 720917, i32 0, metadata !"", i32 0, i32 0, i64 0, i64 0, i32 0, i32 0, i32 0, metadata !957, i32 0, i32 0} ; [ DW_TAG_subroutine_type ]
!957 = metadata !{null, metadata !811, metadata !638, metadata !89}
!958 = metadata !{metadata !959}
!959 = metadata !{i32 720932}                     ; [ DW_TAG_base_type ]
!960 = metadata !{i32 720942, i32 0, metadata !766, metadata !"DestroyProxies", metadata !"DestroyProxies", metadata !"_ZN9b2Fixture14DestroyProxiesEP12b2BroadPhase", metadata !767, i32 214, metadata !961, i1 false, i1 false, i32 0, i32 0, null, i32 258, i1 false, null, null, i32 0, metadata !963} ; [ DW_TAG_subprogram ]
!961 = metadata !{i32 720917, i32 0, metadata !"", i32 0, i32 0, i64 0, i64 0, i32 0, i32 0, i32 0, metadata !962, i32 0, i32 0} ; [ DW_TAG_subroutine_type ]
!962 = metadata !{null, metadata !811, metadata !638}
!963 = metadata !{metadata !964}
!964 = metadata !{i32 720932}                     ; [ DW_TAG_base_type ]
!965 = metadata !{i32 720942, i32 0, metadata !766, metadata !"Synchronize", metadata !"Synchronize", metadata !"_ZN9b2Fixture11SynchronizeEP12b2BroadPhaseRK11b2TransformS4_", metadata !767, i32 216, metadata !966, i1 false, i1 false, i32 0, i32 0, null, i32 258, i1 false, null, null, i32 0, metadata !968} ; [ DW_TAG_subprogram ]
!966 = metadata !{i32 720917, i32 0, metadata !"", i32 0, i32 0, i64 0, i64 0, i32 0, i32 0, i32 0, metadata !967, i32 0, i32 0} ; [ DW_TAG_subroutine_type ]
!967 = metadata !{null, metadata !811, metadata !638, metadata !89, metadata !89}
!968 = metadata !{metadata !969}
!969 = metadata !{i32 720932}                     ; [ DW_TAG_base_type ]
!970 = metadata !{i32 720938, metadata !766, null, metadata !767, i32 0, i64 0, i64 0, i64 0, i32 0, metadata !491} ; [ DW_TAG_friend ]
!971 = metadata !{i32 720938, metadata !766, null, metadata !767, i32 0, i64 0, i64 0, i64 0, i32 0, metadata !709} ; [ DW_TAG_friend ]
!972 = metadata !{i32 720938, metadata !766, null, metadata !767, i32 0, i64 0, i64 0, i64 0, i32 0, metadata !436} ; [ DW_TAG_friend ]
!973 = metadata !{i32 720938, metadata !766, null, metadata !767, i32 0, i64 0, i64 0, i64 0, i32 0, metadata !721} ; [ DW_TAG_friend ]
!974 = metadata !{i32 720909, metadata !721, metadata !"m_fixtureCount", metadata !4, i32 444, i64 32, i64 32, i64 832, i32 1, metadata !43} ; [ DW_TAG_member ]
!975 = metadata !{i32 720909, metadata !721, metadata !"m_jointList", metadata !4, i32 446, i64 32, i64 32, i64 864, i32 1, metadata !976} ; [ DW_TAG_member ]
!976 = metadata !{i32 720911, null, metadata !"", null, i32 0, i64 32, i64 32, i64 0, i32 0, metadata !977} ; [ DW_TAG_pointer_type ]
!977 = metadata !{i32 720898, null, metadata !"b2JointEdge", metadata !342, i32 64, i64 128, i64 32, i32 0, i32 0, null, metadata !978, i32 0, null, null} ; [ DW_TAG_class_type ]
!978 = metadata !{metadata !979, metadata !980, metadata !1261, metadata !1262}
!979 = metadata !{i32 720909, metadata !977, metadata !"other", metadata !342, i32 66, i64 32, i64 32, i64 0, i32 0, metadata !720} ; [ DW_TAG_member ]
!980 = metadata !{i32 720909, metadata !977, metadata !"joint", metadata !342, i32 67, i64 32, i64 32, i64 32, i32 0, metadata !981} ; [ DW_TAG_member ]
!981 = metadata !{i32 720911, null, metadata !"", null, i32 0, i64 32, i64 32, i64 0, i32 0, metadata !982} ; [ DW_TAG_pointer_type ]
!982 = metadata !{i32 720898, null, metadata !"b2Joint", metadata !342, i32 102, i64 544, i64 32, i32 0, i32 0, null, metadata !983, i32 0, metadata !982, null} ; [ DW_TAG_class_type ]
!983 = metadata !{metadata !984, metadata !985, metadata !986, metadata !987, metadata !988, metadata !989, metadata !990, metadata !991, metadata !992, metadata !993, metadata !994, metadata !995, metadata !996, metadata !1003, metadata !1009, metadata !1012, metadata !1017, metadata !1020, metadata !1025, metadata !1030, metadata !1035, metadata !1040, metadata !1045, metadata !1050, metadata !1055, metadata !1058, metadata !1063, metadata !1083, metadata !1088, metadata !1093, metadata !1096, metadata !1127, metadata !1130, metadata !1135, metadata !1257, metadata !1259, metadata !1260}
!984 = metadata !{i32 720909, metadata !342, metadata !"_vptr$b2Joint", metadata !342, i32 0, i64 32, i64 0, i64 0, i32 0, metadata !14} ; [ DW_TAG_member ]
!985 = metadata !{i32 720909, metadata !982, metadata !"m_type", metadata !342, i32 166, i64 32, i64 32, i64 32, i32 2, metadata !341} ; [ DW_TAG_member ]
!986 = metadata !{i32 720909, metadata !982, metadata !"m_prev", metadata !342, i32 167, i64 32, i64 32, i64 64, i32 2, metadata !981} ; [ DW_TAG_member ]
!987 = metadata !{i32 720909, metadata !982, metadata !"m_next", metadata !342, i32 168, i64 32, i64 32, i64 96, i32 2, metadata !981} ; [ DW_TAG_member ]
!988 = metadata !{i32 720909, metadata !982, metadata !"m_edgeA", metadata !342, i32 169, i64 128, i64 32, i64 128, i32 2, metadata !977} ; [ DW_TAG_member ]
!989 = metadata !{i32 720909, metadata !982, metadata !"m_edgeB", metadata !342, i32 170, i64 128, i64 32, i64 256, i32 2, metadata !977} ; [ DW_TAG_member ]
!990 = metadata !{i32 720909, metadata !982, metadata !"m_bodyA", metadata !342, i32 171, i64 32, i64 32, i64 384, i32 2, metadata !720} ; [ DW_TAG_member ]
!991 = metadata !{i32 720909, metadata !982, metadata !"m_bodyB", metadata !342, i32 172, i64 32, i64 32, i64 416, i32 2, metadata !720} ; [ DW_TAG_member ]
!992 = metadata !{i32 720909, metadata !982, metadata !"m_index", metadata !342, i32 174, i64 32, i64 32, i64 448, i32 2, metadata !43} ; [ DW_TAG_member ]
!993 = metadata !{i32 720909, metadata !982, metadata !"m_islandFlag", metadata !342, i32 176, i64 8, i64 8, i64 480, i32 2, metadata !88} ; [ DW_TAG_member ]
!994 = metadata !{i32 720909, metadata !982, metadata !"m_collideConnected", metadata !342, i32 177, i64 8, i64 8, i64 488, i32 2, metadata !88} ; [ DW_TAG_member ]
!995 = metadata !{i32 720909, metadata !982, metadata !"m_userData", metadata !342, i32 179, i64 32, i64 32, i64 512, i32 2, metadata !62} ; [ DW_TAG_member ]
!996 = metadata !{i32 720942, i32 0, metadata !982, metadata !"GetType", metadata !"GetType", metadata !"_ZNK7b2Joint7GetTypeEv", metadata !342, i32 107, metadata !997, i1 false, i1 false, i32 0, i32 0, null, i32 256, i1 false, null, null, i32 0, metadata !1001} ; [ DW_TAG_subprogram ]
!997 = metadata !{i32 720917, i32 0, metadata !"", i32 0, i32 0, i64 0, i64 0, i32 0, i32 0, i32 0, metadata !998, i32 0, i32 0} ; [ DW_TAG_subroutine_type ]
!998 = metadata !{metadata !341, metadata !999}
!999 = metadata !{i32 720911, i32 0, metadata !"", i32 0, i32 0, i64 32, i64 32, i64 0, i32 64, metadata !1000} ; [ DW_TAG_pointer_type ]
!1000 = metadata !{i32 720934, null, metadata !"", null, i32 0, i64 0, i64 0, i64 0, i32 0, metadata !982} ; [ DW_TAG_const_type ]
!1001 = metadata !{metadata !1002}
!1002 = metadata !{i32 720932}                    ; [ DW_TAG_base_type ]
!1003 = metadata !{i32 720942, i32 0, metadata !982, metadata !"GetBodyA", metadata !"GetBodyA", metadata !"_ZN7b2Joint8GetBodyAEv", metadata !342, i32 110, metadata !1004, i1 false, i1 false, i32 0, i32 0, null, i32 256, i1 false, null, null, i32 0, metadata !1007} ; [ DW_TAG_subprogram ]
!1004 = metadata !{i32 720917, i32 0, metadata !"", i32 0, i32 0, i64 0, i64 0, i32 0, i32 0, i32 0, metadata !1005, i32 0, i32 0} ; [ DW_TAG_subroutine_type ]
!1005 = metadata !{metadata !720, metadata !1006}
!1006 = metadata !{i32 720911, i32 0, metadata !"", i32 0, i32 0, i64 32, i64 32, i64 0, i32 64, metadata !982} ; [ DW_TAG_pointer_type ]
!1007 = metadata !{metadata !1008}
!1008 = metadata !{i32 720932}                    ; [ DW_TAG_base_type ]
!1009 = metadata !{i32 720942, i32 0, metadata !982, metadata !"GetBodyB", metadata !"GetBodyB", metadata !"_ZN7b2Joint8GetBodyBEv", metadata !342, i32 113, metadata !1004, i1 false, i1 false, i32 0, i32 0, null, i32 256, i1 false, null, null, i32 0, metadata !1010} ; [ DW_TAG_subprogram ]
!1010 = metadata !{metadata !1011}
!1011 = metadata !{i32 720932}                    ; [ DW_TAG_base_type ]
!1012 = metadata !{i32 720942, i32 0, metadata !982, metadata !"GetAnchorA", metadata !"GetAnchorA", metadata !"_ZNK7b2Joint10GetAnchorAEv", metadata !342, i32 116, metadata !1013, i1 false, i1 false, i32 2, i32 0, metadata !982, i32 256, i1 false, null, null, i32 0, metadata !1015} ; [ DW_TAG_subprogram ]
!1013 = metadata !{i32 720917, i32 0, metadata !"", i32 0, i32 0, i64 0, i64 0, i32 0, i32 0, i32 0, metadata !1014, i32 0, i32 0} ; [ DW_TAG_subroutine_type ]
!1014 = metadata !{metadata !94, metadata !999}
!1015 = metadata !{metadata !1016}
!1016 = metadata !{i32 720932}                    ; [ DW_TAG_base_type ]
!1017 = metadata !{i32 720942, i32 0, metadata !982, metadata !"GetAnchorB", metadata !"GetAnchorB", metadata !"_ZNK7b2Joint10GetAnchorBEv", metadata !342, i32 119, metadata !1013, i1 false, i1 false, i32 2, i32 1, metadata !982, i32 256, i1 false, null, null, i32 0, metadata !1018} ; [ DW_TAG_subprogram ]
!1018 = metadata !{metadata !1019}
!1019 = metadata !{i32 720932}                    ; [ DW_TAG_base_type ]
!1020 = metadata !{i32 720942, i32 0, metadata !982, metadata !"GetReactionForce", metadata !"GetReactionForce", metadata !"_ZNK7b2Joint16GetReactionForceEf", metadata !342, i32 122, metadata !1021, i1 false, i1 false, i32 2, i32 2, metadata !982, i32 256, i1 false, null, null, i32 0, metadata !1023} ; [ DW_TAG_subprogram ]
!1021 = metadata !{i32 720917, i32 0, metadata !"", i32 0, i32 0, i64 0, i64 0, i32 0, i32 0, i32 0, metadata !1022, i32 0, i32 0} ; [ DW_TAG_subroutine_type ]
!1022 = metadata !{metadata !94, metadata !999, metadata !21}
!1023 = metadata !{metadata !1024}
!1024 = metadata !{i32 720932}                    ; [ DW_TAG_base_type ]
!1025 = metadata !{i32 720942, i32 0, metadata !982, metadata !"GetReactionTorque", metadata !"GetReactionTorque", metadata !"_ZNK7b2Joint17GetReactionTorqueEf", metadata !342, i32 125, metadata !1026, i1 false, i1 false, i32 2, i32 3, metadata !982, i32 256, i1 false, null, null, i32 0, metadata !1028} ; [ DW_TAG_subprogram ]
!1026 = metadata !{i32 720917, i32 0, metadata !"", i32 0, i32 0, i64 0, i64 0, i32 0, i32 0, i32 0, metadata !1027, i32 0, i32 0} ; [ DW_TAG_subroutine_type ]
!1027 = metadata !{metadata !21, metadata !999, metadata !21}
!1028 = metadata !{metadata !1029}
!1029 = metadata !{i32 720932}                    ; [ DW_TAG_base_type ]
!1030 = metadata !{i32 720942, i32 0, metadata !982, metadata !"GetNext", metadata !"GetNext", metadata !"_ZN7b2Joint7GetNextEv", metadata !342, i32 128, metadata !1031, i1 false, i1 false, i32 0, i32 0, null, i32 256, i1 false, null, null, i32 0, metadata !1033} ; [ DW_TAG_subprogram ]
!1031 = metadata !{i32 720917, i32 0, metadata !"", i32 0, i32 0, i64 0, i64 0, i32 0, i32 0, i32 0, metadata !1032, i32 0, i32 0} ; [ DW_TAG_subroutine_type ]
!1032 = metadata !{metadata !1006, metadata !1006}
!1033 = metadata !{metadata !1034}
!1034 = metadata !{i32 720932}                    ; [ DW_TAG_base_type ]
!1035 = metadata !{i32 720942, i32 0, metadata !982, metadata !"GetNext", metadata !"GetNext", metadata !"_ZNK7b2Joint7GetNextEv", metadata !342, i32 129, metadata !1036, i1 false, i1 false, i32 0, i32 0, null, i32 256, i1 false, null, null, i32 0, metadata !1038} ; [ DW_TAG_subprogram ]
!1036 = metadata !{i32 720917, i32 0, metadata !"", i32 0, i32 0, i64 0, i64 0, i32 0, i32 0, i32 0, metadata !1037, i32 0, i32 0} ; [ DW_TAG_subroutine_type ]
!1037 = metadata !{metadata !999, metadata !999}
!1038 = metadata !{metadata !1039}
!1039 = metadata !{i32 720932}                    ; [ DW_TAG_base_type ]
!1040 = metadata !{i32 720942, i32 0, metadata !982, metadata !"GetUserData", metadata !"GetUserData", metadata !"_ZNK7b2Joint11GetUserDataEv", metadata !342, i32 132, metadata !1041, i1 false, i1 false, i32 0, i32 0, null, i32 256, i1 false, null, null, i32 0, metadata !1043} ; [ DW_TAG_subprogram ]
!1041 = metadata !{i32 720917, i32 0, metadata !"", i32 0, i32 0, i64 0, i64 0, i32 0, i32 0, i32 0, metadata !1042, i32 0, i32 0} ; [ DW_TAG_subroutine_type ]
!1042 = metadata !{metadata !62, metadata !999}
!1043 = metadata !{metadata !1044}
!1044 = metadata !{i32 720932}                    ; [ DW_TAG_base_type ]
!1045 = metadata !{i32 720942, i32 0, metadata !982, metadata !"SetUserData", metadata !"SetUserData", metadata !"_ZN7b2Joint11SetUserDataEPv", metadata !342, i32 135, metadata !1046, i1 false, i1 false, i32 0, i32 0, null, i32 256, i1 false, null, null, i32 0, metadata !1048} ; [ DW_TAG_subprogram ]
!1046 = metadata !{i32 720917, i32 0, metadata !"", i32 0, i32 0, i64 0, i64 0, i32 0, i32 0, i32 0, metadata !1047, i32 0, i32 0} ; [ DW_TAG_subroutine_type ]
!1047 = metadata !{null, metadata !1006, metadata !62}
!1048 = metadata !{metadata !1049}
!1049 = metadata !{i32 720932}                    ; [ DW_TAG_base_type ]
!1050 = metadata !{i32 720942, i32 0, metadata !982, metadata !"IsActive", metadata !"IsActive", metadata !"_ZNK7b2Joint8IsActiveEv", metadata !342, i32 138, metadata !1051, i1 false, i1 false, i32 0, i32 0, null, i32 256, i1 false, null, null, i32 0, metadata !1053} ; [ DW_TAG_subprogram ]
!1051 = metadata !{i32 720917, i32 0, metadata !"", i32 0, i32 0, i64 0, i64 0, i32 0, i32 0, i32 0, metadata !1052, i32 0, i32 0} ; [ DW_TAG_subroutine_type ]
!1052 = metadata !{metadata !88, metadata !999}
!1053 = metadata !{metadata !1054}
!1054 = metadata !{i32 720932}                    ; [ DW_TAG_base_type ]
!1055 = metadata !{i32 720942, i32 0, metadata !982, metadata !"GetCollideConnected", metadata !"GetCollideConnected", metadata !"_ZNK7b2Joint19GetCollideConnectedEv", metadata !342, i32 143, metadata !1051, i1 false, i1 false, i32 0, i32 0, null, i32 256, i1 false, null, null, i32 0, metadata !1056} ; [ DW_TAG_subprogram ]
!1056 = metadata !{metadata !1057}
!1057 = metadata !{i32 720932}                    ; [ DW_TAG_base_type ]
!1058 = metadata !{i32 720942, i32 0, metadata !982, metadata !"Dump", metadata !"Dump", metadata !"_ZN7b2Joint4DumpEv", metadata !342, i32 146, metadata !1059, i1 false, i1 false, i32 1, i32 4, metadata !982, i32 256, i1 false, null, null, i32 0, metadata !1061} ; [ DW_TAG_subprogram ]
!1059 = metadata !{i32 720917, i32 0, metadata !"", i32 0, i32 0, i64 0, i64 0, i32 0, i32 0, i32 0, metadata !1060, i32 0, i32 0} ; [ DW_TAG_subroutine_type ]
!1060 = metadata !{null, metadata !1006}
!1061 = metadata !{metadata !1062}
!1062 = metadata !{i32 720932}                    ; [ DW_TAG_base_type ]
!1063 = metadata !{i32 720942, i32 0, metadata !982, metadata !"Create", metadata !"Create", metadata !"_ZN7b2Joint6CreateEPK10b2JointDefP16b2BlockAllocator", metadata !342, i32 154, metadata !1064, i1 false, i1 false, i32 0, i32 0, null, i32 258, i1 false, null, null, i32 0, metadata !1081} ; [ DW_TAG_subprogram ]
!1064 = metadata !{i32 720917, i32 0, metadata !"", i32 0, i32 0, i64 0, i64 0, i32 0, i32 0, i32 0, metadata !1065, i32 0, i32 0} ; [ DW_TAG_subroutine_type ]
!1065 = metadata !{metadata !1006, metadata !1066, metadata !35}
!1066 = metadata !{i32 720911, null, metadata !"", null, i32 0, i64 32, i64 32, i64 0, i32 0, metadata !1067} ; [ DW_TAG_pointer_type ]
!1067 = metadata !{i32 720934, null, metadata !"", null, i32 0, i64 0, i64 0, i64 0, i32 0, metadata !1068} ; [ DW_TAG_const_type ]
!1068 = metadata !{i32 720898, null, metadata !"b2JointDef", metadata !342, i32 73, i64 160, i64 32, i32 0, i32 0, null, metadata !1069, i32 0, null, null} ; [ DW_TAG_class_type ]
!1069 = metadata !{metadata !1070, metadata !1071, metadata !1072, metadata !1073, metadata !1074, metadata !1075}
!1070 = metadata !{i32 720909, metadata !1068, metadata !"type", metadata !342, i32 85, i64 32, i64 32, i64 0, i32 0, metadata !341} ; [ DW_TAG_member ]
!1071 = metadata !{i32 720909, metadata !1068, metadata !"userData", metadata !342, i32 88, i64 32, i64 32, i64 32, i32 0, metadata !62} ; [ DW_TAG_member ]
!1072 = metadata !{i32 720909, metadata !1068, metadata !"bodyA", metadata !342, i32 91, i64 32, i64 32, i64 64, i32 0, metadata !720} ; [ DW_TAG_member ]
!1073 = metadata !{i32 720909, metadata !1068, metadata !"bodyB", metadata !342, i32 94, i64 32, i64 32, i64 96, i32 0, metadata !720} ; [ DW_TAG_member ]
!1074 = metadata !{i32 720909, metadata !1068, metadata !"collideConnected", metadata !342, i32 97, i64 8, i64 8, i64 128, i32 0, metadata !88} ; [ DW_TAG_member ]
!1075 = metadata !{i32 720942, i32 0, metadata !1068, metadata !"b2JointDef", metadata !"b2JointDef", metadata !"", metadata !342, i32 75, metadata !1076, i1 false, i1 false, i32 0, i32 0, null, i32 256, i1 false, null, null, i32 0, metadata !1079} ; [ DW_TAG_subprogram ]
!1076 = metadata !{i32 720917, i32 0, metadata !"", i32 0, i32 0, i64 0, i64 0, i32 0, i32 0, i32 0, metadata !1077, i32 0, i32 0} ; [ DW_TAG_subroutine_type ]
!1077 = metadata !{null, metadata !1078}
!1078 = metadata !{i32 720911, i32 0, metadata !"", i32 0, i32 0, i64 32, i64 32, i64 0, i32 64, metadata !1068} ; [ DW_TAG_pointer_type ]
!1079 = metadata !{metadata !1080}
!1080 = metadata !{i32 720932}                    ; [ DW_TAG_base_type ]
!1081 = metadata !{metadata !1082}
!1082 = metadata !{i32 720932}                    ; [ DW_TAG_base_type ]
!1083 = metadata !{i32 720942, i32 0, metadata !982, metadata !"Destroy", metadata !"Destroy", metadata !"_ZN7b2Joint7DestroyEPS_P16b2BlockAllocator", metadata !342, i32 155, metadata !1084, i1 false, i1 false, i32 0, i32 0, null, i32 258, i1 false, null, null, i32 0, metadata !1086} ; [ DW_TAG_subprogram ]
!1084 = metadata !{i32 720917, i32 0, metadata !"", i32 0, i32 0, i64 0, i64 0, i32 0, i32 0, i32 0, metadata !1085, i32 0, i32 0} ; [ DW_TAG_subroutine_type ]
!1085 = metadata !{null, metadata !1006, metadata !35}
!1086 = metadata !{metadata !1087}
!1087 = metadata !{i32 720932}                    ; [ DW_TAG_base_type ]
!1088 = metadata !{i32 720942, i32 0, metadata !982, metadata !"b2Joint", metadata !"b2Joint", metadata !"", metadata !342, i32 157, metadata !1089, i1 false, i1 false, i32 0, i32 0, null, i32 258, i1 false, null, null, i32 0, metadata !1091} ; [ DW_TAG_subprogram ]
!1089 = metadata !{i32 720917, i32 0, metadata !"", i32 0, i32 0, i64 0, i64 0, i32 0, i32 0, i32 0, metadata !1090, i32 0, i32 0} ; [ DW_TAG_subroutine_type ]
!1090 = metadata !{null, metadata !1006, metadata !1066}
!1091 = metadata !{metadata !1092}
!1092 = metadata !{i32 720932}                    ; [ DW_TAG_base_type ]
!1093 = metadata !{i32 720942, i32 0, metadata !982, metadata !"~b2Joint", metadata !"~b2Joint", metadata !"", metadata !342, i32 158, metadata !1059, i1 false, i1 false, i32 1, i32 0, metadata !982, i32 258, i1 false, null, null, i32 0, metadata !1094} ; [ DW_TAG_subprogram ]
!1094 = metadata !{metadata !1095}
!1095 = metadata !{i32 720932}                    ; [ DW_TAG_base_type ]
!1096 = metadata !{i32 720942, i32 0, metadata !982, metadata !"InitVelocityConstraints", metadata !"InitVelocityConstraints", metadata !"_ZN7b2Joint23InitVelocityConstraintsERK12b2SolverData", metadata !342, i32 160, metadata !1097, i1 false, i1 false, i32 2, i32 7, metadata !982, i32 258, i1 false, null, null, i32 0, metadata !1125} ; [ DW_TAG_subprogram ]
!1097 = metadata !{i32 720917, i32 0, metadata !"", i32 0, i32 0, i64 0, i64 0, i32 0, i32 0, i32 0, metadata !1098, i32 0, i32 0} ; [ DW_TAG_subroutine_type ]
!1098 = metadata !{null, metadata !1006, metadata !1099}
!1099 = metadata !{i32 720912, null, null, null, i32 0, i64 0, i64 0, i64 0, i32 0, metadata !1100} ; [ DW_TAG_reference_type ]
!1100 = metadata !{i32 720934, null, metadata !"", null, i32 0, i64 0, i64 0, i64 0, i32 0, metadata !1101} ; [ DW_TAG_const_type ]
!1101 = metadata !{i32 720898, null, metadata !"b2SolverData", metadata !1102, i32 63, i64 256, i64 32, i32 0, i32 0, null, metadata !1103, i32 0, null, null} ; [ DW_TAG_class_type ]
!1102 = metadata !{i32 720937, metadata !"./Box2D/Dynamics/b2TimeStep.h", metadata !"/home/bxl/nacl-app/fruit-click-read-only/fruitclick-nacl", null} ; [ DW_TAG_file_type ]
!1103 = metadata !{metadata !1104, metadata !1113, metadata !1119}
!1104 = metadata !{i32 720909, metadata !1101, metadata !"step", metadata !1102, i32 65, i64 192, i64 32, i64 0, i32 0, metadata !1105} ; [ DW_TAG_member ]
!1105 = metadata !{i32 720898, null, metadata !"b2TimeStep", metadata !1102, i32 38, i64 192, i64 32, i32 0, i32 0, null, metadata !1106, i32 0, null, null} ; [ DW_TAG_class_type ]
!1106 = metadata !{metadata !1107, metadata !1108, metadata !1109, metadata !1110, metadata !1111, metadata !1112}
!1107 = metadata !{i32 720909, metadata !1105, metadata !"dt", metadata !1102, i32 40, i64 32, i64 32, i64 0, i32 0, metadata !21} ; [ DW_TAG_member ]
!1108 = metadata !{i32 720909, metadata !1105, metadata !"inv_dt", metadata !1102, i32 41, i64 32, i64 32, i64 32, i32 0, metadata !21} ; [ DW_TAG_member ]
!1109 = metadata !{i32 720909, metadata !1105, metadata !"dtRatio", metadata !1102, i32 42, i64 32, i64 32, i64 64, i32 0, metadata !21} ; [ DW_TAG_member ]
!1110 = metadata !{i32 720909, metadata !1105, metadata !"velocityIterations", metadata !1102, i32 43, i64 32, i64 32, i64 96, i32 0, metadata !43} ; [ DW_TAG_member ]
!1111 = metadata !{i32 720909, metadata !1105, metadata !"positionIterations", metadata !1102, i32 44, i64 32, i64 32, i64 128, i32 0, metadata !43} ; [ DW_TAG_member ]
!1112 = metadata !{i32 720909, metadata !1105, metadata !"warmStarting", metadata !1102, i32 45, i64 8, i64 8, i64 160, i32 0, metadata !88} ; [ DW_TAG_member ]
!1113 = metadata !{i32 720909, metadata !1101, metadata !"positions", metadata !1102, i32 66, i64 32, i64 32, i64 192, i32 0, metadata !1114} ; [ DW_TAG_member ]
!1114 = metadata !{i32 720911, null, metadata !"", null, i32 0, i64 32, i64 32, i64 0, i32 0, metadata !1115} ; [ DW_TAG_pointer_type ]
!1115 = metadata !{i32 720898, null, metadata !"b2Position", metadata !1102, i32 49, i64 96, i64 32, i32 0, i32 0, null, metadata !1116, i32 0, null, null} ; [ DW_TAG_class_type ]
!1116 = metadata !{metadata !1117, metadata !1118}
!1117 = metadata !{i32 720909, metadata !1115, metadata !"c", metadata !1102, i32 51, i64 64, i64 32, i64 0, i32 0, metadata !94} ; [ DW_TAG_member ]
!1118 = metadata !{i32 720909, metadata !1115, metadata !"a", metadata !1102, i32 52, i64 32, i64 32, i64 64, i32 0, metadata !21} ; [ DW_TAG_member ]
!1119 = metadata !{i32 720909, metadata !1101, metadata !"velocities", metadata !1102, i32 67, i64 32, i64 32, i64 224, i32 0, metadata !1120} ; [ DW_TAG_member ]
!1120 = metadata !{i32 720911, null, metadata !"", null, i32 0, i64 32, i64 32, i64 0, i32 0, metadata !1121} ; [ DW_TAG_pointer_type ]
!1121 = metadata !{i32 720898, null, metadata !"b2Velocity", metadata !1102, i32 56, i64 96, i64 32, i32 0, i32 0, null, metadata !1122, i32 0, null, null} ; [ DW_TAG_class_type ]
!1122 = metadata !{metadata !1123, metadata !1124}
!1123 = metadata !{i32 720909, metadata !1121, metadata !"v", metadata !1102, i32 58, i64 64, i64 32, i64 0, i32 0, metadata !94} ; [ DW_TAG_member ]
!1124 = metadata !{i32 720909, metadata !1121, metadata !"w", metadata !1102, i32 59, i64 32, i64 32, i64 64, i32 0, metadata !21} ; [ DW_TAG_member ]
!1125 = metadata !{metadata !1126}
!1126 = metadata !{i32 720932}                    ; [ DW_TAG_base_type ]
!1127 = metadata !{i32 720942, i32 0, metadata !982, metadata !"SolveVelocityConstraints", metadata !"SolveVelocityConstraints", metadata !"_ZN7b2Joint24SolveVelocityConstraintsERK12b2SolverData", metadata !342, i32 161, metadata !1097, i1 false, i1 false, i32 2, i32 8, metadata !982, i32 258, i1 false, null, null, i32 0, metadata !1128} ; [ DW_TAG_subprogram ]
!1128 = metadata !{metadata !1129}
!1129 = metadata !{i32 720932}                    ; [ DW_TAG_base_type ]
!1130 = metadata !{i32 720942, i32 0, metadata !982, metadata !"SolvePositionConstraints", metadata !"SolvePositionConstraints", metadata !"_ZN7b2Joint24SolvePositionConstraintsERK12b2SolverData", metadata !342, i32 164, metadata !1131, i1 false, i1 false, i32 2, i32 9, metadata !982, i32 258, i1 false, null, null, i32 0, metadata !1133} ; [ DW_TAG_subprogram ]
!1131 = metadata !{i32 720917, i32 0, metadata !"", i32 0, i32 0, i64 0, i64 0, i32 0, i32 0, i32 0, metadata !1132, i32 0, i32 0} ; [ DW_TAG_subroutine_type ]
!1132 = metadata !{metadata !88, metadata !1006, metadata !1099}
!1133 = metadata !{metadata !1134}
!1134 = metadata !{i32 720932}                    ; [ DW_TAG_base_type ]
!1135 = metadata !{i32 720938, metadata !982, null, metadata !342, i32 0, i64 0, i64 0, i64 0, i32 0, metadata !1136} ; [ DW_TAG_friend ]
!1136 = metadata !{i32 720898, null, metadata !"b2GearJoint", metadata !1137, i32 56, i64 2208, i64 32, i32 0, i32 0, null, metadata !1138, i32 0, metadata !982, null} ; [ DW_TAG_class_type ]
!1137 = metadata !{i32 720937, metadata !"./Box2D/Dynamics/Joints/b2GearJoint.h", metadata !"/home/bxl/nacl-app/fruit-click-read-only/fruitclick-nacl", null} ; [ DW_TAG_file_type ]
!1138 = metadata !{metadata !1139, metadata !1140, metadata !1141, metadata !1142, metadata !1143, metadata !1144, metadata !1145, metadata !1146, metadata !1147, metadata !1148, metadata !1149, metadata !1150, metadata !1151, metadata !1152, metadata !1153, metadata !1154, metadata !1155, metadata !1156, metadata !1157, metadata !1158, metadata !1159, metadata !1160, metadata !1161, metadata !1162, metadata !1163, metadata !1164, metadata !1165, metadata !1166, metadata !1167, metadata !1168, metadata !1169, metadata !1170, metadata !1171, metadata !1172, metadata !1173, metadata !1174, metadata !1175, metadata !1176, metadata !1177, metadata !1178, metadata !1179, metadata !1180, metadata !1187, metadata !1190, metadata !1195, metadata !1200, metadata !1206, metadata !1209, metadata !1214, metadata !1219, metadata !1224, metadata !1243, metadata !1248, metadata !1251, metadata !1256}
!1139 = metadata !{i32 720924, metadata !1136, null, metadata !1137, i32 0, i64 0, i64 0, i64 0, i32 0, metadata !982} ; [ DW_TAG_inheritance ]
!1140 = metadata !{i32 720909, metadata !1136, metadata !"m_joint1", metadata !1137, i32 87, i64 32, i64 32, i64 544, i32 2, metadata !1006} ; [ DW_TAG_member ]
!1141 = metadata !{i32 720909, metadata !1136, metadata !"m_joint2", metadata !1137, i32 88, i64 32, i64 32, i64 576, i32 2, metadata !1006} ; [ DW_TAG_member ]
!1142 = metadata !{i32 720909, metadata !1136, metadata !"m_typeA", metadata !1137, i32 90, i64 32, i64 32, i64 608, i32 2, metadata !341} ; [ DW_TAG_member ]
!1143 = metadata !{i32 720909, metadata !1136, metadata !"m_typeB", metadata !1137, i32 91, i64 32, i64 32, i64 640, i32 2, metadata !341} ; [ DW_TAG_member ]
!1144 = metadata !{i32 720909, metadata !1136, metadata !"m_bodyC", metadata !1137, i32 95, i64 32, i64 32, i64 672, i32 2, metadata !720} ; [ DW_TAG_member ]
!1145 = metadata !{i32 720909, metadata !1136, metadata !"m_bodyD", metadata !1137, i32 96, i64 32, i64 32, i64 704, i32 2, metadata !720} ; [ DW_TAG_member ]
!1146 = metadata !{i32 720909, metadata !1136, metadata !"m_localAnchorA", metadata !1137, i32 99, i64 64, i64 32, i64 736, i32 2, metadata !94} ; [ DW_TAG_member ]
!1147 = metadata !{i32 720909, metadata !1136, metadata !"m_localAnchorB", metadata !1137, i32 100, i64 64, i64 32, i64 800, i32 2, metadata !94} ; [ DW_TAG_member ]
!1148 = metadata !{i32 720909, metadata !1136, metadata !"m_localAnchorC", metadata !1137, i32 101, i64 64, i64 32, i64 864, i32 2, metadata !94} ; [ DW_TAG_member ]
!1149 = metadata !{i32 720909, metadata !1136, metadata !"m_localAnchorD", metadata !1137, i32 102, i64 64, i64 32, i64 928, i32 2, metadata !94} ; [ DW_TAG_member ]
!1150 = metadata !{i32 720909, metadata !1136, metadata !"m_localAxisC", metadata !1137, i32 104, i64 64, i64 32, i64 992, i32 2, metadata !94} ; [ DW_TAG_member ]
!1151 = metadata !{i32 720909, metadata !1136, metadata !"m_localAxisD", metadata !1137, i32 105, i64 64, i64 32, i64 1056, i32 2, metadata !94} ; [ DW_TAG_member ]
!1152 = metadata !{i32 720909, metadata !1136, metadata !"m_referenceAngleA", metadata !1137, i32 107, i64 32, i64 32, i64 1120, i32 2, metadata !21} ; [ DW_TAG_member ]
!1153 = metadata !{i32 720909, metadata !1136, metadata !"m_referenceAngleB", metadata !1137, i32 108, i64 32, i64 32, i64 1152, i32 2, metadata !21} ; [ DW_TAG_member ]
!1154 = metadata !{i32 720909, metadata !1136, metadata !"m_constant", metadata !1137, i32 110, i64 32, i64 32, i64 1184, i32 2, metadata !21} ; [ DW_TAG_member ]
!1155 = metadata !{i32 720909, metadata !1136, metadata !"m_ratio", metadata !1137, i32 111, i64 32, i64 32, i64 1216, i32 2, metadata !21} ; [ DW_TAG_member ]
!1156 = metadata !{i32 720909, metadata !1136, metadata !"m_impulse", metadata !1137, i32 113, i64 32, i64 32, i64 1248, i32 2, metadata !21} ; [ DW_TAG_member ]
!1157 = metadata !{i32 720909, metadata !1136, metadata !"m_indexA", metadata !1137, i32 116, i64 32, i64 32, i64 1280, i32 2, metadata !43} ; [ DW_TAG_member ]
!1158 = metadata !{i32 720909, metadata !1136, metadata !"m_indexB", metadata !1137, i32 116, i64 32, i64 32, i64 1312, i32 2, metadata !43} ; [ DW_TAG_member ]
!1159 = metadata !{i32 720909, metadata !1136, metadata !"m_indexC", metadata !1137, i32 116, i64 32, i64 32, i64 1344, i32 2, metadata !43} ; [ DW_TAG_member ]
!1160 = metadata !{i32 720909, metadata !1136, metadata !"m_indexD", metadata !1137, i32 116, i64 32, i64 32, i64 1376, i32 2, metadata !43} ; [ DW_TAG_member ]
!1161 = metadata !{i32 720909, metadata !1136, metadata !"m_lcA", metadata !1137, i32 117, i64 64, i64 32, i64 1408, i32 2, metadata !94} ; [ DW_TAG_member ]
!1162 = metadata !{i32 720909, metadata !1136, metadata !"m_lcB", metadata !1137, i32 117, i64 64, i64 32, i64 1472, i32 2, metadata !94} ; [ DW_TAG_member ]
!1163 = metadata !{i32 720909, metadata !1136, metadata !"m_lcC", metadata !1137, i32 117, i64 64, i64 32, i64 1536, i32 2, metadata !94} ; [ DW_TAG_member ]
!1164 = metadata !{i32 720909, metadata !1136, metadata !"m_lcD", metadata !1137, i32 117, i64 64, i64 32, i64 1600, i32 2, metadata !94} ; [ DW_TAG_member ]
!1165 = metadata !{i32 720909, metadata !1136, metadata !"m_mA", metadata !1137, i32 118, i64 32, i64 32, i64 1664, i32 2, metadata !21} ; [ DW_TAG_member ]
!1166 = metadata !{i32 720909, metadata !1136, metadata !"m_mB", metadata !1137, i32 118, i64 32, i64 32, i64 1696, i32 2, metadata !21} ; [ DW_TAG_member ]
!1167 = metadata !{i32 720909, metadata !1136, metadata !"m_mC", metadata !1137, i32 118, i64 32, i64 32, i64 1728, i32 2, metadata !21} ; [ DW_TAG_member ]
!1168 = metadata !{i32 720909, metadata !1136, metadata !"m_mD", metadata !1137, i32 118, i64 32, i64 32, i64 1760, i32 2, metadata !21} ; [ DW_TAG_member ]
!1169 = metadata !{i32 720909, metadata !1136, metadata !"m_iA", metadata !1137, i32 119, i64 32, i64 32, i64 1792, i32 2, metadata !21} ; [ DW_TAG_member ]
!1170 = metadata !{i32 720909, metadata !1136, metadata !"m_iB", metadata !1137, i32 119, i64 32, i64 32, i64 1824, i32 2, metadata !21} ; [ DW_TAG_member ]
!1171 = metadata !{i32 720909, metadata !1136, metadata !"m_iC", metadata !1137, i32 119, i64 32, i64 32, i64 1856, i32 2, metadata !21} ; [ DW_TAG_member ]
!1172 = metadata !{i32 720909, metadata !1136, metadata !"m_iD", metadata !1137, i32 119, i64 32, i64 32, i64 1888, i32 2, metadata !21} ; [ DW_TAG_member ]
!1173 = metadata !{i32 720909, metadata !1136, metadata !"m_JvAC", metadata !1137, i32 120, i64 64, i64 32, i64 1920, i32 2, metadata !94} ; [ DW_TAG_member ]
!1174 = metadata !{i32 720909, metadata !1136, metadata !"m_JvBD", metadata !1137, i32 120, i64 64, i64 32, i64 1984, i32 2, metadata !94} ; [ DW_TAG_member ]
!1175 = metadata !{i32 720909, metadata !1136, metadata !"m_JwA", metadata !1137, i32 121, i64 32, i64 32, i64 2048, i32 2, metadata !21} ; [ DW_TAG_member ]
!1176 = metadata !{i32 720909, metadata !1136, metadata !"m_JwB", metadata !1137, i32 121, i64 32, i64 32, i64 2080, i32 2, metadata !21} ; [ DW_TAG_member ]
!1177 = metadata !{i32 720909, metadata !1136, metadata !"m_JwC", metadata !1137, i32 121, i64 32, i64 32, i64 2112, i32 2, metadata !21} ; [ DW_TAG_member ]
!1178 = metadata !{i32 720909, metadata !1136, metadata !"m_JwD", metadata !1137, i32 121, i64 32, i64 32, i64 2144, i32 2, metadata !21} ; [ DW_TAG_member ]
!1179 = metadata !{i32 720909, metadata !1136, metadata !"m_mass", metadata !1137, i32 122, i64 32, i64 32, i64 2176, i32 2, metadata !21} ; [ DW_TAG_member ]
!1180 = metadata !{i32 720942, i32 0, metadata !1136, metadata !"GetAnchorA", metadata !"GetAnchorA", metadata !"_ZNK11b2GearJoint10GetAnchorAEv", metadata !1137, i32 59, metadata !1181, i1 false, i1 false, i32 1, i32 0, metadata !1136, i32 256, i1 false, null, null, i32 0, metadata !1185} ; [ DW_TAG_subprogram ]
!1181 = metadata !{i32 720917, i32 0, metadata !"", i32 0, i32 0, i64 0, i64 0, i32 0, i32 0, i32 0, metadata !1182, i32 0, i32 0} ; [ DW_TAG_subroutine_type ]
!1182 = metadata !{metadata !94, metadata !1183}
!1183 = metadata !{i32 720911, i32 0, metadata !"", i32 0, i32 0, i64 32, i64 32, i64 0, i32 64, metadata !1184} ; [ DW_TAG_pointer_type ]
!1184 = metadata !{i32 720934, null, metadata !"", null, i32 0, i64 0, i64 0, i64 0, i32 0, metadata !1136} ; [ DW_TAG_const_type ]
!1185 = metadata !{metadata !1186}
!1186 = metadata !{i32 720932}                    ; [ DW_TAG_base_type ]
!1187 = metadata !{i32 720942, i32 0, metadata !1136, metadata !"GetAnchorB", metadata !"GetAnchorB", metadata !"_ZNK11b2GearJoint10GetAnchorBEv", metadata !1137, i32 60, metadata !1181, i1 false, i1 false, i32 1, i32 1, metadata !1136, i32 256, i1 false, null, null, i32 0, metadata !1188} ; [ DW_TAG_subprogram ]
!1188 = metadata !{metadata !1189}
!1189 = metadata !{i32 720932}                    ; [ DW_TAG_base_type ]
!1190 = metadata !{i32 720942, i32 0, metadata !1136, metadata !"GetReactionForce", metadata !"GetReactionForce", metadata !"_ZNK11b2GearJoint16GetReactionForceEf", metadata !1137, i32 62, metadata !1191, i1 false, i1 false, i32 1, i32 2, metadata !1136, i32 256, i1 false, null, null, i32 0, metadata !1193} ; [ DW_TAG_subprogram ]
!1191 = metadata !{i32 720917, i32 0, metadata !"", i32 0, i32 0, i64 0, i64 0, i32 0, i32 0, i32 0, metadata !1192, i32 0, i32 0} ; [ DW_TAG_subroutine_type ]
!1192 = metadata !{metadata !94, metadata !1183, metadata !21}
!1193 = metadata !{metadata !1194}
!1194 = metadata !{i32 720932}                    ; [ DW_TAG_base_type ]
!1195 = metadata !{i32 720942, i32 0, metadata !1136, metadata !"GetReactionTorque", metadata !"GetReactionTorque", metadata !"_ZNK11b2GearJoint17GetReactionTorqueEf", metadata !1137, i32 63, metadata !1196, i1 false, i1 false, i32 1, i32 3, metadata !1136, i32 256, i1 false, null, null, i32 0, metadata !1198} ; [ DW_TAG_subprogram ]
!1196 = metadata !{i32 720917, i32 0, metadata !"", i32 0, i32 0, i64 0, i64 0, i32 0, i32 0, i32 0, metadata !1197, i32 0, i32 0} ; [ DW_TAG_subroutine_type ]
!1197 = metadata !{metadata !21, metadata !1183, metadata !21}
!1198 = metadata !{metadata !1199}
!1199 = metadata !{i32 720932}                    ; [ DW_TAG_base_type ]
!1200 = metadata !{i32 720942, i32 0, metadata !1136, metadata !"GetJoint1", metadata !"GetJoint1", metadata !"_ZN11b2GearJoint9GetJoint1Ev", metadata !1137, i32 66, metadata !1201, i1 false, i1 false, i32 0, i32 0, null, i32 256, i1 false, null, null, i32 0, metadata !1204} ; [ DW_TAG_subprogram ]
!1201 = metadata !{i32 720917, i32 0, metadata !"", i32 0, i32 0, i64 0, i64 0, i32 0, i32 0, i32 0, metadata !1202, i32 0, i32 0} ; [ DW_TAG_subroutine_type ]
!1202 = metadata !{metadata !1006, metadata !1203}
!1203 = metadata !{i32 720911, i32 0, metadata !"", i32 0, i32 0, i64 32, i64 32, i64 0, i32 64, metadata !1136} ; [ DW_TAG_pointer_type ]
!1204 = metadata !{metadata !1205}
!1205 = metadata !{i32 720932}                    ; [ DW_TAG_base_type ]
!1206 = metadata !{i32 720942, i32 0, metadata !1136, metadata !"GetJoint2", metadata !"GetJoint2", metadata !"_ZN11b2GearJoint9GetJoint2Ev", metadata !1137, i32 69, metadata !1201, i1 false, i1 false, i32 0, i32 0, null, i32 256, i1 false, null, null, i32 0, metadata !1207} ; [ DW_TAG_subprogram ]
!1207 = metadata !{metadata !1208}
!1208 = metadata !{i32 720932}                    ; [ DW_TAG_base_type ]
!1209 = metadata !{i32 720942, i32 0, metadata !1136, metadata !"SetRatio", metadata !"SetRatio", metadata !"_ZN11b2GearJoint8SetRatioEf", metadata !1137, i32 72, metadata !1210, i1 false, i1 false, i32 0, i32 0, null, i32 256, i1 false, null, null, i32 0, metadata !1212} ; [ DW_TAG_subprogram ]
!1210 = metadata !{i32 720917, i32 0, metadata !"", i32 0, i32 0, i64 0, i64 0, i32 0, i32 0, i32 0, metadata !1211, i32 0, i32 0} ; [ DW_TAG_subroutine_type ]
!1211 = metadata !{null, metadata !1203, metadata !21}
!1212 = metadata !{metadata !1213}
!1213 = metadata !{i32 720932}                    ; [ DW_TAG_base_type ]
!1214 = metadata !{i32 720942, i32 0, metadata !1136, metadata !"GetRatio", metadata !"GetRatio", metadata !"_ZNK11b2GearJoint8GetRatioEv", metadata !1137, i32 73, metadata !1215, i1 false, i1 false, i32 0, i32 0, null, i32 256, i1 false, null, null, i32 0, metadata !1217} ; [ DW_TAG_subprogram ]
!1215 = metadata !{i32 720917, i32 0, metadata !"", i32 0, i32 0, i64 0, i64 0, i32 0, i32 0, i32 0, metadata !1216, i32 0, i32 0} ; [ DW_TAG_subroutine_type ]
!1216 = metadata !{metadata !21, metadata !1183}
!1217 = metadata !{metadata !1218}
!1218 = metadata !{i32 720932}                    ; [ DW_TAG_base_type ]
!1219 = metadata !{i32 720942, i32 0, metadata !1136, metadata !"Dump", metadata !"Dump", metadata !"_ZN11b2GearJoint4DumpEv", metadata !1137, i32 76, metadata !1220, i1 false, i1 false, i32 1, i32 4, metadata !1136, i32 256, i1 false, null, null, i32 0, metadata !1222} ; [ DW_TAG_subprogram ]
!1220 = metadata !{i32 720917, i32 0, metadata !"", i32 0, i32 0, i64 0, i64 0, i32 0, i32 0, i32 0, metadata !1221, i32 0, i32 0} ; [ DW_TAG_subroutine_type ]
!1221 = metadata !{null, metadata !1203}
!1222 = metadata !{metadata !1223}
!1223 = metadata !{i32 720932}                    ; [ DW_TAG_base_type ]
!1224 = metadata !{i32 720942, i32 0, metadata !1136, metadata !"b2GearJoint", metadata !"b2GearJoint", metadata !"", metadata !1137, i32 81, metadata !1225, i1 false, i1 false, i32 0, i32 0, null, i32 258, i1 false, null, null, i32 0, metadata !1241} ; [ DW_TAG_subprogram ]
!1225 = metadata !{i32 720917, i32 0, metadata !"", i32 0, i32 0, i64 0, i64 0, i32 0, i32 0, i32 0, metadata !1226, i32 0, i32 0} ; [ DW_TAG_subroutine_type ]
!1226 = metadata !{null, metadata !1203, metadata !1227}
!1227 = metadata !{i32 720911, null, metadata !"", null, i32 0, i64 32, i64 32, i64 0, i32 0, metadata !1228} ; [ DW_TAG_pointer_type ]
!1228 = metadata !{i32 720934, null, metadata !"", null, i32 0, i64 0, i64 0, i64 0, i32 0, metadata !1229} ; [ DW_TAG_const_type ]
!1229 = metadata !{i32 720898, null, metadata !"b2GearJointDef", metadata !1137, i32 26, i64 256, i64 32, i32 0, i32 0, null, metadata !1230, i32 0, null, null} ; [ DW_TAG_class_type ]
!1230 = metadata !{metadata !1231, metadata !1232, metadata !1233, metadata !1234, metadata !1235}
!1231 = metadata !{i32 720924, metadata !1229, null, metadata !1137, i32 0, i64 0, i64 0, i64 0, i32 0, metadata !1068} ; [ DW_TAG_inheritance ]
!1232 = metadata !{i32 720909, metadata !1229, metadata !"joint1", metadata !1137, i32 37, i64 32, i64 32, i64 160, i32 0, metadata !1006} ; [ DW_TAG_member ]
!1233 = metadata !{i32 720909, metadata !1229, metadata !"joint2", metadata !1137, i32 40, i64 32, i64 32, i64 192, i32 0, metadata !1006} ; [ DW_TAG_member ]
!1234 = metadata !{i32 720909, metadata !1229, metadata !"ratio", metadata !1137, i32 44, i64 32, i64 32, i64 224, i32 0, metadata !21} ; [ DW_TAG_member ]
!1235 = metadata !{i32 720942, i32 0, metadata !1229, metadata !"b2GearJointDef", metadata !"b2GearJointDef", metadata !"", metadata !1137, i32 28, metadata !1236, i1 false, i1 false, i32 0, i32 0, null, i32 256, i1 false, null, null, i32 0, metadata !1239} ; [ DW_TAG_subprogram ]
!1236 = metadata !{i32 720917, i32 0, metadata !"", i32 0, i32 0, i64 0, i64 0, i32 0, i32 0, i32 0, metadata !1237, i32 0, i32 0} ; [ DW_TAG_subroutine_type ]
!1237 = metadata !{null, metadata !1238}
!1238 = metadata !{i32 720911, i32 0, metadata !"", i32 0, i32 0, i64 32, i64 32, i64 0, i32 64, metadata !1229} ; [ DW_TAG_pointer_type ]
!1239 = metadata !{metadata !1240}
!1240 = metadata !{i32 720932}                    ; [ DW_TAG_base_type ]
!1241 = metadata !{metadata !1242}
!1242 = metadata !{i32 720932}                    ; [ DW_TAG_base_type ]
!1243 = metadata !{i32 720942, i32 0, metadata !1136, metadata !"InitVelocityConstraints", metadata !"InitVelocityConstraints", metadata !"_ZN11b2GearJoint23InitVelocityConstraintsERK12b2SolverData", metadata !1137, i32 83, metadata !1244, i1 false, i1 false, i32 1, i32 7, metadata !1136, i32 258, i1 false, null, null, i32 0, metadata !1246} ; [ DW_TAG_subprogram ]
!1244 = metadata !{i32 720917, i32 0, metadata !"", i32 0, i32 0, i64 0, i64 0, i32 0, i32 0, i32 0, metadata !1245, i32 0, i32 0} ; [ DW_TAG_subroutine_type ]
!1245 = metadata !{null, metadata !1203, metadata !1099}
!1246 = metadata !{metadata !1247}
!1247 = metadata !{i32 720932}                    ; [ DW_TAG_base_type ]
!1248 = metadata !{i32 720942, i32 0, metadata !1136, metadata !"SolveVelocityConstraints", metadata !"SolveVelocityConstraints", metadata !"_ZN11b2GearJoint24SolveVelocityConstraintsERK12b2SolverData", metadata !1137, i32 84, metadata !1244, i1 false, i1 false, i32 1, i32 8, metadata !1136, i32 258, i1 false, null, null, i32 0, metadata !1249} ; [ DW_TAG_subprogram ]
!1249 = metadata !{metadata !1250}
!1250 = metadata !{i32 720932}                    ; [ DW_TAG_base_type ]
!1251 = metadata !{i32 720942, i32 0, metadata !1136, metadata !"SolvePositionConstraints", metadata !"SolvePositionConstraints", metadata !"_ZN11b2GearJoint24SolvePositionConstraintsERK12b2SolverData", metadata !1137, i32 85, metadata !1252, i1 false, i1 false, i32 1, i32 9, metadata !1136, i32 258, i1 false, null, null, i32 0, metadata !1254} ; [ DW_TAG_subprogram ]
!1252 = metadata !{i32 720917, i32 0, metadata !"", i32 0, i32 0, i64 0, i64 0, i32 0, i32 0, i32 0, metadata !1253, i32 0, i32 0} ; [ DW_TAG_subroutine_type ]
!1253 = metadata !{metadata !88, metadata !1203, metadata !1099}
!1254 = metadata !{metadata !1255}
!1255 = metadata !{i32 720932}                    ; [ DW_TAG_base_type ]
!1256 = metadata !{i32 720938, metadata !1136, null, metadata !1137, i32 0, i64 0, i64 0, i64 0, i32 0, metadata !982} ; [ DW_TAG_friend ]
!1257 = metadata !{i32 720938, metadata !982, null, metadata !342, i32 0, i64 0, i64 0, i64 0, i32 0, metadata !1258} ; [ DW_TAG_friend ]
!1258 = metadata !{i32 720915, null, metadata !"b2Island", metadata !4, i32 384, i64 0, i64 0, i32 0, i32 4, i32 0, null, i32 0, i32 0} ; [ DW_TAG_structure_type ]
!1259 = metadata !{i32 720938, metadata !982, null, metadata !342, i32 0, i64 0, i64 0, i64 0, i32 0, metadata !721} ; [ DW_TAG_friend ]
!1260 = metadata !{i32 720938, metadata !982, null, metadata !342, i32 0, i64 0, i64 0, i64 0, i32 0, metadata !436} ; [ DW_TAG_friend ]
!1261 = metadata !{i32 720909, metadata !977, metadata !"prev", metadata !342, i32 68, i64 32, i64 32, i64 64, i32 0, metadata !976} ; [ DW_TAG_member ]
!1262 = metadata !{i32 720909, metadata !977, metadata !"next", metadata !342, i32 69, i64 32, i64 32, i64 96, i32 0, metadata !976} ; [ DW_TAG_member ]
!1263 = metadata !{i32 720909, metadata !721, metadata !"m_contactList", metadata !4, i32 447, i64 32, i64 32, i64 896, i32 1, metadata !1264} ; [ DW_TAG_member ]
!1264 = metadata !{i32 720911, null, metadata !"", null, i32 0, i64 32, i64 32, i64 0, i32 0, metadata !717} ; [ DW_TAG_pointer_type ]
!1265 = metadata !{i32 720909, metadata !721, metadata !"m_mass", metadata !4, i32 449, i64 32, i64 32, i64 928, i32 1, metadata !21} ; [ DW_TAG_member ]
!1266 = metadata !{i32 720909, metadata !721, metadata !"m_invMass", metadata !4, i32 449, i64 32, i64 32, i64 960, i32 1, metadata !21} ; [ DW_TAG_member ]
!1267 = metadata !{i32 720909, metadata !721, metadata !"m_I", metadata !4, i32 452, i64 32, i64 32, i64 992, i32 1, metadata !21} ; [ DW_TAG_member ]
!1268 = metadata !{i32 720909, metadata !721, metadata !"m_invI", metadata !4, i32 452, i64 32, i64 32, i64 1024, i32 1, metadata !21} ; [ DW_TAG_member ]
!1269 = metadata !{i32 720909, metadata !721, metadata !"m_linearDamping", metadata !4, i32 454, i64 32, i64 32, i64 1056, i32 1, metadata !21} ; [ DW_TAG_member ]
!1270 = metadata !{i32 720909, metadata !721, metadata !"m_angularDamping", metadata !4, i32 455, i64 32, i64 32, i64 1088, i32 1, metadata !21} ; [ DW_TAG_member ]
!1271 = metadata !{i32 720909, metadata !721, metadata !"m_gravityScale", metadata !4, i32 456, i64 32, i64 32, i64 1120, i32 1, metadata !21} ; [ DW_TAG_member ]
!1272 = metadata !{i32 720909, metadata !721, metadata !"m_sleepTime", metadata !4, i32 458, i64 32, i64 32, i64 1152, i32 1, metadata !21} ; [ DW_TAG_member ]
!1273 = metadata !{i32 720909, metadata !721, metadata !"m_userData", metadata !4, i32 460, i64 32, i64 32, i64 1184, i32 1, metadata !62} ; [ DW_TAG_member ]
!1274 = metadata !{i32 720942, i32 0, metadata !721, metadata !"CreateFixture", metadata !"CreateFixture", metadata !"_ZN6b2Body13CreateFixtureEPK12b2FixtureDef", metadata !4, i32 136, metadata !1275, i1 false, i1 false, i32 0, i32 0, null, i32 256, i1 false, null, null, i32 0, metadata !1278} ; [ DW_TAG_subprogram ]
!1275 = metadata !{i32 720917, i32 0, metadata !"", i32 0, i32 0, i64 0, i64 0, i32 0, i32 0, i32 0, metadata !1276, i32 0, i32 0} ; [ DW_TAG_subroutine_type ]
!1276 = metadata !{metadata !765, metadata !1277, metadata !931}
!1277 = metadata !{i32 720911, i32 0, metadata !"", i32 0, i32 0, i64 32, i64 32, i64 0, i32 64, metadata !721} ; [ DW_TAG_pointer_type ]
!1278 = metadata !{metadata !1279}
!1279 = metadata !{i32 720932}                    ; [ DW_TAG_base_type ]
!1280 = metadata !{i32 720942, i32 0, metadata !721, metadata !"CreateFixture", metadata !"CreateFixture", metadata !"_ZN6b2Body13CreateFixtureEPK7b2Shapef", metadata !4, i32 145, metadata !1281, i1 false, i1 false, i32 0, i32 0, null, i32 256, i1 false, null, null, i32 0, metadata !1283} ; [ DW_TAG_subprogram ]
!1281 = metadata !{i32 720917, i32 0, metadata !"", i32 0, i32 0, i64 0, i64 0, i32 0, i32 0, i32 0, metadata !1282, i32 0, i32 0} ; [ DW_TAG_subroutine_type ]
!1282 = metadata !{metadata !765, metadata !1277, metadata !33, metadata !21}
!1283 = metadata !{metadata !1284}
!1284 = metadata !{i32 720932}                    ; [ DW_TAG_base_type ]
!1285 = metadata !{i32 720942, i32 0, metadata !721, metadata !"DestroyFixture", metadata !"DestroyFixture", metadata !"_ZN6b2Body14DestroyFixtureEP9b2Fixture", metadata !4, i32 154, metadata !1286, i1 false, i1 false, i32 0, i32 0, null, i32 256, i1 false, null, null, i32 0, metadata !1288} ; [ DW_TAG_subprogram ]
!1286 = metadata !{i32 720917, i32 0, metadata !"", i32 0, i32 0, i64 0, i64 0, i32 0, i32 0, i32 0, metadata !1287, i32 0, i32 0} ; [ DW_TAG_subroutine_type ]
!1287 = metadata !{null, metadata !1277, metadata !765}
!1288 = metadata !{metadata !1289}
!1289 = metadata !{i32 720932}                    ; [ DW_TAG_base_type ]
!1290 = metadata !{i32 720942, i32 0, metadata !721, metadata !"SetTransform", metadata !"SetTransform", metadata !"_ZN6b2Body12SetTransformERK6b2Vec2f", metadata !4, i32 161, metadata !1291, i1 false, i1 false, i32 0, i32 0, null, i32 256, i1 false, null, null, i32 0, metadata !1293} ; [ DW_TAG_subprogram ]
!1291 = metadata !{i32 720917, i32 0, metadata !"", i32 0, i32 0, i64 0, i64 0, i32 0, i32 0, i32 0, metadata !1292, i32 0, i32 0} ; [ DW_TAG_subroutine_type ]
!1292 = metadata !{null, metadata !1277, metadata !136, metadata !21}
!1293 = metadata !{metadata !1294}
!1294 = metadata !{i32 720932}                    ; [ DW_TAG_base_type ]
!1295 = metadata !{i32 720942, i32 0, metadata !721, metadata !"GetTransform", metadata !"GetTransform", metadata !"_ZNK6b2Body12GetTransformEv", metadata !4, i32 165, metadata !1296, i1 false, i1 false, i32 0, i32 0, null, i32 256, i1 false, null, null, i32 0, metadata !1299} ; [ DW_TAG_subprogram ]
!1296 = metadata !{i32 720917, i32 0, metadata !"", i32 0, i32 0, i64 0, i64 0, i32 0, i32 0, i32 0, metadata !1297, i32 0, i32 0} ; [ DW_TAG_subroutine_type ]
!1297 = metadata !{metadata !89, metadata !1298}
!1298 = metadata !{i32 720911, i32 0, metadata !"", i32 0, i32 0, i64 32, i64 32, i64 0, i32 64, metadata !855} ; [ DW_TAG_pointer_type ]
!1299 = metadata !{metadata !1300}
!1300 = metadata !{i32 720932}                    ; [ DW_TAG_base_type ]
!1301 = metadata !{i32 720942, i32 0, metadata !721, metadata !"GetPosition", metadata !"GetPosition", metadata !"_ZNK6b2Body11GetPositionEv", metadata !4, i32 169, metadata !1302, i1 false, i1 false, i32 0, i32 0, null, i32 256, i1 false, null, null, i32 0, metadata !1304} ; [ DW_TAG_subprogram ]
!1302 = metadata !{i32 720917, i32 0, metadata !"", i32 0, i32 0, i64 0, i64 0, i32 0, i32 0, i32 0, metadata !1303, i32 0, i32 0} ; [ DW_TAG_subroutine_type ]
!1303 = metadata !{metadata !136, metadata !1298}
!1304 = metadata !{metadata !1305}
!1305 = metadata !{i32 720932}                    ; [ DW_TAG_base_type ]
!1306 = metadata !{i32 720942, i32 0, metadata !721, metadata !"GetAngle", metadata !"GetAngle", metadata !"_ZNK6b2Body8GetAngleEv", metadata !4, i32 173, metadata !1307, i1 false, i1 false, i32 0, i32 0, null, i32 256, i1 false, null, null, i32 0, metadata !1309} ; [ DW_TAG_subprogram ]
!1307 = metadata !{i32 720917, i32 0, metadata !"", i32 0, i32 0, i64 0, i64 0, i32 0, i32 0, i32 0, metadata !1308, i32 0, i32 0} ; [ DW_TAG_subroutine_type ]
!1308 = metadata !{metadata !21, metadata !1298}
!1309 = metadata !{metadata !1310}
!1310 = metadata !{i32 720932}                    ; [ DW_TAG_base_type ]
!1311 = metadata !{i32 720942, i32 0, metadata !721, metadata !"GetWorldCenter", metadata !"GetWorldCenter", metadata !"_ZNK6b2Body14GetWorldCenterEv", metadata !4, i32 176, metadata !1302, i1 false, i1 false, i32 0, i32 0, null, i32 256, i1 false, null, null, i32 0, metadata !1312} ; [ DW_TAG_subprogram ]
!1312 = metadata !{metadata !1313}
!1313 = metadata !{i32 720932}                    ; [ DW_TAG_base_type ]
!1314 = metadata !{i32 720942, i32 0, metadata !721, metadata !"GetLocalCenter", metadata !"GetLocalCenter", metadata !"_ZNK6b2Body14GetLocalCenterEv", metadata !4, i32 179, metadata !1302, i1 false, i1 false, i32 0, i32 0, null, i32 256, i1 false, null, null, i32 0, metadata !1315} ; [ DW_TAG_subprogram ]
!1315 = metadata !{metadata !1316}
!1316 = metadata !{i32 720932}                    ; [ DW_TAG_base_type ]
!1317 = metadata !{i32 720942, i32 0, metadata !721, metadata !"SetLinearVelocity", metadata !"SetLinearVelocity", metadata !"_ZN6b2Body17SetLinearVelocityERK6b2Vec2", metadata !4, i32 183, metadata !1318, i1 false, i1 false, i32 0, i32 0, null, i32 256, i1 false, null, null, i32 0, metadata !1320} ; [ DW_TAG_subprogram ]
!1318 = metadata !{i32 720917, i32 0, metadata !"", i32 0, i32 0, i64 0, i64 0, i32 0, i32 0, i32 0, metadata !1319, i32 0, i32 0} ; [ DW_TAG_subroutine_type ]
!1319 = metadata !{null, metadata !1277, metadata !136}
!1320 = metadata !{metadata !1321}
!1321 = metadata !{i32 720932}                    ; [ DW_TAG_base_type ]
!1322 = metadata !{i32 720942, i32 0, metadata !721, metadata !"GetLinearVelocity", metadata !"GetLinearVelocity", metadata !"_ZNK6b2Body17GetLinearVelocityEv", metadata !4, i32 187, metadata !1323, i1 false, i1 false, i32 0, i32 0, null, i32 256, i1 false, null, null, i32 0, metadata !1325} ; [ DW_TAG_subprogram ]
!1323 = metadata !{i32 720917, i32 0, metadata !"", i32 0, i32 0, i64 0, i64 0, i32 0, i32 0, i32 0, metadata !1324, i32 0, i32 0} ; [ DW_TAG_subroutine_type ]
!1324 = metadata !{metadata !94, metadata !1298}
!1325 = metadata !{metadata !1326}
!1326 = metadata !{i32 720932}                    ; [ DW_TAG_base_type ]
!1327 = metadata !{i32 720942, i32 0, metadata !721, metadata !"SetAngularVelocity", metadata !"SetAngularVelocity", metadata !"_ZN6b2Body18SetAngularVelocityEf", metadata !4, i32 191, metadata !1328, i1 false, i1 false, i32 0, i32 0, null, i32 256, i1 false, null, null, i32 0, metadata !1330} ; [ DW_TAG_subprogram ]
!1328 = metadata !{i32 720917, i32 0, metadata !"", i32 0, i32 0, i64 0, i64 0, i32 0, i32 0, i32 0, metadata !1329, i32 0, i32 0} ; [ DW_TAG_subroutine_type ]
!1329 = metadata !{null, metadata !1277, metadata !21}
!1330 = metadata !{metadata !1331}
!1331 = metadata !{i32 720932}                    ; [ DW_TAG_base_type ]
!1332 = metadata !{i32 720942, i32 0, metadata !721, metadata !"GetAngularVelocity", metadata !"GetAngularVelocity", metadata !"_ZNK6b2Body18GetAngularVelocityEv", metadata !4, i32 195, metadata !1307, i1 false, i1 false, i32 0, i32 0, null, i32 256, i1 false, null, null, i32 0, metadata !1333} ; [ DW_TAG_subprogram ]
!1333 = metadata !{metadata !1334}
!1334 = metadata !{i32 720932}                    ; [ DW_TAG_base_type ]
!1335 = metadata !{i32 720942, i32 0, metadata !721, metadata !"ApplyForce", metadata !"ApplyForce", metadata !"_ZN6b2Body10ApplyForceERK6b2Vec2S2_", metadata !4, i32 202, metadata !1336, i1 false, i1 false, i32 0, i32 0, null, i32 256, i1 false, null, null, i32 0, metadata !1338} ; [ DW_TAG_subprogram ]
!1336 = metadata !{i32 720917, i32 0, metadata !"", i32 0, i32 0, i64 0, i64 0, i32 0, i32 0, i32 0, metadata !1337, i32 0, i32 0} ; [ DW_TAG_subroutine_type ]
!1337 = metadata !{null, metadata !1277, metadata !136, metadata !136}
!1338 = metadata !{metadata !1339}
!1339 = metadata !{i32 720932}                    ; [ DW_TAG_base_type ]
!1340 = metadata !{i32 720942, i32 0, metadata !721, metadata !"ApplyForceToCenter", metadata !"ApplyForceToCenter", metadata !"_ZN6b2Body18ApplyForceToCenterERK6b2Vec2", metadata !4, i32 206, metadata !1318, i1 false, i1 false, i32 0, i32 0, null, i32 256, i1 false, null, null, i32 0, metadata !1341} ; [ DW_TAG_subprogram ]
!1341 = metadata !{metadata !1342}
!1342 = metadata !{i32 720932}                    ; [ DW_TAG_base_type ]
!1343 = metadata !{i32 720942, i32 0, metadata !721, metadata !"ApplyTorque", metadata !"ApplyTorque", metadata !"_ZN6b2Body11ApplyTorqueEf", metadata !4, i32 212, metadata !1328, i1 false, i1 false, i32 0, i32 0, null, i32 256, i1 false, null, null, i32 0, metadata !1344} ; [ DW_TAG_subprogram ]
!1344 = metadata !{metadata !1345}
!1345 = metadata !{i32 720932}                    ; [ DW_TAG_base_type ]
!1346 = metadata !{i32 720942, i32 0, metadata !721, metadata !"ApplyLinearImpulse", metadata !"ApplyLinearImpulse", metadata !"_ZN6b2Body18ApplyLinearImpulseERK6b2Vec2S2_", metadata !4, i32 219, metadata !1336, i1 false, i1 false, i32 0, i32 0, null, i32 256, i1 false, null, null, i32 0, metadata !1347} ; [ DW_TAG_subprogram ]
!1347 = metadata !{metadata !1348}
!1348 = metadata !{i32 720932}                    ; [ DW_TAG_base_type ]
!1349 = metadata !{i32 720942, i32 0, metadata !721, metadata !"ApplyAngularImpulse", metadata !"ApplyAngularImpulse", metadata !"_ZN6b2Body19ApplyAngularImpulseEf", metadata !4, i32 223, metadata !1328, i1 false, i1 false, i32 0, i32 0, null, i32 256, i1 false, null, null, i32 0, metadata !1350} ; [ DW_TAG_subprogram ]
!1350 = metadata !{metadata !1351}
!1351 = metadata !{i32 720932}                    ; [ DW_TAG_base_type ]
!1352 = metadata !{i32 720942, i32 0, metadata !721, metadata !"GetMass", metadata !"GetMass", metadata !"_ZNK6b2Body7GetMassEv", metadata !4, i32 227, metadata !1307, i1 false, i1 false, i32 0, i32 0, null, i32 256, i1 false, null, null, i32 0, metadata !1353} ; [ DW_TAG_subprogram ]
!1353 = metadata !{metadata !1354}
!1354 = metadata !{i32 720932}                    ; [ DW_TAG_base_type ]
!1355 = metadata !{i32 720942, i32 0, metadata !721, metadata !"GetInertia", metadata !"GetInertia", metadata !"_ZNK6b2Body10GetInertiaEv", metadata !4, i32 231, metadata !1307, i1 false, i1 false, i32 0, i32 0, null, i32 256, i1 false, null, null, i32 0, metadata !1356} ; [ DW_TAG_subprogram ]
!1356 = metadata !{metadata !1357}
!1357 = metadata !{i32 720932}                    ; [ DW_TAG_base_type ]
!1358 = metadata !{i32 720942, i32 0, metadata !721, metadata !"GetMassData", metadata !"GetMassData", metadata !"_ZNK6b2Body11GetMassDataEP10b2MassData", metadata !4, i32 235, metadata !1359, i1 false, i1 false, i32 0, i32 0, null, i32 256, i1 false, null, null, i32 0, metadata !1361} ; [ DW_TAG_subprogram ]
!1359 = metadata !{i32 720917, i32 0, metadata !"", i32 0, i32 0, i64 0, i64 0, i32 0, i32 0, i32 0, metadata !1360, i32 0, i32 0} ; [ DW_TAG_subroutine_type ]
!1360 = metadata !{null, metadata !1298, metadata !324}
!1361 = metadata !{metadata !1362}
!1362 = metadata !{i32 720932}                    ; [ DW_TAG_base_type ]
!1363 = metadata !{i32 720942, i32 0, metadata !721, metadata !"SetMassData", metadata !"SetMassData", metadata !"_ZN6b2Body11SetMassDataEPK10b2MassData", metadata !4, i32 242, metadata !1364, i1 false, i1 false, i32 0, i32 0, null, i32 256, i1 false, null, null, i32 0, metadata !1368} ; [ DW_TAG_subprogram ]
!1364 = metadata !{i32 720917, i32 0, metadata !"", i32 0, i32 0, i64 0, i64 0, i32 0, i32 0, i32 0, metadata !1365, i32 0, i32 0} ; [ DW_TAG_subroutine_type ]
!1365 = metadata !{null, metadata !1277, metadata !1366}
!1366 = metadata !{i32 720911, null, metadata !"", null, i32 0, i64 32, i64 32, i64 0, i32 0, metadata !1367} ; [ DW_TAG_pointer_type ]
!1367 = metadata !{i32 720934, null, metadata !"", null, i32 0, i64 0, i64 0, i64 0, i32 0, metadata !325} ; [ DW_TAG_const_type ]
!1368 = metadata !{metadata !1369}
!1369 = metadata !{i32 720932}                    ; [ DW_TAG_base_type ]
!1370 = metadata !{i32 720942, i32 0, metadata !721, metadata !"ResetMassData", metadata !"ResetMassData", metadata !"_ZN6b2Body13ResetMassDataEv", metadata !4, i32 247, metadata !1371, i1 false, i1 false, i32 0, i32 0, null, i32 256, i1 false, null, null, i32 0, metadata !1373} ; [ DW_TAG_subprogram ]
!1371 = metadata !{i32 720917, i32 0, metadata !"", i32 0, i32 0, i64 0, i64 0, i32 0, i32 0, i32 0, metadata !1372, i32 0, i32 0} ; [ DW_TAG_subroutine_type ]
!1372 = metadata !{null, metadata !1277}
!1373 = metadata !{metadata !1374}
!1374 = metadata !{i32 720932}                    ; [ DW_TAG_base_type ]
!1375 = metadata !{i32 720942, i32 0, metadata !721, metadata !"GetWorldPoint", metadata !"GetWorldPoint", metadata !"_ZNK6b2Body13GetWorldPointERK6b2Vec2", metadata !4, i32 252, metadata !1376, i1 false, i1 false, i32 0, i32 0, null, i32 256, i1 false, null, null, i32 0, metadata !1378} ; [ DW_TAG_subprogram ]
!1376 = metadata !{i32 720917, i32 0, metadata !"", i32 0, i32 0, i64 0, i64 0, i32 0, i32 0, i32 0, metadata !1377, i32 0, i32 0} ; [ DW_TAG_subroutine_type ]
!1377 = metadata !{metadata !94, metadata !1298, metadata !136}
!1378 = metadata !{metadata !1379}
!1379 = metadata !{i32 720932}                    ; [ DW_TAG_base_type ]
!1380 = metadata !{i32 720942, i32 0, metadata !721, metadata !"GetWorldVector", metadata !"GetWorldVector", metadata !"_ZNK6b2Body14GetWorldVectorERK6b2Vec2", metadata !4, i32 257, metadata !1376, i1 false, i1 false, i32 0, i32 0, null, i32 256, i1 false, null, null, i32 0, metadata !1381} ; [ DW_TAG_subprogram ]
!1381 = metadata !{metadata !1382}
!1382 = metadata !{i32 720932}                    ; [ DW_TAG_base_type ]
!1383 = metadata !{i32 720942, i32 0, metadata !721, metadata !"GetLocalPoint", metadata !"GetLocalPoint", metadata !"_ZNK6b2Body13GetLocalPointERK6b2Vec2", metadata !4, i32 262, metadata !1376, i1 false, i1 false, i32 0, i32 0, null, i32 256, i1 false, null, null, i32 0, metadata !1384} ; [ DW_TAG_subprogram ]
!1384 = metadata !{metadata !1385}
!1385 = metadata !{i32 720932}                    ; [ DW_TAG_base_type ]
!1386 = metadata !{i32 720942, i32 0, metadata !721, metadata !"GetLocalVector", metadata !"GetLocalVector", metadata !"_ZNK6b2Body14GetLocalVectorERK6b2Vec2", metadata !4, i32 267, metadata !1376, i1 false, i1 false, i32 0, i32 0, null, i32 256, i1 false, null, null, i32 0, metadata !1387} ; [ DW_TAG_subprogram ]
!1387 = metadata !{metadata !1388}
!1388 = metadata !{i32 720932}                    ; [ DW_TAG_base_type ]
!1389 = metadata !{i32 720942, i32 0, metadata !721, metadata !"GetLinearVelocityFromWorldPoint", metadata !"GetLinearVelocityFromWorldPoint", metadata !"_ZNK6b2Body31GetLinearVelocityFromWorldPointERK6b2Vec2", metadata !4, i32 272, metadata !1376, i1 false, i1 false, i32 0, i32 0, null, i32 256, i1 false, null, null, i32 0, metadata !1390} ; [ DW_TAG_subprogram ]
!1390 = metadata !{metadata !1391}
!1391 = metadata !{i32 720932}                    ; [ DW_TAG_base_type ]
!1392 = metadata !{i32 720942, i32 0, metadata !721, metadata !"GetLinearVelocityFromLocalPoint", metadata !"GetLinearVelocityFromLocalPoint", metadata !"_ZNK6b2Body31GetLinearVelocityFromLocalPointERK6b2Vec2", metadata !4, i32 277, metadata !1376, i1 false, i1 false, i32 0, i32 0, null, i32 256, i1 false, null, null, i32 0, metadata !1393} ; [ DW_TAG_subprogram ]
!1393 = metadata !{metadata !1394}
!1394 = metadata !{i32 720932}                    ; [ DW_TAG_base_type ]
!1395 = metadata !{i32 720942, i32 0, metadata !721, metadata !"GetLinearDamping", metadata !"GetLinearDamping", metadata !"_ZNK6b2Body16GetLinearDampingEv", metadata !4, i32 280, metadata !1307, i1 false, i1 false, i32 0, i32 0, null, i32 256, i1 false, null, null, i32 0, metadata !1396} ; [ DW_TAG_subprogram ]
!1396 = metadata !{metadata !1397}
!1397 = metadata !{i32 720932}                    ; [ DW_TAG_base_type ]
!1398 = metadata !{i32 720942, i32 0, metadata !721, metadata !"SetLinearDamping", metadata !"SetLinearDamping", metadata !"_ZN6b2Body16SetLinearDampingEf", metadata !4, i32 283, metadata !1328, i1 false, i1 false, i32 0, i32 0, null, i32 256, i1 false, null, null, i32 0, metadata !1399} ; [ DW_TAG_subprogram ]
!1399 = metadata !{metadata !1400}
!1400 = metadata !{i32 720932}                    ; [ DW_TAG_base_type ]
!1401 = metadata !{i32 720942, i32 0, metadata !721, metadata !"GetAngularDamping", metadata !"GetAngularDamping", metadata !"_ZNK6b2Body17GetAngularDampingEv", metadata !4, i32 286, metadata !1307, i1 false, i1 false, i32 0, i32 0, null, i32 256, i1 false, null, null, i32 0, metadata !1402} ; [ DW_TAG_subprogram ]
!1402 = metadata !{metadata !1403}
!1403 = metadata !{i32 720932}                    ; [ DW_TAG_base_type ]
!1404 = metadata !{i32 720942, i32 0, metadata !721, metadata !"SetAngularDamping", metadata !"SetAngularDamping", metadata !"_ZN6b2Body17SetAngularDampingEf", metadata !4, i32 289, metadata !1328, i1 false, i1 false, i32 0, i32 0, null, i32 256, i1 false, null, null, i32 0, metadata !1405} ; [ DW_TAG_subprogram ]
!1405 = metadata !{metadata !1406}
!1406 = metadata !{i32 720932}                    ; [ DW_TAG_base_type ]
!1407 = metadata !{i32 720942, i32 0, metadata !721, metadata !"GetGravityScale", metadata !"GetGravityScale", metadata !"_ZNK6b2Body15GetGravityScaleEv", metadata !4, i32 292, metadata !1307, i1 false, i1 false, i32 0, i32 0, null, i32 256, i1 false, null, null, i32 0, metadata !1408} ; [ DW_TAG_subprogram ]
!1408 = metadata !{metadata !1409}
!1409 = metadata !{i32 720932}                    ; [ DW_TAG_base_type ]
!1410 = metadata !{i32 720942, i32 0, metadata !721, metadata !"SetGravityScale", metadata !"SetGravityScale", metadata !"_ZN6b2Body15SetGravityScaleEf", metadata !4, i32 295, metadata !1328, i1 false, i1 false, i32 0, i32 0, null, i32 256, i1 false, null, null, i32 0, metadata !1411} ; [ DW_TAG_subprogram ]
!1411 = metadata !{metadata !1412}
!1412 = metadata !{i32 720932}                    ; [ DW_TAG_base_type ]
!1413 = metadata !{i32 720942, i32 0, metadata !721, metadata !"SetType", metadata !"SetType", metadata !"_ZN6b2Body7SetTypeE10b2BodyType", metadata !4, i32 298, metadata !1414, i1 false, i1 false, i32 0, i32 0, null, i32 256, i1 false, null, null, i32 0, metadata !1416} ; [ DW_TAG_subprogram ]
!1414 = metadata !{i32 720917, i32 0, metadata !"", i32 0, i32 0, i64 0, i64 0, i32 0, i32 0, i32 0, metadata !1415, i32 0, i32 0} ; [ DW_TAG_subroutine_type ]
!1415 = metadata !{null, metadata !1277, metadata !3}
!1416 = metadata !{metadata !1417}
!1417 = metadata !{i32 720932}                    ; [ DW_TAG_base_type ]
!1418 = metadata !{i32 720942, i32 0, metadata !721, metadata !"GetType", metadata !"GetType", metadata !"_ZNK6b2Body7GetTypeEv", metadata !4, i32 301, metadata !1419, i1 false, i1 false, i32 0, i32 0, null, i32 256, i1 false, null, null, i32 0, metadata !1421} ; [ DW_TAG_subprogram ]
!1419 = metadata !{i32 720917, i32 0, metadata !"", i32 0, i32 0, i64 0, i64 0, i32 0, i32 0, i32 0, metadata !1420, i32 0, i32 0} ; [ DW_TAG_subroutine_type ]
!1420 = metadata !{metadata !3, metadata !1298}
!1421 = metadata !{metadata !1422}
!1422 = metadata !{i32 720932}                    ; [ DW_TAG_base_type ]
!1423 = metadata !{i32 720942, i32 0, metadata !721, metadata !"SetBullet", metadata !"SetBullet", metadata !"_ZN6b2Body9SetBulletEb", metadata !4, i32 304, metadata !1424, i1 false, i1 false, i32 0, i32 0, null, i32 256, i1 false, null, null, i32 0, metadata !1426} ; [ DW_TAG_subprogram ]
!1424 = metadata !{i32 720917, i32 0, metadata !"", i32 0, i32 0, i64 0, i64 0, i32 0, i32 0, i32 0, metadata !1425, i32 0, i32 0} ; [ DW_TAG_subroutine_type ]
!1425 = metadata !{null, metadata !1277, metadata !88}
!1426 = metadata !{metadata !1427}
!1427 = metadata !{i32 720932}                    ; [ DW_TAG_base_type ]
!1428 = metadata !{i32 720942, i32 0, metadata !721, metadata !"IsBullet", metadata !"IsBullet", metadata !"_ZNK6b2Body8IsBulletEv", metadata !4, i32 307, metadata !1429, i1 false, i1 false, i32 0, i32 0, null, i32 256, i1 false, null, null, i32 0, metadata !1431} ; [ DW_TAG_subprogram ]
!1429 = metadata !{i32 720917, i32 0, metadata !"", i32 0, i32 0, i64 0, i64 0, i32 0, i32 0, i32 0, metadata !1430, i32 0, i32 0} ; [ DW_TAG_subroutine_type ]
!1430 = metadata !{metadata !88, metadata !1298}
!1431 = metadata !{metadata !1432}
!1432 = metadata !{i32 720932}                    ; [ DW_TAG_base_type ]
!1433 = metadata !{i32 720942, i32 0, metadata !721, metadata !"SetSleepingAllowed", metadata !"SetSleepingAllowed", metadata !"_ZN6b2Body18SetSleepingAllowedEb", metadata !4, i32 311, metadata !1424, i1 false, i1 false, i32 0, i32 0, null, i32 256, i1 false, null, null, i32 0, metadata !1434} ; [ DW_TAG_subprogram ]
!1434 = metadata !{metadata !1435}
!1435 = metadata !{i32 720932}                    ; [ DW_TAG_base_type ]
!1436 = metadata !{i32 720942, i32 0, metadata !721, metadata !"IsSleepingAllowed", metadata !"IsSleepingAllowed", metadata !"_ZNK6b2Body17IsSleepingAllowedEv", metadata !4, i32 314, metadata !1429, i1 false, i1 false, i32 0, i32 0, null, i32 256, i1 false, null, null, i32 0, metadata !1437} ; [ DW_TAG_subprogram ]
!1437 = metadata !{metadata !1438}
!1438 = metadata !{i32 720932}                    ; [ DW_TAG_base_type ]
!1439 = metadata !{i32 720942, i32 0, metadata !721, metadata !"SetAwake", metadata !"SetAwake", metadata !"_ZN6b2Body8SetAwakeEb", metadata !4, i32 319, metadata !1424, i1 false, i1 false, i32 0, i32 0, null, i32 256, i1 false, null, null, i32 0, metadata !1440} ; [ DW_TAG_subprogram ]
!1440 = metadata !{metadata !1441}
!1441 = metadata !{i32 720932}                    ; [ DW_TAG_base_type ]
!1442 = metadata !{i32 720942, i32 0, metadata !721, metadata !"IsAwake", metadata !"IsAwake", metadata !"_ZNK6b2Body7IsAwakeEv", metadata !4, i32 323, metadata !1429, i1 false, i1 false, i32 0, i32 0, null, i32 256, i1 false, null, null, i32 0, metadata !1443} ; [ DW_TAG_subprogram ]
!1443 = metadata !{metadata !1444}
!1444 = metadata !{i32 720932}                    ; [ DW_TAG_base_type ]
!1445 = metadata !{i32 720942, i32 0, metadata !721, metadata !"SetActive", metadata !"SetActive", metadata !"_ZN6b2Body9SetActiveEb", metadata !4, i32 338, metadata !1424, i1 false, i1 false, i32 0, i32 0, null, i32 256, i1 false, null, null, i32 0, metadata !1446} ; [ DW_TAG_subprogram ]
!1446 = metadata !{metadata !1447}
!1447 = metadata !{i32 720932}                    ; [ DW_TAG_base_type ]
!1448 = metadata !{i32 720942, i32 0, metadata !721, metadata !"IsActive", metadata !"IsActive", metadata !"_ZNK6b2Body8IsActiveEv", metadata !4, i32 341, metadata !1429, i1 false, i1 false, i32 0, i32 0, null, i32 256, i1 false, null, null, i32 0, metadata !1449} ; [ DW_TAG_subprogram ]
!1449 = metadata !{metadata !1450}
!1450 = metadata !{i32 720932}                    ; [ DW_TAG_base_type ]
!1451 = metadata !{i32 720942, i32 0, metadata !721, metadata !"SetFixedRotation", metadata !"SetFixedRotation", metadata !"_ZN6b2Body16SetFixedRotationEb", metadata !4, i32 345, metadata !1424, i1 false, i1 false, i32 0, i32 0, null, i32 256, i1 false, null, null, i32 0, metadata !1452} ; [ DW_TAG_subprogram ]
!1452 = metadata !{metadata !1453}
!1453 = metadata !{i32 720932}                    ; [ DW_TAG_base_type ]
!1454 = metadata !{i32 720942, i32 0, metadata !721, metadata !"IsFixedRotation", metadata !"IsFixedRotation", metadata !"_ZNK6b2Body15IsFixedRotationEv", metadata !4, i32 348, metadata !1429, i1 false, i1 false, i32 0, i32 0, null, i32 256, i1 false, null, null, i32 0, metadata !1455} ; [ DW_TAG_subprogram ]
!1455 = metadata !{metadata !1456}
!1456 = metadata !{i32 720932}                    ; [ DW_TAG_base_type ]
!1457 = metadata !{i32 720942, i32 0, metadata !721, metadata !"GetFixtureList", metadata !"GetFixtureList", metadata !"_ZN6b2Body14GetFixtureListEv", metadata !4, i32 351, metadata !1458, i1 false, i1 false, i32 0, i32 0, null, i32 256, i1 false, null, null, i32 0, metadata !1460} ; [ DW_TAG_subprogram ]
!1458 = metadata !{i32 720917, i32 0, metadata !"", i32 0, i32 0, i64 0, i64 0, i32 0, i32 0, i32 0, metadata !1459, i32 0, i32 0} ; [ DW_TAG_subroutine_type ]
!1459 = metadata !{metadata !811, metadata !1277}
!1460 = metadata !{metadata !1461}
!1461 = metadata !{i32 720932}                    ; [ DW_TAG_base_type ]
!1462 = metadata !{i32 720942, i32 0, metadata !721, metadata !"GetFixtureList", metadata !"GetFixtureList", metadata !"_ZNK6b2Body14GetFixtureListEv", metadata !4, i32 352, metadata !1463, i1 false, i1 false, i32 0, i32 0, null, i32 256, i1 false, null, null, i32 0, metadata !1465} ; [ DW_TAG_subprogram ]
!1463 = metadata !{i32 720917, i32 0, metadata !"", i32 0, i32 0, i64 0, i64 0, i32 0, i32 0, i32 0, metadata !1464, i32 0, i32 0} ; [ DW_TAG_subroutine_type ]
!1464 = metadata !{metadata !804, metadata !1298}
!1465 = metadata !{metadata !1466}
!1466 = metadata !{i32 720932}                    ; [ DW_TAG_base_type ]
!1467 = metadata !{i32 720942, i32 0, metadata !721, metadata !"GetJointList", metadata !"GetJointList", metadata !"_ZN6b2Body12GetJointListEv", metadata !4, i32 355, metadata !1468, i1 false, i1 false, i32 0, i32 0, null, i32 256, i1 false, null, null, i32 0, metadata !1470} ; [ DW_TAG_subprogram ]
!1468 = metadata !{i32 720917, i32 0, metadata !"", i32 0, i32 0, i64 0, i64 0, i32 0, i32 0, i32 0, metadata !1469, i32 0, i32 0} ; [ DW_TAG_subroutine_type ]
!1469 = metadata !{metadata !976, metadata !1277}
!1470 = metadata !{metadata !1471}
!1471 = metadata !{i32 720932}                    ; [ DW_TAG_base_type ]
!1472 = metadata !{i32 720942, i32 0, metadata !721, metadata !"GetJointList", metadata !"GetJointList", metadata !"_ZNK6b2Body12GetJointListEv", metadata !4, i32 356, metadata !1473, i1 false, i1 false, i32 0, i32 0, null, i32 256, i1 false, null, null, i32 0, metadata !1477} ; [ DW_TAG_subprogram ]
!1473 = metadata !{i32 720917, i32 0, metadata !"", i32 0, i32 0, i64 0, i64 0, i32 0, i32 0, i32 0, metadata !1474, i32 0, i32 0} ; [ DW_TAG_subroutine_type ]
!1474 = metadata !{metadata !1475, metadata !1298}
!1475 = metadata !{i32 720911, null, metadata !"", null, i32 0, i64 32, i64 32, i64 0, i32 0, metadata !1476} ; [ DW_TAG_pointer_type ]
!1476 = metadata !{i32 720934, null, metadata !"", null, i32 0, i64 0, i64 0, i64 0, i32 0, metadata !977} ; [ DW_TAG_const_type ]
!1477 = metadata !{metadata !1478}
!1478 = metadata !{i32 720932}                    ; [ DW_TAG_base_type ]
!1479 = metadata !{i32 720942, i32 0, metadata !721, metadata !"GetContactList", metadata !"GetContactList", metadata !"_ZN6b2Body14GetContactListEv", metadata !4, i32 361, metadata !1480, i1 false, i1 false, i32 0, i32 0, null, i32 256, i1 false, null, null, i32 0, metadata !1482} ; [ DW_TAG_subprogram ]
!1480 = metadata !{i32 720917, i32 0, metadata !"", i32 0, i32 0, i64 0, i64 0, i32 0, i32 0, i32 0, metadata !1481, i32 0, i32 0} ; [ DW_TAG_subroutine_type ]
!1481 = metadata !{metadata !1264, metadata !1277}
!1482 = metadata !{metadata !1483}
!1483 = metadata !{i32 720932}                    ; [ DW_TAG_base_type ]
!1484 = metadata !{i32 720942, i32 0, metadata !721, metadata !"GetContactList", metadata !"GetContactList", metadata !"_ZNK6b2Body14GetContactListEv", metadata !4, i32 362, metadata !1485, i1 false, i1 false, i32 0, i32 0, null, i32 256, i1 false, null, null, i32 0, metadata !1489} ; [ DW_TAG_subprogram ]
!1485 = metadata !{i32 720917, i32 0, metadata !"", i32 0, i32 0, i64 0, i64 0, i32 0, i32 0, i32 0, metadata !1486, i32 0, i32 0} ; [ DW_TAG_subroutine_type ]
!1486 = metadata !{metadata !1487, metadata !1298}
!1487 = metadata !{i32 720911, null, metadata !"", null, i32 0, i64 32, i64 32, i64 0, i32 0, metadata !1488} ; [ DW_TAG_pointer_type ]
!1488 = metadata !{i32 720934, null, metadata !"", null, i32 0, i64 0, i64 0, i64 0, i32 0, metadata !717} ; [ DW_TAG_const_type ]
!1489 = metadata !{metadata !1490}
!1490 = metadata !{i32 720932}                    ; [ DW_TAG_base_type ]
!1491 = metadata !{i32 720942, i32 0, metadata !721, metadata !"GetNext", metadata !"GetNext", metadata !"_ZN6b2Body7GetNextEv", metadata !4, i32 365, metadata !1492, i1 false, i1 false, i32 0, i32 0, null, i32 256, i1 false, null, null, i32 0, metadata !1494} ; [ DW_TAG_subprogram ]
!1492 = metadata !{i32 720917, i32 0, metadata !"", i32 0, i32 0, i64 0, i64 0, i32 0, i32 0, i32 0, metadata !1493, i32 0, i32 0} ; [ DW_TAG_subroutine_type ]
!1493 = metadata !{metadata !720, metadata !1277}
!1494 = metadata !{metadata !1495}
!1495 = metadata !{i32 720932}                    ; [ DW_TAG_base_type ]
!1496 = metadata !{i32 720942, i32 0, metadata !721, metadata !"GetNext", metadata !"GetNext", metadata !"_ZNK6b2Body7GetNextEv", metadata !4, i32 366, metadata !1497, i1 false, i1 false, i32 0, i32 0, null, i32 256, i1 false, null, null, i32 0, metadata !1499} ; [ DW_TAG_subprogram ]
!1497 = metadata !{i32 720917, i32 0, metadata !"", i32 0, i32 0, i64 0, i64 0, i32 0, i32 0, i32 0, metadata !1498, i32 0, i32 0} ; [ DW_TAG_subroutine_type ]
!1498 = metadata !{metadata !854, metadata !1298}
!1499 = metadata !{metadata !1500}
!1500 = metadata !{i32 720932}                    ; [ DW_TAG_base_type ]
!1501 = metadata !{i32 720942, i32 0, metadata !721, metadata !"GetUserData", metadata !"GetUserData", metadata !"_ZNK6b2Body11GetUserDataEv", metadata !4, i32 369, metadata !1502, i1 false, i1 false, i32 0, i32 0, null, i32 256, i1 false, null, null, i32 0, metadata !1504} ; [ DW_TAG_subprogram ]
!1502 = metadata !{i32 720917, i32 0, metadata !"", i32 0, i32 0, i64 0, i64 0, i32 0, i32 0, i32 0, metadata !1503, i32 0, i32 0} ; [ DW_TAG_subroutine_type ]
!1503 = metadata !{metadata !62, metadata !1298}
!1504 = metadata !{metadata !1505}
!1505 = metadata !{i32 720932}                    ; [ DW_TAG_base_type ]
!1506 = metadata !{i32 720942, i32 0, metadata !721, metadata !"SetUserData", metadata !"SetUserData", metadata !"_ZN6b2Body11SetUserDataEPv", metadata !4, i32 372, metadata !1507, i1 false, i1 false, i32 0, i32 0, null, i32 256, i1 false, null, null, i32 0, metadata !1509} ; [ DW_TAG_subprogram ]
!1507 = metadata !{i32 720917, i32 0, metadata !"", i32 0, i32 0, i64 0, i64 0, i32 0, i32 0, i32 0, metadata !1508, i32 0, i32 0} ; [ DW_TAG_subroutine_type ]
!1508 = metadata !{null, metadata !1277, metadata !62}
!1509 = metadata !{metadata !1510}
!1510 = metadata !{i32 720932}                    ; [ DW_TAG_base_type ]
!1511 = metadata !{i32 720942, i32 0, metadata !721, metadata !"GetWorld", metadata !"GetWorld", metadata !"_ZN6b2Body8GetWorldEv", metadata !4, i32 375, metadata !1512, i1 false, i1 false, i32 0, i32 0, null, i32 256, i1 false, null, null, i32 0, metadata !1514} ; [ DW_TAG_subprogram ]
!1512 = metadata !{i32 720917, i32 0, metadata !"", i32 0, i32 0, i64 0, i64 0, i32 0, i32 0, i32 0, metadata !1513, i32 0, i32 0} ; [ DW_TAG_subroutine_type ]
!1513 = metadata !{metadata !761, metadata !1277}
!1514 = metadata !{metadata !1515}
!1515 = metadata !{i32 720932}                    ; [ DW_TAG_base_type ]
!1516 = metadata !{i32 720942, i32 0, metadata !721, metadata !"GetWorld", metadata !"GetWorld", metadata !"_ZNK6b2Body8GetWorldEv", metadata !4, i32 376, metadata !1517, i1 false, i1 false, i32 0, i32 0, null, i32 256, i1 false, null, null, i32 0, metadata !1521} ; [ DW_TAG_subprogram ]
!1517 = metadata !{i32 720917, i32 0, metadata !"", i32 0, i32 0, i64 0, i64 0, i32 0, i32 0, i32 0, metadata !1518, i32 0, i32 0} ; [ DW_TAG_subroutine_type ]
!1518 = metadata !{metadata !1519, metadata !1298}
!1519 = metadata !{i32 720911, null, metadata !"", null, i32 0, i64 32, i64 32, i64 0, i32 0, metadata !1520} ; [ DW_TAG_pointer_type ]
!1520 = metadata !{i32 720934, null, metadata !"", null, i32 0, i64 0, i64 0, i64 0, i32 0, metadata !436} ; [ DW_TAG_const_type ]
!1521 = metadata !{metadata !1522}
!1522 = metadata !{i32 720932}                    ; [ DW_TAG_base_type ]
!1523 = metadata !{i32 720942, i32 0, metadata !721, metadata !"Dump", metadata !"Dump", metadata !"_ZN6b2Body4DumpEv", metadata !4, i32 379, metadata !1371, i1 false, i1 false, i32 0, i32 0, null, i32 256, i1 false, null, null, i32 0, metadata !1524} ; [ DW_TAG_subprogram ]
!1524 = metadata !{metadata !1525}
!1525 = metadata !{i32 720932}                    ; [ DW_TAG_base_type ]
!1526 = metadata !{i32 720942, i32 0, metadata !721, metadata !"b2Body", metadata !"b2Body", metadata !"", metadata !4, i32 412, metadata !1527, i1 false, i1 false, i32 0, i32 0, null, i32 257, i1 false, null, null, i32 0, metadata !1553} ; [ DW_TAG_subprogram ]
!1527 = metadata !{i32 720917, i32 0, metadata !"", i32 0, i32 0, i64 0, i64 0, i32 0, i32 0, i32 0, metadata !1528, i32 0, i32 0} ; [ DW_TAG_subroutine_type ]
!1528 = metadata !{null, metadata !1277, metadata !1529, metadata !761}
!1529 = metadata !{i32 720911, null, metadata !"", null, i32 0, i64 32, i64 32, i64 0, i32 0, metadata !1530} ; [ DW_TAG_pointer_type ]
!1530 = metadata !{i32 720934, null, metadata !"", null, i32 0, i64 0, i64 0, i64 0, i32 0, metadata !1531} ; [ DW_TAG_const_type ]
!1531 = metadata !{i32 720898, null, metadata !"b2BodyDef", metadata !4, i32 51, i64 416, i64 32, i32 0, i32 0, null, metadata !1532, i32 0, null, null} ; [ DW_TAG_class_type ]
!1532 = metadata !{metadata !1533, metadata !1534, metadata !1535, metadata !1536, metadata !1537, metadata !1538, metadata !1539, metadata !1540, metadata !1541, metadata !1542, metadata !1543, metadata !1544, metadata !1545, metadata !1546, metadata !1547}
!1533 = metadata !{i32 720909, metadata !1531, metadata !"type", metadata !4, i32 74, i64 32, i64 32, i64 0, i32 0, metadata !3} ; [ DW_TAG_member ]
!1534 = metadata !{i32 720909, metadata !1531, metadata !"position", metadata !4, i32 78, i64 64, i64 32, i64 32, i32 0, metadata !94} ; [ DW_TAG_member ]
!1535 = metadata !{i32 720909, metadata !1531, metadata !"angle", metadata !4, i32 81, i64 32, i64 32, i64 96, i32 0, metadata !21} ; [ DW_TAG_member ]
!1536 = metadata !{i32 720909, metadata !1531, metadata !"linearVelocity", metadata !4, i32 84, i64 64, i64 32, i64 128, i32 0, metadata !94} ; [ DW_TAG_member ]
!1537 = metadata !{i32 720909, metadata !1531, metadata !"angularVelocity", metadata !4, i32 87, i64 32, i64 32, i64 192, i32 0, metadata !21} ; [ DW_TAG_member ]
!1538 = metadata !{i32 720909, metadata !1531, metadata !"linearDamping", metadata !4, i32 92, i64 32, i64 32, i64 224, i32 0, metadata !21} ; [ DW_TAG_member ]
!1539 = metadata !{i32 720909, metadata !1531, metadata !"angularDamping", metadata !4, i32 97, i64 32, i64 32, i64 256, i32 0, metadata !21} ; [ DW_TAG_member ]
!1540 = metadata !{i32 720909, metadata !1531, metadata !"allowSleep", metadata !4, i32 101, i64 8, i64 8, i64 288, i32 0, metadata !88} ; [ DW_TAG_member ]
!1541 = metadata !{i32 720909, metadata !1531, metadata !"awake", metadata !4, i32 104, i64 8, i64 8, i64 296, i32 0, metadata !88} ; [ DW_TAG_member ]
!1542 = metadata !{i32 720909, metadata !1531, metadata !"fixedRotation", metadata !4, i32 107, i64 8, i64 8, i64 304, i32 0, metadata !88} ; [ DW_TAG_member ]
!1543 = metadata !{i32 720909, metadata !1531, metadata !"bullet", metadata !4, i32 113, i64 8, i64 8, i64 312, i32 0, metadata !88} ; [ DW_TAG_member ]
!1544 = metadata !{i32 720909, metadata !1531, metadata !"active", metadata !4, i32 116, i64 8, i64 8, i64 320, i32 0, metadata !88} ; [ DW_TAG_member ]
!1545 = metadata !{i32 720909, metadata !1531, metadata !"userData", metadata !4, i32 119, i64 32, i64 32, i64 352, i32 0, metadata !62} ; [ DW_TAG_member ]
!1546 = metadata !{i32 720909, metadata !1531, metadata !"gravityScale", metadata !4, i32 122, i64 32, i64 32, i64 384, i32 0, metadata !21} ; [ DW_TAG_member ]
!1547 = metadata !{i32 720942, i32 0, metadata !1531, metadata !"b2BodyDef", metadata !"b2BodyDef", metadata !"", metadata !4, i32 54, metadata !1548, i1 false, i1 false, i32 0, i32 0, null, i32 256, i1 false, null, null, i32 0, metadata !1551} ; [ DW_TAG_subprogram ]
!1548 = metadata !{i32 720917, i32 0, metadata !"", i32 0, i32 0, i64 0, i64 0, i32 0, i32 0, i32 0, metadata !1549, i32 0, i32 0} ; [ DW_TAG_subroutine_type ]
!1549 = metadata !{null, metadata !1550}
!1550 = metadata !{i32 720911, i32 0, metadata !"", i32 0, i32 0, i64 32, i64 32, i64 0, i32 64, metadata !1531} ; [ DW_TAG_pointer_type ]
!1551 = metadata !{metadata !1552}
!1552 = metadata !{i32 720932}                    ; [ DW_TAG_base_type ]
!1553 = metadata !{metadata !1554}
!1554 = metadata !{i32 720932}                    ; [ DW_TAG_base_type ]
!1555 = metadata !{i32 720942, i32 0, metadata !721, metadata !"~b2Body", metadata !"~b2Body", metadata !"", metadata !4, i32 413, metadata !1371, i1 false, i1 false, i32 0, i32 0, null, i32 257, i1 false, null, null, i32 0, metadata !1556} ; [ DW_TAG_subprogram ]
!1556 = metadata !{metadata !1557}
!1557 = metadata !{i32 720932}                    ; [ DW_TAG_base_type ]
!1558 = metadata !{i32 720942, i32 0, metadata !721, metadata !"SynchronizeFixtures", metadata !"SynchronizeFixtures", metadata !"_ZN6b2Body19SynchronizeFixturesEv", metadata !4, i32 415, metadata !1371, i1 false, i1 false, i32 0, i32 0, null, i32 257, i1 false, null, null, i32 0, metadata !1559} ; [ DW_TAG_subprogram ]
!1559 = metadata !{metadata !1560}
!1560 = metadata !{i32 720932}                    ; [ DW_TAG_base_type ]
!1561 = metadata !{i32 720942, i32 0, metadata !721, metadata !"SynchronizeTransform", metadata !"SynchronizeTransform", metadata !"_ZN6b2Body20SynchronizeTransformEv", metadata !4, i32 416, metadata !1371, i1 false, i1 false, i32 0, i32 0, null, i32 257, i1 false, null, null, i32 0, metadata !1562} ; [ DW_TAG_subprogram ]
!1562 = metadata !{metadata !1563}
!1563 = metadata !{i32 720932}                    ; [ DW_TAG_base_type ]
!1564 = metadata !{i32 720942, i32 0, metadata !721, metadata !"ShouldCollide", metadata !"ShouldCollide", metadata !"_ZNK6b2Body13ShouldCollideEPKS_", metadata !4, i32 420, metadata !1565, i1 false, i1 false, i32 0, i32 0, null, i32 257, i1 false, null, null, i32 0, metadata !1567} ; [ DW_TAG_subprogram ]
!1565 = metadata !{i32 720917, i32 0, metadata !"", i32 0, i32 0, i64 0, i64 0, i32 0, i32 0, i32 0, metadata !1566, i32 0, i32 0} ; [ DW_TAG_subroutine_type ]
!1566 = metadata !{metadata !88, metadata !1298, metadata !1298}
!1567 = metadata !{metadata !1568}
!1568 = metadata !{i32 720932}                    ; [ DW_TAG_base_type ]
!1569 = metadata !{i32 720942, i32 0, metadata !721, metadata !"Advance", metadata !"Advance", metadata !"_ZN6b2Body7AdvanceEf", metadata !4, i32 422, metadata !1328, i1 false, i1 false, i32 0, i32 0, null, i32 257, i1 false, null, null, i32 0, metadata !1570} ; [ DW_TAG_subprogram ]
!1570 = metadata !{metadata !1571}
!1571 = metadata !{i32 720932}                    ; [ DW_TAG_base_type ]
!1572 = metadata !{i32 720938, metadata !721, null, metadata !4, i32 0, i64 0, i64 0, i64 0, i32 0, metadata !1573} ; [ DW_TAG_friend ]
!1573 = metadata !{i32 720898, null, metadata !"b2RopeJoint", metadata !1574, i32 58, i64 1344, i64 32, i32 0, i32 0, null, metadata !1575, i32 0, metadata !982, null} ; [ DW_TAG_class_type ]
!1574 = metadata !{i32 720937, metadata !"./Box2D/Dynamics/Joints/b2RopeJoint.h", metadata !"/home/bxl/nacl-app/fruit-click-read-only/fruitclick-nacl", null} ; [ DW_TAG_file_type ]
!1575 = metadata !{metadata !1576, metadata !1577, metadata !1578, metadata !1579, metadata !1580, metadata !1581, metadata !1582, metadata !1583, metadata !1584, metadata !1585, metadata !1586, metadata !1587, metadata !1588, metadata !1589, metadata !1590, metadata !1591, metadata !1592, metadata !1593, metadata !1594, metadata !1595, metadata !1602, metadata !1605, metadata !1610, metadata !1615, metadata !1620, metadata !1623, metadata !1629, metadata !1634, metadata !1639, metadata !1644, metadata !1663, metadata !1668, metadata !1671, metadata !1676}
!1576 = metadata !{i32 720924, metadata !1573, null, metadata !1574, i32 0, i64 0, i64 0, i64 0, i32 0, metadata !982} ; [ DW_TAG_inheritance ]
!1577 = metadata !{i32 720909, metadata !1573, metadata !"m_localAnchorA", metadata !1574, i32 92, i64 64, i64 32, i64 544, i32 2, metadata !94} ; [ DW_TAG_member ]
!1578 = metadata !{i32 720909, metadata !1573, metadata !"m_localAnchorB", metadata !1574, i32 93, i64 64, i64 32, i64 608, i32 2, metadata !94} ; [ DW_TAG_member ]
!1579 = metadata !{i32 720909, metadata !1573, metadata !"m_maxLength", metadata !1574, i32 94, i64 32, i64 32, i64 672, i32 2, metadata !21} ; [ DW_TAG_member ]
!1580 = metadata !{i32 720909, metadata !1573, metadata !"m_length", metadata !1574, i32 95, i64 32, i64 32, i64 704, i32 2, metadata !21} ; [ DW_TAG_member ]
!1581 = metadata !{i32 720909, metadata !1573, metadata !"m_impulse", metadata !1574, i32 96, i64 32, i64 32, i64 736, i32 2, metadata !21} ; [ DW_TAG_member ]
!1582 = metadata !{i32 720909, metadata !1573, metadata !"m_indexA", metadata !1574, i32 99, i64 32, i64 32, i64 768, i32 2, metadata !43} ; [ DW_TAG_member ]
!1583 = metadata !{i32 720909, metadata !1573, metadata !"m_indexB", metadata !1574, i32 100, i64 32, i64 32, i64 800, i32 2, metadata !43} ; [ DW_TAG_member ]
!1584 = metadata !{i32 720909, metadata !1573, metadata !"m_u", metadata !1574, i32 101, i64 64, i64 32, i64 832, i32 2, metadata !94} ; [ DW_TAG_member ]
!1585 = metadata !{i32 720909, metadata !1573, metadata !"m_rA", metadata !1574, i32 102, i64 64, i64 32, i64 896, i32 2, metadata !94} ; [ DW_TAG_member ]
!1586 = metadata !{i32 720909, metadata !1573, metadata !"m_rB", metadata !1574, i32 103, i64 64, i64 32, i64 960, i32 2, metadata !94} ; [ DW_TAG_member ]
!1587 = metadata !{i32 720909, metadata !1573, metadata !"m_localCenterA", metadata !1574, i32 104, i64 64, i64 32, i64 1024, i32 2, metadata !94} ; [ DW_TAG_member ]
!1588 = metadata !{i32 720909, metadata !1573, metadata !"m_localCenterB", metadata !1574, i32 105, i64 64, i64 32, i64 1088, i32 2, metadata !94} ; [ DW_TAG_member ]
!1589 = metadata !{i32 720909, metadata !1573, metadata !"m_invMassA", metadata !1574, i32 106, i64 32, i64 32, i64 1152, i32 2, metadata !21} ; [ DW_TAG_member ]
!1590 = metadata !{i32 720909, metadata !1573, metadata !"m_invMassB", metadata !1574, i32 107, i64 32, i64 32, i64 1184, i32 2, metadata !21} ; [ DW_TAG_member ]
!1591 = metadata !{i32 720909, metadata !1573, metadata !"m_invIA", metadata !1574, i32 108, i64 32, i64 32, i64 1216, i32 2, metadata !21} ; [ DW_TAG_member ]
