; ModuleID = 'application.cpp'
target datalayout = "e-p:32:32:32-i1:8:8-i8:8:8-i16:16:16-i32:32:32-i64:32:64-f32:32:32-f64:32:64-v64:64:64-v128:128:128-a0:0:64-f80:32:32-n8:16:32-S128"
target triple = "i386-pc-linux-gnu"

%"class.FruitClick::Application" = type { %class.b2ContactListener, %class.b2QueryCallback, %class.b2World, i32, i32, %"class.std::set", %"class.std::vector", i32, i32, %"class.FruitClick::Grass", %"class.FruitClick::Bound", %"class.FruitClick::Bound" }
%class.b2ContactListener = type { i32 (...)** }
%class.b2QueryCallback = type { i32 (...)** }
%class.b2World = type { %class.b2BlockAllocator, %class.b2StackAllocator, i32, %class.b2ContactManager, %class.b2Body*, %class.b2Joint*, i32, i32, %struct.b2Vec2, i8, %class.b2DestructionListener*, %class.b2Draw*, float, i8, i8, i8, i8, %struct.b2Profile }
%class.b2BlockAllocator = type { %struct.b2Chunk*, i32, i32, [14 x %struct.b2Block*] }
%struct.b2Chunk = type opaque
%struct.b2Block = type opaque
%class.b2StackAllocator = type { [102400 x i8], i32, i32, i32, [32 x %struct.b2StackEntry], i32 }
%struct.b2StackEntry = type { i8*, i32, i8 }
%class.b2ContactManager = type { %class.b2BroadPhase, %class.b2Contact*, i32, %class.b2ContactFilter*, %class.b2ContactListener*, %class.b2BlockAllocator* }
%class.b2BroadPhase = type { %class.b2DynamicTree, i32, i32*, i32, i32, %struct.b2Pair*, i32, i32, i32 }
%class.b2DynamicTree = type { i32, %struct.b2TreeNode*, i32, i32, i32, i32, i32 }
%struct.b2TreeNode = type { %struct.b2AABB, i8*, %union.anon, i32, i32, i32 }
%struct.b2AABB = type { %struct.b2Vec2, %struct.b2Vec2 }
%struct.b2Vec2 = type { float, float }
%union.anon = type { i32 }
%struct.b2Pair = type { i32, i32, i32 }
%class.b2Contact = type { i32 (...)**, i32, %class.b2Contact*, %class.b2Contact*, %struct.b2ContactEdge, %struct.b2ContactEdge, %class.b2Fixture*, %class.b2Fixture*, i32, i32, %struct.b2Manifold, i32, float, float, float }
%struct.b2ContactEdge = type { %class.b2Body*, %class.b2Contact*, %struct.b2ContactEdge*, %struct.b2ContactEdge* }
%class.b2Body = type { i32, i16, i32, %struct.b2Transform, %struct.b2Sweep, %struct.b2Vec2, float, %struct.b2Vec2, float, %class.b2World*, %class.b2Body*, %class.b2Body*, %class.b2Fixture*, i32, %struct.b2JointEdge*, %struct.b2ContactEdge*, float, float, float, float, float, float, float, float, i8* }
%struct.b2Transform = type { %struct.b2Vec2, %struct.b2Rot }
%struct.b2Rot = type { float, float }
%struct.b2Sweep = type { %struct.b2Vec2, %struct.b2Vec2, %struct.b2Vec2, float, float, float }
%class.b2Fixture = type { float, %class.b2Fixture*, %class.b2Body*, %class.b2Shape*, float, float, %struct.b2FixtureProxy*, i32, %struct.b2Filter, i8, i8* }
%class.b2Shape = type { i32 (...)**, i32, float }
%struct.b2FixtureProxy = type { %struct.b2AABB, %class.b2Fixture*, i32, i32 }
%struct.b2Filter = type { i16, i16, i16 }
%struct.b2JointEdge = type { %class.b2Body*, %class.b2Joint*, %struct.b2JointEdge*, %struct.b2JointEdge* }
%class.b2Joint = type { i32 (...)**, i32, %class.b2Joint*, %class.b2Joint*, %struct.b2JointEdge, %struct.b2JointEdge, %class.b2Body*, %class.b2Body*, i32, i8, i8, i8* }
%struct.b2Manifold = type { [2 x %struct.b2ManifoldPoint], %struct.b2Vec2, %struct.b2Vec2, i32, i32 }
%struct.b2ManifoldPoint = type { %struct.b2Vec2, float, float, %union.b2ContactID }
%union.b2ContactID = type { i32 }
%class.b2ContactFilter = type { i32 (...)** }
%class.b2DestructionListener = type { i32 (...)** }
%class.b2Draw = type { i32 (...)**, i32 }
%struct.b2Profile = type { float, float, float, float, float, float, float, float }
%"class.std::set" = type { %"class.std::_Rb_tree" }
%"class.std::_Rb_tree" = type { %"struct.std::_Rb_tree<FruitClick::Apple *, FruitClick::Apple *, std::_Identity<FruitClick::Apple *>, std::less<FruitClick::Apple *>, std::allocator<FruitClick::Apple *> >::_Rb_tree_impl" }
%"struct.std::_Rb_tree<FruitClick::Apple *, FruitClick::Apple *, std::_Identity<FruitClick::Apple *>, std::less<FruitClick::Apple *>, std::allocator<FruitClick::Apple *> >::_Rb_tree_impl" = type { %"struct.std::less", %"struct.std::_Rb_tree_node_base", i32 }
%"struct.std::less" = type { i8 }
%"struct.std::_Rb_tree_node_base" = type { i32, %"struct.std::_Rb_tree_node_base"*, %"struct.std::_Rb_tree_node_base"*, %"struct.std::_Rb_tree_node_base"* }
%"class.std::vector" = type { %"struct.std::_Vector_base" }
%"struct.std::_Vector_base" = type { %"struct.std::_Vector_base<FruitClick::Apple *, std::allocator<FruitClick::Apple *> >::_Vector_impl" }
%"struct.std::_Vector_base<FruitClick::Apple *, std::allocator<FruitClick::Apple *> >::_Vector_impl" = type { %"class.FruitClick::Apple"**, %"class.FruitClick::Apple"**, %"class.FruitClick::Apple"** }
%"class.FruitClick::Apple" = type { %"class.FruitClick::B2DObject" }
%"class.FruitClick::B2DObject" = type { i32 (...)**, %class.b2World*, %class.b2Body* }
%"class.FruitClick::Grass" = type { %"class.FruitClick::B2DObject" }
%"class.FruitClick::Bound" = type { %"class.FruitClick::B2DObject" }
%"struct.std::_Rb_tree_const_iterator" = type { %"struct.std::_Rb_tree_node_base"* }
%"struct.std::_Rb_tree_node" = type { %"struct.std::_Rb_tree_node_base", %"class.FruitClick::Apple"* }
%"class.std::basic_string" = type { %"struct.std::basic_string<char, std::char_traits<char>, std::allocator<char> >::_Alloc_hider" }
%"struct.std::basic_string<char, std::char_traits<char>, std::allocator<char> >::_Alloc_hider" = type { i8* }
%"class.std::allocator.3" = type { i8 }
%"struct.std::pair" = type { %"struct.std::_Rb_tree_const_iterator", i8 }
%"struct.std::pair.7" = type { %"struct.std::_Rb_tree_iterator", i8 }
%"struct.std::_Rb_tree_iterator" = type { %"struct.std::_Rb_tree_node_base"* }
%"class.__gnu_cxx::__normal_iterator" = type { %"class.FruitClick::Apple"** }
%"class.__gnu_cxx::new_allocator.1" = type { i8 }
%struct.b2ContactImpulse = type { [2 x float], [2 x float], i32 }
%"class.std::allocator.0" = type { i8 }
%"struct.std::pair.6" = type { %"struct.std::_Rb_tree_iterator", %"struct.std::_Rb_tree_iterator" }
%"class.std::allocator" = type { i8 }
%"class.__gnu_cxx::new_allocator" = type { i8 }
%"struct.std::_Identity" = type { i8 }

@_ZTVN10FruitClick11ApplicationE = unnamed_addr constant [14 x i8*] [i8* null, i8* bitcast ({ i8*, i8*, i32, i32, i8*, i32, i8*, i32 }* @_ZTIN10FruitClick11ApplicationE to i8*), i8* bitcast (void (%"class.FruitClick::Application"*)* @_ZN10FruitClick11ApplicationD1Ev to i8*), i8* bitcast (void (%"class.FruitClick::Application"*)* @_ZN10FruitClick11ApplicationD0Ev to i8*), i8* bitcast (void (%"class.FruitClick::Application"*, %class.b2Contact*)* @_ZN10FruitClick11Application12BeginContactEP9b2Contact to i8*), i8* bitcast (void (%class.b2ContactListener*, %class.b2Contact*)* @_ZN17b2ContactListener10EndContactEP9b2Contact to i8*), i8* bitcast (void (%class.b2ContactListener*, %class.b2Contact*, %struct.b2Manifold*)* @_ZN17b2ContactListener8PreSolveEP9b2ContactPK10b2Manifold to i8*), i8* bitcast (void (%class.b2ContactListener*, %class.b2Contact*, %struct.b2ContactImpulse*)* @_ZN17b2ContactListener9PostSolveEP9b2ContactPK16b2ContactImpulse to i8*), i8* bitcast (i1 (%"class.FruitClick::Application"*, %class.b2Fixture*)* @_ZN10FruitClick11Application13ReportFixtureEP9b2Fixture to i8*), i8* inttoptr (i32 -4 to i8*), i8* bitcast ({ i8*, i8*, i32, i32, i8*, i32, i8*, i32 }* @_ZTIN10FruitClick11ApplicationE to i8*), i8* bitcast (void (%"class.FruitClick::Application"*)* @_ZThn4_N10FruitClick11ApplicationD1Ev to i8*), i8* bitcast (void (%"class.FruitClick::Application"*)* @_ZThn4_N10FruitClick11ApplicationD0Ev to i8*), i8* bitcast (i1 (%"class.FruitClick::Application"*, %class.b2Fixture*)* @_ZThn4_N10FruitClick11Application13ReportFixtureEP9b2Fixture to i8*)]
@.str = private unnamed_addr constant [8 x i8] c"Score: \00", align 1
@.str1 = private unnamed_addr constant [8 x i8] c"Lives: \00", align 1
@.str2 = private unnamed_addr constant [7 x i8] c"Danger\00", align 1
@_ZTIN10FruitClick9B2DObjectE = external constant i8*
@_ZTVN10__cxxabiv120__si_class_type_infoE = external global i8*
@_ZTSN10FruitClick5AppleE = linkonce_odr constant [21 x i8] c"N10FruitClick5AppleE\00"
@_ZTIN10FruitClick5AppleE = linkonce_odr unnamed_addr constant { i8*, i8*, i8* } { i8* bitcast (i8** getelementptr inbounds (i8** @_ZTVN10__cxxabiv120__si_class_type_infoE, i32 2) to i8*), i8* getelementptr inbounds ([21 x i8]* @_ZTSN10FruitClick5AppleE, i32 0, i32 0), i8* bitcast (i8** @_ZTIN10FruitClick9B2DObjectE to i8*) }
@_ZTSN10FruitClick5GrassE = linkonce_odr constant [21 x i8] c"N10FruitClick5GrassE\00"
@_ZTIN10FruitClick5GrassE = linkonce_odr unnamed_addr constant { i8*, i8*, i8* } { i8* bitcast (i8** getelementptr inbounds (i8** @_ZTVN10__cxxabiv120__si_class_type_infoE, i32 2) to i8*), i8* getelementptr inbounds ([21 x i8]* @_ZTSN10FruitClick5GrassE, i32 0, i32 0), i8* bitcast (i8** @_ZTIN10FruitClick9B2DObjectE to i8*) }
@_ZTVN10__cxxabiv121__vmi_class_type_infoE = external global i8*
@_ZTSN10FruitClick11ApplicationE = constant [28 x i8] c"N10FruitClick11ApplicationE\00"
@_ZTVN10__cxxabiv117__class_type_infoE = external global i8*
@_ZTS17b2ContactListener = linkonce_odr constant [20 x i8] c"17b2ContactListener\00"
@_ZTI17b2ContactListener = linkonce_odr unnamed_addr constant { i8*, i8* } { i8* bitcast (i8** getelementptr inbounds (i8** @_ZTVN10__cxxabiv117__class_type_infoE, i32 2) to i8*), i8* getelementptr inbounds ([20 x i8]* @_ZTS17b2ContactListener, i32 0, i32 0) }
@_ZTS15b2QueryCallback = linkonce_odr constant [18 x i8] c"15b2QueryCallback\00"
@_ZTI15b2QueryCallback = linkonce_odr unnamed_addr constant { i8*, i8* } { i8* bitcast (i8** getelementptr inbounds (i8** @_ZTVN10__cxxabiv117__class_type_infoE, i32 2) to i8*), i8* getelementptr inbounds ([18 x i8]* @_ZTS15b2QueryCallback, i32 0, i32 0) }
@_ZTIN10FruitClick11ApplicationE = unnamed_addr constant { i8*, i8*, i32, i32, i8*, i32, i8*, i32 } { i8* bitcast (i8** getelementptr inbounds (i8** @_ZTVN10__cxxabiv121__vmi_class_type_infoE, i32 2) to i8*), i8* getelementptr inbounds ([28 x i8]* @_ZTSN10FruitClick11ApplicationE, i32 0, i32 0), i32 0, i32 2, i8* bitcast ({ i8*, i8* }* @_ZTI17b2ContactListener to i8*), i32 2, i8* bitcast ({ i8*, i8* }* @_ZTI15b2QueryCallback to i8*), i32 1026 }
@.str3 = private unnamed_addr constant [22 x i8] c"vector::_M_insert_aux\00", align 1
@_ZTV15b2QueryCallback = linkonce_odr unnamed_addr constant [5 x i8*] [i8* null, i8* bitcast ({ i8*, i8* }* @_ZTI15b2QueryCallback to i8*), i8* bitcast (void (%class.b2QueryCallback*)* @_ZN15b2QueryCallbackD1Ev to i8*), i8* bitcast (void (%class.b2QueryCallback*)* @_ZN15b2QueryCallbackD0Ev to i8*), i8* bitcast (void ()* @__cxa_pure_virtual to i8*)]
@_ZTV17b2ContactListener = linkonce_odr unnamed_addr constant [8 x i8*] [i8* null, i8* bitcast ({ i8*, i8* }* @_ZTI17b2ContactListener to i8*), i8* bitcast (void (%class.b2ContactListener*)* @_ZN17b2ContactListenerD1Ev to i8*), i8* bitcast (void (%class.b2ContactListener*)* @_ZN17b2ContactListenerD0Ev to i8*), i8* bitcast (void (%class.b2ContactListener*, %class.b2Contact*)* @_ZN17b2ContactListener12BeginContactEP9b2Contact to i8*), i8* bitcast (void (%class.b2ContactListener*, %class.b2Contact*)* @_ZN17b2ContactListener10EndContactEP9b2Contact to i8*), i8* bitcast (void (%class.b2ContactListener*, %class.b2Contact*, %struct.b2Manifold*)* @_ZN17b2ContactListener8PreSolveEP9b2ContactPK10b2Manifold to i8*), i8* bitcast (void (%class.b2ContactListener*, %class.b2Contact*, %struct.b2ContactImpulse*)* @_ZN17b2ContactListener9PostSolveEP9b2ContactPK16b2ContactImpulse to i8*)]

@_ZN10FruitClick11ApplicationC1Ev = alias void (%"class.FruitClick::Application"*)* @_ZN10FruitClick11ApplicationC2Ev
@_ZN10FruitClick11ApplicationD1Ev = alias void (%"class.FruitClick::Application"*)* @_ZN10FruitClick11ApplicationD2Ev

define void @_ZN10FruitClick11ApplicationC2Ev(%"class.FruitClick::Application"* %this) unnamed_addr align 2 {
  %1 = alloca %"class.FruitClick::Application"*, align 4
  %2 = alloca %struct.b2Vec2, align 4
  %3 = alloca i8*
  %4 = alloca i32
  store %"class.FruitClick::Application"* %this, %"class.FruitClick::Application"** %1, align 4
  call void @llvm.dbg.declare(metadata !{%"class.FruitClick::Application"** %1}, metadata !6604), !dbg !6605
  %5 = load %"class.FruitClick::Application"** %1
  %6 = bitcast %"class.FruitClick::Application"* %5 to %class.b2ContactListener*, !dbg !6606
  call void @_ZN17b2ContactListenerC2Ev(%class.b2ContactListener* %6) nounwind, !dbg !6606
  %7 = bitcast %"class.FruitClick::Application"* %5 to i8*, !dbg !6606
  %8 = getelementptr inbounds i8* %7, i64 4, !dbg !6606
  %9 = bitcast i8* %8 to %class.b2QueryCallback*, !dbg !6606
  call void @_ZN15b2QueryCallbackC2Ev(%class.b2QueryCallback* %9) nounwind, !dbg !6606
  %10 = bitcast %"class.FruitClick::Application"* %5 to i8***, !dbg !6606
  store i8** getelementptr inbounds ([14 x i8*]* @_ZTVN10FruitClick11ApplicationE, i64 0, i64 2), i8*** %10, !dbg !6606
  %11 = bitcast %"class.FruitClick::Application"* %5 to i8*, !dbg !6606
  %12 = getelementptr i8* %11, i32 4, !dbg !6606
  %13 = bitcast i8* %12 to i8***, !dbg !6606
  store i8** getelementptr inbounds ([14 x i8*]* @_ZTVN10FruitClick11ApplicationE, i64 0, i64 11), i8*** %13, !dbg !6606
  %14 = getelementptr inbounds %"class.FruitClick::Application"* %5, i32 0, i32 2, !dbg !6606
  invoke void @_ZN6b2Vec2C1Eff(%struct.b2Vec2* %2, float 0.000000e+00, float -2.000000e+00)
          to label %15 unwind label %54, !dbg !6606

; <label>:15                                      ; preds = %0
  invoke void @_ZN7b2WorldC1ERK6b2Vec2(%class.b2World* %14, %struct.b2Vec2* %2)
          to label %16 unwind label %54, !dbg !6606

; <label>:16                                      ; preds = %15
  %17 = getelementptr inbounds %"class.FruitClick::Application"* %5, i32 0, i32 3, !dbg !6606
  store i32 0, i32* %17, align 4, !dbg !6606
  %18 = getelementptr inbounds %"class.FruitClick::Application"* %5, i32 0, i32 4, !dbg !6606
  store i32 100, i32* %18, align 4, !dbg !6606
  %19 = getelementptr inbounds %"class.FruitClick::Application"* %5, i32 0, i32 5, !dbg !6606
  invoke void @_ZNSt3setIPN10FruitClick5AppleESt4lessIS2_ESaIS2_EEC1Ev(%"class.std::set"* %19)
          to label %20 unwind label %58, !dbg !6606

; <label>:20                                      ; preds = %16
  %21 = getelementptr inbounds %"class.FruitClick::Application"* %5, i32 0, i32 6, !dbg !6606
  invoke void @_ZNSt6vectorIPN10FruitClick5AppleESaIS2_EEC1Ev(%"class.std::vector"* %21)
          to label %22 unwind label %62, !dbg !6606

; <label>:22                                      ; preds = %20
  %23 = getelementptr inbounds %"class.FruitClick::Application"* %5, i32 0, i32 7, !dbg !6606
  store i32 0, i32* %23, align 4, !dbg !6606
  %24 = getelementptr inbounds %"class.FruitClick::Application"* %5, i32 0, i32 8, !dbg !6606
  store i32 10, i32* %24, align 4, !dbg !6606
  %25 = getelementptr inbounds %"class.FruitClick::Application"* %5, i32 0, i32 9, !dbg !6606
  %26 = getelementptr inbounds %"class.FruitClick::Application"* %5, i32 0, i32 2, !dbg !6606
  invoke void @_ZN10FruitClick5GrassC1ER7b2World(%"class.FruitClick::Grass"* %25, %class.b2World* %26)
          to label %27 unwind label %66, !dbg !6606

; <label>:27                                      ; preds = %22
  %28 = getelementptr inbounds %"class.FruitClick::Application"* %5, i32 0, i32 10, !dbg !6606
  %29 = getelementptr inbounds %"class.FruitClick::Application"* %5, i32 0, i32 2, !dbg !6606
  invoke void @_ZN10FruitClick5BoundC1ER7b2World(%"class.FruitClick::Bound"* %28, %class.b2World* %29)
          to label %30 unwind label %70, !dbg !6606

; <label>:30                                      ; preds = %27
  %31 = getelementptr inbounds %"class.FruitClick::Application"* %5, i32 0, i32 11, !dbg !6606
  %32 = getelementptr inbounds %"class.FruitClick::Application"* %5, i32 0, i32 2, !dbg !6606
  invoke void @_ZN10FruitClick5BoundC1ER7b2World(%"class.FruitClick::Bound"* %31, %class.b2World* %32)
          to label %33 unwind label %74, !dbg !6606

; <label>:33                                      ; preds = %30
  %34 = getelementptr inbounds %"class.FruitClick::Application"* %5, i32 0, i32 2, !dbg !6607
  %35 = bitcast %"class.FruitClick::Application"* %5 to %class.b2ContactListener*, !dbg !6607
  invoke void @_ZN7b2World18SetContactListenerEP17b2ContactListener(%class.b2World* %34, %class.b2ContactListener* %35)
          to label %36 unwind label %78, !dbg !6607

; <label>:36                                      ; preds = %33
  %37 = getelementptr inbounds %"class.FruitClick::Application"* %5, i32 0, i32 10, !dbg !6609
  %38 = bitcast %"class.FruitClick::Bound"* %37 to %"class.FruitClick::B2DObject"*, !dbg !6609
  %39 = invoke float @_ZN10FruitClick7toWorldEf(float 2.400000e+02)
          to label %40 unwind label %78, !dbg !6610

; <label>:40                                      ; preds = %36
  invoke void @_ZN10FruitClick9B2DObject11setPositionEff(%"class.FruitClick::B2DObject"* %38, float 0.000000e+00, float %39)
          to label %41 unwind label %78, !dbg !6610

; <label>:41                                      ; preds = %40
  %42 = getelementptr inbounds %"class.FruitClick::Application"* %5, i32 0, i32 11, !dbg !6611
  %43 = bitcast %"class.FruitClick::Bound"* %42 to %"class.FruitClick::B2DObject"*, !dbg !6611
  %44 = invoke float @_ZN10FruitClick7toWorldEf(float 3.200000e+02)
          to label %45 unwind label %78, !dbg !6612

; <label>:45                                      ; preds = %41
  %46 = invoke float @_ZN10FruitClick7toWorldEf(float 2.400000e+02)
          to label %47 unwind label %78, !dbg !6613

; <label>:47                                      ; preds = %45
  invoke void @_ZN10FruitClick9B2DObject11setPositionEff(%"class.FruitClick::B2DObject"* %43, float %44, float %46)
          to label %48 unwind label %78, !dbg !6613

; <label>:48                                      ; preds = %47
  %49 = getelementptr inbounds %"class.FruitClick::Application"* %5, i32 0, i32 9, !dbg !6614
  %50 = bitcast %"class.FruitClick::Grass"* %49 to %"class.FruitClick::B2DObject"*, !dbg !6614
  %51 = invoke float @_ZN10FruitClick7toWorldEf(float 1.600000e+02)
          to label %52 unwind label %78, !dbg !6615

; <label>:52                                      ; preds = %48
  invoke void @_ZN10FruitClick9B2DObject11setPositionEff(%"class.FruitClick::B2DObject"* %50, float %51, float 0.000000e+00)
          to label %53 unwind label %78, !dbg !6615

; <label>:53                                      ; preds = %52
  ret void, !dbg !6616

; <label>:54                                      ; preds = %15, %0
  %55 = landingpad { i8*, i32 } personality i8* bitcast (i32 (...)* @__gxx_personality_v0 to i8*)
          cleanup, !dbg !6606
  %56 = extractvalue { i8*, i32 } %55, 0, !dbg !6606
  store i8* %56, i8** %3, !dbg !6606
  %57 = extractvalue { i8*, i32 } %55, 1, !dbg !6606
  store i32 %57, i32* %4, !dbg !6606
  br label %99, !dbg !6606

; <label>:58                                      ; preds = %16
  %59 = landingpad { i8*, i32 } personality i8* bitcast (i32 (...)* @__gxx_personality_v0 to i8*)
          cleanup, !dbg !6606
  %60 = extractvalue { i8*, i32 } %59, 0, !dbg !6606
  store i8* %60, i8** %3, !dbg !6606
  %61 = extractvalue { i8*, i32 } %59, 1, !dbg !6606
  store i32 %61, i32* %4, !dbg !6606
  br label %96, !dbg !6606

; <label>:62                                      ; preds = %20
  %63 = landingpad { i8*, i32 } personality i8* bitcast (i32 (...)* @__gxx_personality_v0 to i8*)
          cleanup, !dbg !6606
  %64 = extractvalue { i8*, i32 } %63, 0, !dbg !6606
  store i8* %64, i8** %3, !dbg !6606
  %65 = extractvalue { i8*, i32 } %63, 1, !dbg !6606
  store i32 %65, i32* %4, !dbg !6606
  br label %93, !dbg !6606

; <label>:66                                      ; preds = %22
  %67 = landingpad { i8*, i32 } personality i8* bitcast (i32 (...)* @__gxx_personality_v0 to i8*)
          cleanup, !dbg !6606
  %68 = extractvalue { i8*, i32 } %67, 0, !dbg !6606
  store i8* %68, i8** %3, !dbg !6606
  %69 = extractvalue { i8*, i32 } %67, 1, !dbg !6606
  store i32 %69, i32* %4, !dbg !6606
  br label %90, !dbg !6606

; <label>:70                                      ; preds = %27
  %71 = landingpad { i8*, i32 } personality i8* bitcast (i32 (...)* @__gxx_personality_v0 to i8*)
          cleanup, !dbg !6606
  %72 = extractvalue { i8*, i32 } %71, 0, !dbg !6606
  store i8* %72, i8** %3, !dbg !6606
  %73 = extractvalue { i8*, i32 } %71, 1, !dbg !6606
  store i32 %73, i32* %4, !dbg !6606
  br label %87, !dbg !6606

; <label>:74                                      ; preds = %30
  %75 = landingpad { i8*, i32 } personality i8* bitcast (i32 (...)* @__gxx_personality_v0 to i8*)
          cleanup, !dbg !6606
  %76 = extractvalue { i8*, i32 } %75, 0, !dbg !6606
  store i8* %76, i8** %3, !dbg !6606
  %77 = extractvalue { i8*, i32 } %75, 1, !dbg !6606
  store i32 %77, i32* %4, !dbg !6606
  br label %84, !dbg !6606

; <label>:78                                      ; preds = %52, %48, %47, %45, %41, %40, %36, %33
  %79 = landingpad { i8*, i32 } personality i8* bitcast (i32 (...)* @__gxx_personality_v0 to i8*)
          cleanup, !dbg !6607
  %80 = extractvalue { i8*, i32 } %79, 0, !dbg !6607
  store i8* %80, i8** %3, !dbg !6607
  %81 = extractvalue { i8*, i32 } %79, 1, !dbg !6607
  store i32 %81, i32* %4, !dbg !6607
  %82 = getelementptr inbounds %"class.FruitClick::Application"* %5, i32 0, i32 11, !dbg !6616
  invoke void @_ZN10FruitClick5BoundD1Ev(%"class.FruitClick::Bound"* %82)
          to label %83 unwind label %112, !dbg !6616

; <label>:83                                      ; preds = %78
  br label %84, !dbg !6616

; <label>:84                                      ; preds = %83, %74
  %85 = getelementptr inbounds %"class.FruitClick::Application"* %5, i32 0, i32 10, !dbg !6616
  invoke void @_ZN10FruitClick5BoundD1Ev(%"class.FruitClick::Bound"* %85)
          to label %86 unwind label %112, !dbg !6616

; <label>:86                                      ; preds = %84
  br label %87, !dbg !6616

; <label>:87                                      ; preds = %86, %70
  %88 = getelementptr inbounds %"class.FruitClick::Application"* %5, i32 0, i32 9, !dbg !6616
  invoke void @_ZN10FruitClick5GrassD1Ev(%"class.FruitClick::Grass"* %88)
          to label %89 unwind label %112, !dbg !6616

; <label>:89                                      ; preds = %87
  br label %90, !dbg !6616

; <label>:90                                      ; preds = %89, %66
  %91 = getelementptr inbounds %"class.FruitClick::Application"* %5, i32 0, i32 6, !dbg !6616
  invoke void @_ZNSt6vectorIPN10FruitClick5AppleESaIS2_EED1Ev(%"class.std::vector"* %91)
          to label %92 unwind label %112, !dbg !6616

; <label>:92                                      ; preds = %90
  br label %93, !dbg !6616

; <label>:93                                      ; preds = %92, %62
  %94 = getelementptr inbounds %"class.FruitClick::Application"* %5, i32 0, i32 5, !dbg !6616
  invoke void @_ZNSt3setIPN10FruitClick5AppleESt4lessIS2_ESaIS2_EED1Ev(%"class.std::set"* %94)
          to label %95 unwind label %112, !dbg !6616

; <label>:95                                      ; preds = %93
  br label %96, !dbg !6616

; <label>:96                                      ; preds = %95, %58
  %97 = getelementptr inbounds %"class.FruitClick::Application"* %5, i32 0, i32 2, !dbg !6616
  invoke void @_ZN7b2WorldD1Ev(%class.b2World* %97)
          to label %98 unwind label %112, !dbg !6616

; <label>:98                                      ; preds = %96
  br label %99, !dbg !6616

; <label>:99                                      ; preds = %98, %54
  %100 = bitcast %"class.FruitClick::Application"* %5 to i8*, !dbg !6616
  %101 = getelementptr inbounds i8* %100, i64 4, !dbg !6616
  %102 = bitcast i8* %101 to %class.b2QueryCallback*, !dbg !6616
  invoke void @_ZN15b2QueryCallbackD2Ev(%class.b2QueryCallback* %102)
          to label %103 unwind label %112, !dbg !6616

; <label>:103                                     ; preds = %99
  %104 = bitcast %"class.FruitClick::Application"* %5 to %class.b2ContactListener*, !dbg !6616
  invoke void @_ZN17b2ContactListenerD2Ev(%class.b2ContactListener* %104)
          to label %105 unwind label %112, !dbg !6616

; <label>:105                                     ; preds = %103
  br label %106, !dbg !6616

; <label>:106                                     ; preds = %105
  %107 = load i8** %3, !dbg !6616
  %108 = load i8** %3, !dbg !6616
  %109 = load i32* %4, !dbg !6616
  %110 = insertvalue { i8*, i32 } undef, i8* %108, 0, !dbg !6616
  %111 = insertvalue { i8*, i32 } %110, i32 %109, 1, !dbg !6616
  resume { i8*, i32 } %111, !dbg !6616

; <label>:112                                     ; preds = %103, %99, %96, %93, %90, %87, %84, %78
  %113 = landingpad { i8*, i32 } personality i8* bitcast (i32 (...)* @__gxx_personality_v0 to i8*)
          catch i8* null, !dbg !6616
  call void @_ZSt9terminatev() noreturn nounwind, !dbg !6616
  unreachable, !dbg !6616
}

declare void @llvm.dbg.declare(metadata, metadata) nounwind readnone

define linkonce_odr void @_ZN17b2ContactListenerC2Ev(%class.b2ContactListener* %this) unnamed_addr nounwind inlinehint align 2 {
  %1 = alloca %class.b2ContactListener*, align 4
  store %class.b2ContactListener* %this, %class.b2ContactListener** %1, align 4
  call void @llvm.dbg.declare(metadata !{%class.b2ContactListener** %1}, metadata !6617), !dbg !6618
  %2 = load %class.b2ContactListener** %1
  %3 = bitcast %class.b2ContactListener* %2 to i8***, !dbg !6618
  store i8** getelementptr inbounds ([8 x i8*]* @_ZTV17b2ContactListener, i64 0, i64 2), i8*** %3, !dbg !6618
  ret void, !dbg !6619
}

define linkonce_odr void @_ZN15b2QueryCallbackC2Ev(%class.b2QueryCallback* %this) unnamed_addr nounwind inlinehint align 2 {
  %1 = alloca %class.b2QueryCallback*, align 4
  store %class.b2QueryCallback* %this, %class.b2QueryCallback** %1, align 4
  call void @llvm.dbg.declare(metadata !{%class.b2QueryCallback** %1}, metadata !6621), !dbg !6622
  %2 = load %class.b2QueryCallback** %1
  %3 = bitcast %class.b2QueryCallback* %2 to i8***, !dbg !6622
  store i8** getelementptr inbounds ([5 x i8*]* @_ZTV15b2QueryCallback, i64 0, i64 2), i8*** %3, !dbg !6622
  ret void, !dbg !6623
}

declare void @_ZN7b2WorldC1ERK6b2Vec2(%class.b2World*, %struct.b2Vec2*)

define linkonce_odr void @_ZN6b2Vec2C1Eff(%struct.b2Vec2* %this, float %x, float %y) unnamed_addr align 2 {
  %1 = alloca %struct.b2Vec2*, align 4
  %2 = alloca float, align 4
  %3 = alloca float, align 4
  store %struct.b2Vec2* %this, %struct.b2Vec2** %1, align 4
  call void @llvm.dbg.declare(metadata !{%struct.b2Vec2** %1}, metadata !6625), !dbg !6626
  store float %x, float* %2, align 4
  call void @llvm.dbg.declare(metadata !{float* %2}, metadata !6627), !dbg !6628
  store float %y, float* %3, align 4
  call void @llvm.dbg.declare(metadata !{float* %3}, metadata !6629), !dbg !6630
  %4 = load %struct.b2Vec2** %1
  %5 = load float* %2, align 4, !dbg !6631
  %6 = load float* %3, align 4, !dbg !6631
  call void @_ZN6b2Vec2C2Eff(%struct.b2Vec2* %4, float %5, float %6), !dbg !6631
  ret void, !dbg !6631
}

declare i32 @__gxx_personality_v0(...)

define linkonce_odr void @_ZNSt3setIPN10FruitClick5AppleESt4lessIS2_ESaIS2_EEC1Ev(%"class.std::set"* %this) unnamed_addr align 2 {
  %1 = alloca %"class.std::set"*, align 4
  store %"class.std::set"* %this, %"class.std::set"** %1, align 4
  call void @llvm.dbg.declare(metadata !{%"class.std::set"** %1}, metadata !6632), !dbg !6633
  %2 = load %"class.std::set"** %1
  call void @_ZNSt3setIPN10FruitClick5AppleESt4lessIS2_ESaIS2_EEC2Ev(%"class.std::set"* %2), !dbg !6634
  ret void, !dbg !6634
}

define linkonce_odr void @_ZNSt6vectorIPN10FruitClick5AppleESaIS2_EEC1Ev(%"class.std::vector"* %this) unnamed_addr align 2 {
  %1 = alloca %"class.std::vector"*, align 4
  store %"class.std::vector"* %this, %"class.std::vector"** %1, align 4
  call void @llvm.dbg.declare(metadata !{%"class.std::vector"** %1}, metadata !6635), !dbg !6636
  %2 = load %"class.std::vector"** %1
  call void @_ZNSt6vectorIPN10FruitClick5AppleESaIS2_EEC2Ev(%"class.std::vector"* %2), !dbg !6637
  ret void, !dbg !6637
}

declare void @_ZN10FruitClick5GrassC1ER7b2World(%"class.FruitClick::Grass"*, %class.b2World*)

declare void @_ZN10FruitClick5BoundC1ER7b2World(%"class.FruitClick::Bound"*, %class.b2World*)

declare void @_ZN7b2World18SetContactListenerEP17b2ContactListener(%class.b2World*, %class.b2ContactListener*)

declare void @_ZN10FruitClick9B2DObject11setPositionEff(%"class.FruitClick::B2DObject"*, float, float)

declare float @_ZN10FruitClick7toWorldEf(float)

define linkonce_odr void @_ZN10FruitClick5BoundD1Ev(%"class.FruitClick::Bound"* %this) unnamed_addr inlinehint align 2 {
  %1 = alloca %"class.FruitClick::Bound"*, align 4
  store %"class.FruitClick::Bound"* %this, %"class.FruitClick::Bound"** %1, align 4
  call void @llvm.dbg.declare(metadata !{%"class.FruitClick::Bound"** %1}, metadata !6638), !dbg !6639
  %2 = load %"class.FruitClick::Bound"** %1
  call void @_ZN10FruitClick5BoundD2Ev(%"class.FruitClick::Bound"* %2), !dbg !6639
  ret void, !dbg !6639
}

declare void @_ZSt9terminatev()

define linkonce_odr void @_ZN10FruitClick5GrassD1Ev(%"class.FruitClick::Grass"* %this) unnamed_addr inlinehint align 2 {
  %1 = alloca %"class.FruitClick::Grass"*, align 4
  store %"class.FruitClick::Grass"* %this, %"class.FruitClick::Grass"** %1, align 4
  call void @llvm.dbg.declare(metadata !{%"class.FruitClick::Grass"** %1}, metadata !6640), !dbg !6641
  %2 = load %"class.FruitClick::Grass"** %1
  call void @_ZN10FruitClick5GrassD2Ev(%"class.FruitClick::Grass"* %2), !dbg !6641
  ret void, !dbg !6641
}

define linkonce_odr void @_ZNSt6vectorIPN10FruitClick5AppleESaIS2_EED1Ev(%"class.std::vector"* %this) unnamed_addr align 2 {
  %1 = alloca %"class.std::vector"*, align 4
  store %"class.std::vector"* %this, %"class.std::vector"** %1, align 4
  call void @llvm.dbg.declare(metadata !{%"class.std::vector"** %1}, metadata !6642), !dbg !6643
  %2 = load %"class.std::vector"** %1
  call void @_ZNSt6vectorIPN10FruitClick5AppleESaIS2_EED2Ev(%"class.std::vector"* %2), !dbg !6644
  ret void, !dbg !6645
}

define linkonce_odr void @_ZNSt3setIPN10FruitClick5AppleESt4lessIS2_ESaIS2_EED1Ev(%"class.std::set"* %this) unnamed_addr inlinehint align 2 {
  %1 = alloca %"class.std::set"*, align 4
  store %"class.std::set"* %this, %"class.std::set"** %1, align 4
  call void @llvm.dbg.declare(metadata !{%"class.std::set"** %1}, metadata !6646), !dbg !6647
  %2 = load %"class.std::set"** %1
  call void @_ZNSt3setIPN10FruitClick5AppleESt4lessIS2_ESaIS2_EED2Ev(%"class.std::set"* %2), !dbg !6647
  ret void, !dbg !6647
}

declare void @_ZN7b2WorldD1Ev(%class.b2World*)

define linkonce_odr void @_ZN15b2QueryCallbackD2Ev(%class.b2QueryCallback* %this) unnamed_addr nounwind align 2 {
  %1 = alloca %class.b2QueryCallback*, align 4
  store %class.b2QueryCallback* %this, %class.b2QueryCallback** %1, align 4
  call void @llvm.dbg.declare(metadata !{%class.b2QueryCallback** %1}, metadata !6648), !dbg !6649
  %2 = load %class.b2QueryCallback** %1
  ret void, !dbg !6650
}

define linkonce_odr void @_ZN17b2ContactListenerD2Ev(%class.b2ContactListener* %this) unnamed_addr nounwind align 2 {
  %1 = alloca %class.b2ContactListener*, align 4
  store %class.b2ContactListener* %this, %class.b2ContactListener** %1, align 4
  call void @llvm.dbg.declare(metadata !{%class.b2ContactListener** %1}, metadata !6652), !dbg !6653
  %2 = load %class.b2ContactListener** %1
  ret void, !dbg !6654
}

define void @_ZN10FruitClick11ApplicationD0Ev(%"class.FruitClick::Application"* %this) unnamed_addr align 2 {
  %1 = alloca %"class.FruitClick::Application"*, align 4
  %2 = alloca i8*
  %3 = alloca i32
  store %"class.FruitClick::Application"* %this, %"class.FruitClick::Application"** %1, align 4
  call void @llvm.dbg.declare(metadata !{%"class.FruitClick::Application"** %1}, metadata !6656), !dbg !6657
  %4 = load %"class.FruitClick::Application"** %1
  invoke void @_ZN10FruitClick11ApplicationD1Ev(%"class.FruitClick::Application"* %4)
          to label %5 unwind label %7, !dbg !6658

; <label>:5                                       ; preds = %0
  %6 = bitcast %"class.FruitClick::Application"* %4 to i8*, !dbg !6658
  call void @_ZdlPv(i8* %6) nounwind, !dbg !6658
  ret void, !dbg !6659

; <label>:7                                       ; preds = %0
  %8 = landingpad { i8*, i32 } personality i8* bitcast (i32 (...)* @__gxx_personality_v0 to i8*)
          cleanup, !dbg !6658
  %9 = extractvalue { i8*, i32 } %8, 0, !dbg !6658
  store i8* %9, i8** %2, !dbg !6658
  %10 = extractvalue { i8*, i32 } %8, 1, !dbg !6658
  store i32 %10, i32* %3, !dbg !6658
  %11 = bitcast %"class.FruitClick::Application"* %4 to i8*, !dbg !6658
  call void @_ZdlPv(i8* %11) nounwind, !dbg !6658
  br label %12, !dbg !6658

; <label>:12                                      ; preds = %7
  %13 = load i8** %2, !dbg !6658
  %14 = load i8** %2, !dbg !6658
  %15 = load i32* %3, !dbg !6658
  %16 = insertvalue { i8*, i32 } undef, i8* %14, 0, !dbg !6658
  %17 = insertvalue { i8*, i32 } %16, i32 %15, 1, !dbg !6658
  resume { i8*, i32 } %17, !dbg !6658
}

declare void @_ZdlPv(i8*) nounwind

define void @_ZThn4_N10FruitClick11ApplicationD0Ev(%"class.FruitClick::Application"* %this) {
  %1 = alloca %"class.FruitClick::Application"*, align 4
  store %"class.FruitClick::Application"* %this, %"class.FruitClick::Application"** %1, align 4
  %2 = load %"class.FruitClick::Application"** %1
  %3 = bitcast %"class.FruitClick::Application"* %2 to i8*
  %4 = getelementptr inbounds i8* %3, i64 -4
  %5 = bitcast i8* %4 to %"class.FruitClick::Application"*
  call void @_ZN10FruitClick11ApplicationD0Ev(%"class.FruitClick::Application"* %5)
  ret void
}

define void @_ZN10FruitClick11ApplicationD2Ev(%"class.FruitClick::Application"* %this) unnamed_addr align 2 {
  %1 = alloca %"class.FruitClick::Application"*, align 4
  %it = alloca %"struct.std::_Rb_tree_const_iterator", align 4
  %2 = alloca i8*
  %3 = alloca i32
  %itEnd = alloca %"struct.std::_Rb_tree_const_iterator", align 4
  %apple = alloca %"class.FruitClick::Apple"*, align 4
  store %"class.FruitClick::Application"* %this, %"class.FruitClick::Application"** %1, align 4
  call void @llvm.dbg.declare(metadata !{%"class.FruitClick::Application"** %1}, metadata !6660), !dbg !6661
  %4 = load %"class.FruitClick::Application"** %1
  %5 = bitcast %"class.FruitClick::Application"* %4 to i8***, !dbg !6662
  store i8** getelementptr inbounds ([14 x i8*]* @_ZTVN10FruitClick11ApplicationE, i64 0, i64 2), i8*** %5, !dbg !6662
  %6 = bitcast %"class.FruitClick::Application"* %4 to i8*, !dbg !6662
  %7 = getelementptr i8* %6, i32 4, !dbg !6662
  %8 = bitcast i8* %7 to i8***, !dbg !6662
  store i8** getelementptr inbounds ([14 x i8*]* @_ZTVN10FruitClick11ApplicationE, i64 0, i64 11), i8*** %8, !dbg !6662
  call void @llvm.dbg.declare(metadata !{%"struct.std::_Rb_tree_const_iterator"* %it}, metadata !6663), !dbg !6665
  %9 = getelementptr inbounds %"class.FruitClick::Application"* %4, i32 0, i32 5, !dbg !6666
  invoke void @_ZNKSt3setIPN10FruitClick5AppleESt4lessIS2_ESaIS2_EE5beginEv(%"struct.std::_Rb_tree_const_iterator"* sret %it, %"class.std::set"* %9)
          to label %10 unwind label %31, !dbg !6666

; <label>:10                                      ; preds = %0
  call void @llvm.dbg.declare(metadata !{%"struct.std::_Rb_tree_const_iterator"* %itEnd}, metadata !6667), !dbg !6668
  %11 = getelementptr inbounds %"class.FruitClick::Application"* %4, i32 0, i32 5, !dbg !6669
  invoke void @_ZNKSt3setIPN10FruitClick5AppleESt4lessIS2_ESaIS2_EE3endEv(%"struct.std::_Rb_tree_const_iterator"* sret %itEnd, %"class.std::set"* %11)
          to label %12 unwind label %31, !dbg !6669

; <label>:12                                      ; preds = %10
  br label %13, !dbg !6670

; <label>:13                                      ; preds = %30, %12
  %14 = invoke zeroext i1 @_ZNKSt23_Rb_tree_const_iteratorIPN10FruitClick5AppleEEneERKS3_(%"struct.std::_Rb_tree_const_iterator"* %it, %"struct.std::_Rb_tree_const_iterator"* %itEnd)
          to label %15 unwind label %31, !dbg !6671

; <label>:15                                      ; preds = %13
  br i1 %14, label %16, label %36, !dbg !6671

; <label>:16                                      ; preds = %15
  call void @llvm.dbg.declare(metadata !{%"class.FruitClick::Apple"** %apple}, metadata !6672), !dbg !6674
  %17 = invoke %"class.FruitClick::Apple"** @_ZNKSt23_Rb_tree_const_iteratorIPN10FruitClick5AppleEEdeEv(%"struct.std::_Rb_tree_const_iterator"* %it)
          to label %18 unwind label %31, !dbg !6675

; <label>:18                                      ; preds = %16
  %19 = load %"class.FruitClick::Apple"** %17, !dbg !6675
  store %"class.FruitClick::Apple"* %19, %"class.FruitClick::Apple"** %apple, align 4, !dbg !6675
  %20 = load %"class.FruitClick::Apple"** %apple, align 4, !dbg !6676
  %21 = icmp eq %"class.FruitClick::Apple"* %20, null, !dbg !6676
  br i1 %21, label %28, label %22, !dbg !6676

; <label>:22                                      ; preds = %18
  %23 = bitcast %"class.FruitClick::Apple"* %20 to void (%"class.FruitClick::Apple"*)***, !dbg !6676
  %24 = load void (%"class.FruitClick::Apple"*)*** %23, !dbg !6676
  %25 = getelementptr inbounds void (%"class.FruitClick::Apple"*)** %24, i64 1, !dbg !6676
  %26 = load void (%"class.FruitClick::Apple"*)** %25, !dbg !6676
  invoke void %26(%"class.FruitClick::Apple"* %20)
          to label %27 unwind label %31, !dbg !6676

; <label>:27                                      ; preds = %22
  br label %28, !dbg !6676

; <label>:28                                      ; preds = %27, %18
  %29 = invoke %"struct.std::_Rb_tree_const_iterator"* @_ZNSt23_Rb_tree_const_iteratorIPN10FruitClick5AppleEEppEv(%"struct.std::_Rb_tree_const_iterator"* %it)
          to label %30 unwind label %31, !dbg !6677

; <label>:30                                      ; preds = %28
  br label %13, !dbg !6678

; <label>:31                                      ; preds = %28, %22, %16, %13, %10, %0
  %32 = landingpad { i8*, i32 } personality i8* bitcast (i32 (...)* @__gxx_personality_v0 to i8*)
          cleanup, !dbg !6666
  %33 = extractvalue { i8*, i32 } %32, 0, !dbg !6666
  store i8* %33, i8** %2, !dbg !6666
  %34 = extractvalue { i8*, i32 } %32, 1, !dbg !6666
  store i32 %34, i32* %3, !dbg !6666
  %35 = getelementptr inbounds %"class.FruitClick::Application"* %4, i32 0, i32 11, !dbg !6679
  invoke void @_ZN10FruitClick5BoundD1Ev(%"class.FruitClick::Bound"* %35)
          to label %58 unwind label %112, !dbg !6679

; <label>:36                                      ; preds = %15
  %37 = getelementptr inbounds %"class.FruitClick::Application"* %4, i32 0, i32 11, !dbg !6679
  invoke void @_ZN10FruitClick5BoundD1Ev(%"class.FruitClick::Bound"* %37)
          to label %38 unwind label %54, !dbg !6679

; <label>:38                                      ; preds = %36
  %39 = getelementptr inbounds %"class.FruitClick::Application"* %4, i32 0, i32 10, !dbg !6679
  invoke void @_ZN10FruitClick5BoundD1Ev(%"class.FruitClick::Bound"* %39)
          to label %40 unwind label %59, !dbg !6679

; <label>:40                                      ; preds = %38
  %41 = getelementptr inbounds %"class.FruitClick::Application"* %4, i32 0, i32 9, !dbg !6679
  invoke void @_ZN10FruitClick5GrassD1Ev(%"class.FruitClick::Grass"* %41)
          to label %42 unwind label %66, !dbg !6679

; <label>:42                                      ; preds = %40
  %43 = getelementptr inbounds %"class.FruitClick::Application"* %4, i32 0, i32 6, !dbg !6679
  invoke void @_ZNSt6vectorIPN10FruitClick5AppleESaIS2_EED1Ev(%"class.std::vector"* %43)
          to label %44 unwind label %73, !dbg !6679

; <label>:44                                      ; preds = %42
  %45 = getelementptr inbounds %"class.FruitClick::Application"* %4, i32 0, i32 5, !dbg !6679
  invoke void @_ZNSt3setIPN10FruitClick5AppleESt4lessIS2_ESaIS2_EED1Ev(%"class.std::set"* %45)
          to label %46 unwind label %80, !dbg !6679

; <label>:46                                      ; preds = %44
  %47 = getelementptr inbounds %"class.FruitClick::Application"* %4, i32 0, i32 2, !dbg !6679
  invoke void @_ZN7b2WorldD1Ev(%class.b2World* %47)
          to label %48 unwind label %87, !dbg !6679

; <label>:48                                      ; preds = %46
  %49 = bitcast %"class.FruitClick::Application"* %4 to i8*, !dbg !6679
  %50 = getelementptr inbounds i8* %49, i64 4, !dbg !6679
  %51 = bitcast i8* %50 to %class.b2QueryCallback*, !dbg !6679
  invoke void @_ZN15b2QueryCallbackD2Ev(%class.b2QueryCallback* %51)
          to label %52 unwind label %94, !dbg !6679

; <label>:52                                      ; preds = %48
  %53 = bitcast %"class.FruitClick::Application"* %4 to %class.b2ContactListener*, !dbg !6679
  call void @_ZN17b2ContactListenerD2Ev(%class.b2ContactListener* %53), !dbg !6679
  ret void, !dbg !6679

; <label>:54                                      ; preds = %36
  %55 = landingpad { i8*, i32 } personality i8* bitcast (i32 (...)* @__gxx_personality_v0 to i8*)
          cleanup, !dbg !6679
  %56 = extractvalue { i8*, i32 } %55, 0, !dbg !6679
  store i8* %56, i8** %2, !dbg !6679
  %57 = extractvalue { i8*, i32 } %55, 1, !dbg !6679
  store i32 %57, i32* %3, !dbg !6679
  br label %63, !dbg !6679

; <label>:58                                      ; preds = %31
  br label %63, !dbg !6679

; <label>:59                                      ; preds = %38
  %60 = landingpad { i8*, i32 } personality i8* bitcast (i32 (...)* @__gxx_personality_v0 to i8*)
          cleanup, !dbg !6679
  %61 = extractvalue { i8*, i32 } %60, 0, !dbg !6679
  store i8* %61, i8** %2, !dbg !6679
  %62 = extractvalue { i8*, i32 } %60, 1, !dbg !6679
  store i32 %62, i32* %3, !dbg !6679
  br label %70, !dbg !6679

; <label>:63                                      ; preds = %58, %54
  %64 = getelementptr inbounds %"class.FruitClick::Application"* %4, i32 0, i32 10, !dbg !6679
  invoke void @_ZN10FruitClick5BoundD1Ev(%"class.FruitClick::Bound"* %64)
          to label %65 unwind label %112, !dbg !6679

; <label>:65                                      ; preds = %63
  br label %70, !dbg !6679

; <label>:66                                      ; preds = %40
  %67 = landingpad { i8*, i32 } personality i8* bitcast (i32 (...)* @__gxx_personality_v0 to i8*)
          cleanup, !dbg !6679
  %68 = extractvalue { i8*, i32 } %67, 0, !dbg !6679
  store i8* %68, i8** %2, !dbg !6679
  %69 = extractvalue { i8*, i32 } %67, 1, !dbg !6679
  store i32 %69, i32* %3, !dbg !6679
  br label %77, !dbg !6679

; <label>:70                                      ; preds = %65, %59
  %71 = getelementptr inbounds %"class.FruitClick::Application"* %4, i32 0, i32 9, !dbg !6679
  invoke void @_ZN10FruitClick5GrassD1Ev(%"class.FruitClick::Grass"* %71)
          to label %72 unwind label %112, !dbg !6679

; <label>:72                                      ; preds = %70
  br label %77, !dbg !6679

; <label>:73                                      ; preds = %42
  %74 = landingpad { i8*, i32 } personality i8* bitcast (i32 (...)* @__gxx_personality_v0 to i8*)
          cleanup, !dbg !6679
  %75 = extractvalue { i8*, i32 } %74, 0, !dbg !6679
  store i8* %75, i8** %2, !dbg !6679
  %76 = extractvalue { i8*, i32 } %74, 1, !dbg !6679
  store i32 %76, i32* %3, !dbg !6679
  br label %84, !dbg !6679

; <label>:77                                      ; preds = %72, %66
  %78 = getelementptr inbounds %"class.FruitClick::Application"* %4, i32 0, i32 6, !dbg !6679
  invoke void @_ZNSt6vectorIPN10FruitClick5AppleESaIS2_EED1Ev(%"class.std::vector"* %78)
          to label %79 unwind label %112, !dbg !6679

; <label>:79                                      ; preds = %77
  br label %84, !dbg !6679

; <label>:80                                      ; preds = %44
  %81 = landingpad { i8*, i32 } personality i8* bitcast (i32 (...)* @__gxx_personality_v0 to i8*)
          cleanup, !dbg !6679
  %82 = extractvalue { i8*, i32 } %81, 0, !dbg !6679
  store i8* %82, i8** %2, !dbg !6679
  %83 = extractvalue { i8*, i32 } %81, 1, !dbg !6679
  store i32 %83, i32* %3, !dbg !6679
  br label %91, !dbg !6679

; <label>:84                                      ; preds = %79, %73
  %85 = getelementptr inbounds %"class.FruitClick::Application"* %4, i32 0, i32 5, !dbg !6679
  invoke void @_ZNSt3setIPN10FruitClick5AppleESt4lessIS2_ESaIS2_EED1Ev(%"class.std::set"* %85)
          to label %86 unwind label %112, !dbg !6679

; <label>:86                                      ; preds = %84
  br label %91, !dbg !6679

; <label>:87                                      ; preds = %46
  %88 = landingpad { i8*, i32 } personality i8* bitcast (i32 (...)* @__gxx_personality_v0 to i8*)
          cleanup, !dbg !6679
  %89 = extractvalue { i8*, i32 } %88, 0, !dbg !6679
  store i8* %89, i8** %2, !dbg !6679
  %90 = extractvalue { i8*, i32 } %88, 1, !dbg !6679
  store i32 %90, i32* %3, !dbg !6679
  br label %98, !dbg !6679

; <label>:91                                      ; preds = %86, %80
  %92 = getelementptr inbounds %"class.FruitClick::Application"* %4, i32 0, i32 2, !dbg !6679
  invoke void @_ZN7b2WorldD1Ev(%class.b2World* %92)
          to label %93 unwind label %112, !dbg !6679

; <label>:93                                      ; preds = %91
  br label %98, !dbg !6679

; <label>:94                                      ; preds = %48
  %95 = landingpad { i8*, i32 } personality i8* bitcast (i32 (...)* @__gxx_personality_v0 to i8*)
          cleanup, !dbg !6679
  %96 = extractvalue { i8*, i32 } %95, 0, !dbg !6679
  store i8* %96, i8** %2, !dbg !6679
  %97 = extractvalue { i8*, i32 } %95, 1, !dbg !6679
  store i32 %97, i32* %3, !dbg !6679
  br label %103, !dbg !6679

; <label>:98                                      ; preds = %93, %87
  %99 = bitcast %"class.FruitClick::Application"* %4 to i8*, !dbg !6679
  %100 = getelementptr inbounds i8* %99, i64 4, !dbg !6679
  %101 = bitcast i8* %100 to %class.b2QueryCallback*, !dbg !6679
  invoke void @_ZN15b2QueryCallbackD2Ev(%class.b2QueryCallback* %101)
          to label %102 unwind label %112, !dbg !6679

; <label>:102                                     ; preds = %98
  br label %103, !dbg !6679

; <label>:103                                     ; preds = %102, %94
  %104 = bitcast %"class.FruitClick::Application"* %4 to %class.b2ContactListener*, !dbg !6679
  invoke void @_ZN17b2ContactListenerD2Ev(%class.b2ContactListener* %104)
          to label %105 unwind label %112, !dbg !6679

; <label>:105                                     ; preds = %103
  br label %106, !dbg !6679

; <label>:106                                     ; preds = %105
  %107 = load i8** %2, !dbg !6679
  %108 = load i8** %2, !dbg !6679
  %109 = load i32* %3, !dbg !6679
  %110 = insertvalue { i8*, i32 } undef, i8* %108, 0, !dbg !6679
  %111 = insertvalue { i8*, i32 } %110, i32 %109, 1, !dbg !6679
  resume { i8*, i32 } %111, !dbg !6679

; <label>:112                                     ; preds = %103, %98, %91, %84, %77, %70, %63, %31
  %113 = landingpad { i8*, i32 } personality i8* bitcast (i32 (...)* @__gxx_personality_v0 to i8*)
          catch i8* null, !dbg !6679
  call void @_ZSt9terminatev() noreturn nounwind, !dbg !6679
  unreachable, !dbg !6679
}

define void @_ZThn4_N10FruitClick11ApplicationD1Ev(%"class.FruitClick::Application"* %this) {
  %1 = alloca %"class.FruitClick::Application"*, align 4
  store %"class.FruitClick::Application"* %this, %"class.FruitClick::Application"** %1, align 4
  %2 = load %"class.FruitClick::Application"** %1
  %3 = bitcast %"class.FruitClick::Application"* %2 to i8*
  %4 = getelementptr inbounds i8* %3, i64 -4
  %5 = bitcast i8* %4 to %"class.FruitClick::Application"*
  call void @_ZN10FruitClick11ApplicationD1Ev(%"class.FruitClick::Application"* %5)
  ret void
}

define linkonce_odr void @_ZNKSt3setIPN10FruitClick5AppleESt4lessIS2_ESaIS2_EE5beginEv(%"struct.std::_Rb_tree_const_iterator"* noalias sret %agg.result, %"class.std::set"* %this) align 2 {
  %1 = alloca %"class.std::set"*, align 4
  store %"class.std::set"* %this, %"class.std::set"** %1, align 4
  call void @llvm.dbg.declare(metadata !{%"class.std::set"** %1}, metadata !6680), !dbg !6681
  %2 = load %"class.std::set"** %1
  %3 = getelementptr inbounds %"class.std::set"* %2, i32 0, i32 0, !dbg !6682
  call void @_ZNKSt8_Rb_treeIPN10FruitClick5AppleES2_St9_IdentityIS2_ESt4lessIS2_ESaIS2_EE5beginEv(%"struct.std::_Rb_tree_const_iterator"* sret %agg.result, %"class.std::_Rb_tree"* %3), !dbg !6682
  ret void, !dbg !6682
}

define linkonce_odr void @_ZNKSt3setIPN10FruitClick5AppleESt4lessIS2_ESaIS2_EE3endEv(%"struct.std::_Rb_tree_const_iterator"* noalias sret %agg.result, %"class.std::set"* %this) align 2 {
  %1 = alloca %"class.std::set"*, align 4
  store %"class.std::set"* %this, %"class.std::set"** %1, align 4
  call void @llvm.dbg.declare(metadata !{%"class.std::set"** %1}, metadata !6684), !dbg !6685
  %2 = load %"class.std::set"** %1
  %3 = getelementptr inbounds %"class.std::set"* %2, i32 0, i32 0, !dbg !6686
  call void @_ZNKSt8_Rb_treeIPN10FruitClick5AppleES2_St9_IdentityIS2_ESt4lessIS2_ESaIS2_EE3endEv(%"struct.std::_Rb_tree_const_iterator"* sret %agg.result, %"class.std::_Rb_tree"* %3), !dbg !6686
  ret void, !dbg !6686
}

define linkonce_odr zeroext i1 @_ZNKSt23_Rb_tree_const_iteratorIPN10FruitClick5AppleEEneERKS3_(%"struct.std::_Rb_tree_const_iterator"* %this, %"struct.std::_Rb_tree_const_iterator"* %__x) nounwind align 2 {
  %1 = alloca %"struct.std::_Rb_tree_const_iterator"*, align 4
  %2 = alloca %"struct.std::_Rb_tree_const_iterator"*, align 4
  store %"struct.std::_Rb_tree_const_iterator"* %this, %"struct.std::_Rb_tree_const_iterator"** %1, align 4
  call void @llvm.dbg.declare(metadata !{%"struct.std::_Rb_tree_const_iterator"** %1}, metadata !6688), !dbg !6689
  store %"struct.std::_Rb_tree_const_iterator"* %__x, %"struct.std::_Rb_tree_const_iterator"** %2, align 4
  call void @llvm.dbg.declare(metadata !{%"struct.std::_Rb_tree_const_iterator"** %2}, metadata !6690), !dbg !6691
  %3 = load %"struct.std::_Rb_tree_const_iterator"** %1
  %4 = getelementptr inbounds %"struct.std::_Rb_tree_const_iterator"* %3, i32 0, i32 0, !dbg !6692
  %5 = load %"struct.std::_Rb_tree_node_base"** %4, align 4, !dbg !6692
  %6 = load %"struct.std::_Rb_tree_const_iterator"** %2, !dbg !6692
  %7 = getelementptr inbounds %"struct.std::_Rb_tree_const_iterator"* %6, i32 0, i32 0, !dbg !6692
  %8 = load %"struct.std::_Rb_tree_node_base"** %7, align 4, !dbg !6692
  %9 = icmp ne %"struct.std::_Rb_tree_node_base"* %5, %8, !dbg !6692
  ret i1 %9, !dbg !6692
}

define linkonce_odr %"class.FruitClick::Apple"** @_ZNKSt23_Rb_tree_const_iteratorIPN10FruitClick5AppleEEdeEv(%"struct.std::_Rb_tree_const_iterator"* %this) nounwind align 2 {
  %1 = alloca %"struct.std::_Rb_tree_const_iterator"*, align 4
  store %"struct.std::_Rb_tree_const_iterator"* %this, %"struct.std::_Rb_tree_const_iterator"** %1, align 4
  call void @llvm.dbg.declare(metadata !{%"struct.std::_Rb_tree_const_iterator"** %1}, metadata !6694), !dbg !6695
  %2 = load %"struct.std::_Rb_tree_const_iterator"** %1
  %3 = getelementptr inbounds %"struct.std::_Rb_tree_const_iterator"* %2, i32 0, i32 0, !dbg !6696
  %4 = load %"struct.std::_Rb_tree_node_base"** %3, align 4, !dbg !6696
  %5 = bitcast %"struct.std::_Rb_tree_node_base"* %4 to %"struct.std::_Rb_tree_node"*, !dbg !6696
  %6 = getelementptr inbounds %"struct.std::_Rb_tree_node"* %5, i32 0, i32 1, !dbg !6696
  ret %"class.FruitClick::Apple"** %6, !dbg !6696
}

define linkonce_odr %"struct.std::_Rb_tree_const_iterator"* @_ZNSt23_Rb_tree_const_iteratorIPN10FruitClick5AppleEEppEv(%"struct.std::_Rb_tree_const_iterator"* %this) nounwind align 2 {
  %1 = alloca %"struct.std::_Rb_tree_const_iterator"*, align 4
  store %"struct.std::_Rb_tree_const_iterator"* %this, %"struct.std::_Rb_tree_const_iterator"** %1, align 4
  call void @llvm.dbg.declare(metadata !{%"struct.std::_Rb_tree_const_iterator"** %1}, metadata !6698), !dbg !6699
  %2 = load %"struct.std::_Rb_tree_const_iterator"** %1
  %3 = getelementptr inbounds %"struct.std::_Rb_tree_const_iterator"* %2, i32 0, i32 0, !dbg !6700
  %4 = load %"struct.std::_Rb_tree_node_base"** %3, align 4, !dbg !6700
  %5 = call %"struct.std::_Rb_tree_node_base"* @_ZSt18_Rb_tree_incrementPKSt18_Rb_tree_node_base(%"struct.std::_Rb_tree_node_base"* %4) nounwind readonly, !dbg !6700
  %6 = getelementptr inbounds %"struct.std::_Rb_tree_const_iterator"* %2, i32 0, i32 0, !dbg !6700
  store %"struct.std::_Rb_tree_node_base"* %5, %"struct.std::_Rb_tree_node_base"** %6, align 4, !dbg !6700
  ret %"struct.std::_Rb_tree_const_iterator"* %2, !dbg !6702
}

define void @_ZN10FruitClick11Application6renderEv(%"class.FruitClick::Application"* %this) align 2 {
  %1 = alloca %"class.FruitClick::Application"*, align 4
  %text = alloca %"class.std::basic_string", align 4
  %2 = alloca %"class.std::allocator.3", align 1
  %3 = alloca i8*
  %4 = alloca i32
  %it = alloca %"struct.std::_Rb_tree_const_iterator", align 4
  %itEnd = alloca %"struct.std::_Rb_tree_const_iterator", align 4
  %apple = alloca %"class.FruitClick::Apple"*, align 4
  store %"class.FruitClick::Application"* %this, %"class.FruitClick::Application"** %1, align 4
  call void @llvm.dbg.declare(metadata !{%"class.FruitClick::Application"** %1}, metadata !6703), !dbg !6704
  %5 = load %"class.FruitClick::Application"** %1
  call void @_ZN10FruitClick11Application8simulateEv(%"class.FruitClick::Application"* %5), !dbg !6705
  call void @_ZN10FruitClick8Platform9drawBeginEv(), !dbg !6707
  call void @_ZN10FruitClick8Platform4drawENS0_7TextureEfff(i32 1, float 1.600000e+02, float 2.400000e+02, float 0.000000e+00), !dbg !6708
  call void @llvm.dbg.declare(metadata !{%"class.std::basic_string"* %text}, metadata !6709), !dbg !6711
  call void @_ZNSaIcEC1Ev(%"class.std::allocator.3"* %2) nounwind, !dbg !6712
  invoke void @_ZNSsC1EPKcRKSaIcE(%"class.std::basic_string"* %text, i8* getelementptr inbounds ([8 x i8]* @.str, i32 0, i32 0), %"class.std::allocator.3"* %2)
          to label %6 unwind label %57, !dbg !6712

; <label>:6                                       ; preds = %0
  call void @_ZNSaIcED1Ev(%"class.std::allocator.3"* %2) nounwind, !dbg !6712
  %7 = getelementptr inbounds %"class.FruitClick::Application"* %5, i32 0, i32 7, !dbg !6713
  %8 = load i32* %7, align 4, !dbg !6713
  %9 = invoke i8* @_ZN10FruitClick8toStringEi(i32 %8)
          to label %10 unwind label %61, !dbg !6713

; <label>:10                                      ; preds = %6
  %11 = invoke %"class.std::basic_string"* @_ZNSspLEPKc(%"class.std::basic_string"* %text, i8* %9)
          to label %12 unwind label %61, !dbg !6713

; <label>:12                                      ; preds = %10
  %13 = invoke i8* @_ZNKSs5c_strEv(%"class.std::basic_string"* %text)
          to label %14 unwind label %61, !dbg !6714

; <label>:14                                      ; preds = %12
  invoke void @_ZN10FruitClick8Platform8drawTextEPKcff(i8* %13, float 5.000000e+00, float 4.600000e+02)
          to label %15 unwind label %61, !dbg !6714

; <label>:15                                      ; preds = %14
  %16 = invoke %"class.std::basic_string"* @_ZNSsaSEPKc(%"class.std::basic_string"* %text, i8* getelementptr inbounds ([8 x i8]* @.str1, i32 0, i32 0))
          to label %17 unwind label %61, !dbg !6715

; <label>:17                                      ; preds = %15
  %18 = getelementptr inbounds %"class.FruitClick::Application"* %5, i32 0, i32 8, !dbg !6716
  %19 = load i32* %18, align 4, !dbg !6716
  %20 = invoke i8* @_ZN10FruitClick8toStringEi(i32 %19)
          to label %21 unwind label %61, !dbg !6716

; <label>:21                                      ; preds = %17
  %22 = invoke %"class.std::basic_string"* @_ZNSspLEPKc(%"class.std::basic_string"* %text, i8* %20)
          to label %23 unwind label %61, !dbg !6716

; <label>:23                                      ; preds = %21
  %24 = invoke i8* @_ZNKSs5c_strEv(%"class.std::basic_string"* %text)
          to label %25 unwind label %61, !dbg !6717

; <label>:25                                      ; preds = %23
  invoke void @_ZN10FruitClick8Platform8drawTextEPKcff(i8* %24, float 5.000000e+00, float 4.350000e+02)
          to label %26 unwind label %61, !dbg !6717

; <label>:26                                      ; preds = %25
  call void @llvm.dbg.declare(metadata !{%"struct.std::_Rb_tree_const_iterator"* %it}, metadata !6718), !dbg !6719
  %27 = getelementptr inbounds %"class.FruitClick::Application"* %5, i32 0, i32 5, !dbg !6720
  invoke void @_ZNKSt3setIPN10FruitClick5AppleESt4lessIS2_ESaIS2_EE5beginEv(%"struct.std::_Rb_tree_const_iterator"* sret %it, %"class.std::set"* %27)
          to label %28 unwind label %61, !dbg !6720

; <label>:28                                      ; preds = %26
  call void @llvm.dbg.declare(metadata !{%"struct.std::_Rb_tree_const_iterator"* %itEnd}, metadata !6721), !dbg !6722
  %29 = getelementptr inbounds %"class.FruitClick::Application"* %5, i32 0, i32 5, !dbg !6723
  invoke void @_ZNKSt3setIPN10FruitClick5AppleESt4lessIS2_ESaIS2_EE3endEv(%"struct.std::_Rb_tree_const_iterator"* sret %itEnd, %"class.std::set"* %29)
          to label %30 unwind label %61, !dbg !6723

; <label>:30                                      ; preds = %28
  br label %31, !dbg !6724

; <label>:31                                      ; preds = %56, %30
  %32 = invoke zeroext i1 @_ZNKSt23_Rb_tree_const_iteratorIPN10FruitClick5AppleEEneERKS3_(%"struct.std::_Rb_tree_const_iterator"* %it, %"struct.std::_Rb_tree_const_iterator"* %itEnd)
          to label %33 unwind label %61, !dbg !6725

; <label>:33                                      ; preds = %31
  br i1 %32, label %34, label %65, !dbg !6725

; <label>:34                                      ; preds = %33
  call void @llvm.dbg.declare(metadata !{%"class.FruitClick::Apple"** %apple}, metadata !6726), !dbg !6728
  %35 = invoke %"class.FruitClick::Apple"** @_ZNKSt23_Rb_tree_const_iteratorIPN10FruitClick5AppleEEdeEv(%"struct.std::_Rb_tree_const_iterator"* %it)
          to label %36 unwind label %61, !dbg !6729

; <label>:36                                      ; preds = %34
  %37 = load %"class.FruitClick::Apple"** %35, !dbg !6729
  store %"class.FruitClick::Apple"* %37, %"class.FruitClick::Apple"** %apple, align 4, !dbg !6729
  %38 = load %"class.FruitClick::Apple"** %apple, align 4, !dbg !6730
  %39 = bitcast %"class.FruitClick::Apple"* %38 to %"class.FruitClick::B2DObject"*, !dbg !6730
  %40 = invoke float @_ZNK10FruitClick9B2DObject1xEv(%"class.FruitClick::B2DObject"* %39)
          to label %41 unwind label %61, !dbg !6730

; <label>:41                                      ; preds = %36
  %42 = invoke float @_ZN10FruitClick8toScreenEf(float %40)
          to label %43 unwind label %61, !dbg !6730

; <label>:43                                      ; preds = %41
  %44 = load %"class.FruitClick::Apple"** %apple, align 4, !dbg !6731
  %45 = bitcast %"class.FruitClick::Apple"* %44 to %"class.FruitClick::B2DObject"*, !dbg !6731
  %46 = invoke float @_ZNK10FruitClick9B2DObject1yEv(%"class.FruitClick::B2DObject"* %45)
          to label %47 unwind label %61, !dbg !6731

; <label>:47                                      ; preds = %43
  %48 = invoke float @_ZN10FruitClick8toScreenEf(float %46)
          to label %49 unwind label %61, !dbg !6731

; <label>:49                                      ; preds = %47
  %50 = load %"class.FruitClick::Apple"** %apple, align 4, !dbg !6732
  %51 = bitcast %"class.FruitClick::Apple"* %50 to %"class.FruitClick::B2DObject"*, !dbg !6732
  %52 = invoke float @_ZNK10FruitClick9B2DObject5angleEv(%"class.FruitClick::B2DObject"* %51)
          to label %53 unwind label %61, !dbg !6732

; <label>:53                                      ; preds = %49
  invoke void @_ZN10FruitClick8Platform4drawENS0_7TextureEfff(i32 0, float %42, float %48, float %52)
          to label %54 unwind label %61, !dbg !6732

; <label>:54                                      ; preds = %53
  %55 = invoke %"struct.std::_Rb_tree_const_iterator"* @_ZNSt23_Rb_tree_const_iteratorIPN10FruitClick5AppleEEppEv(%"struct.std::_Rb_tree_const_iterator"* %it)
          to label %56 unwind label %61, !dbg !6733

; <label>:56                                      ; preds = %54
  br label %31, !dbg !6734

; <label>:57                                      ; preds = %0
  %58 = landingpad { i8*, i32 } personality i8* bitcast (i32 (...)* @__gxx_personality_v0 to i8*)
          cleanup, !dbg !6712
  %59 = extractvalue { i8*, i32 } %58, 0, !dbg !6712
  store i8* %59, i8** %3, !dbg !6712
  %60 = extractvalue { i8*, i32 } %58, 1, !dbg !6712
  store i32 %60, i32* %4, !dbg !6712
  call void @_ZNSaIcED1Ev(%"class.std::allocator.3"* %2) nounwind, !dbg !6712
  br label %68, !dbg !6712

; <label>:61                                      ; preds = %65, %54, %53, %49, %47, %43, %41, %36, %34, %31, %28, %26, %25, %23, %21, %17, %15, %14, %12, %10, %6
  %62 = landingpad { i8*, i32 } personality i8* bitcast (i32 (...)* @__gxx_personality_v0 to i8*)
          cleanup, !dbg !6713
  %63 = extractvalue { i8*, i32 } %62, 0, !dbg !6713
  store i8* %63, i8** %3, !dbg !6713
  %64 = extractvalue { i8*, i32 } %62, 1, !dbg !6713
  store i32 %64, i32* %4, !dbg !6713
  invoke void @_ZNSsD1Ev(%"class.std::basic_string"* %text)
          to label %67 unwind label %74, !dbg !6735

; <label>:65                                      ; preds = %33
  invoke void @_ZN10FruitClick8Platform7drawEndEv()
          to label %66 unwind label %61, !dbg !6736

; <label>:66                                      ; preds = %65
  call void @_ZNSsD1Ev(%"class.std::basic_string"* %text), !dbg !6735
  ret void, !dbg !6735

; <label>:67                                      ; preds = %61
  br label %68, !dbg !6735

; <label>:68                                      ; preds = %67, %57
  %69 = load i8** %3, !dbg !6712
  %70 = load i8** %3, !dbg !6712
  %71 = load i32* %4, !dbg !6712
  %72 = insertvalue { i8*, i32 } undef, i8* %70, 0, !dbg !6712
  %73 = insertvalue { i8*, i32 } %72, i32 %71, 1, !dbg !6712
  resume { i8*, i32 } %73, !dbg !6712

; <label>:74                                      ; preds = %61
  %75 = landingpad { i8*, i32 } personality i8* bitcast (i32 (...)* @__gxx_personality_v0 to i8*)
          catch i8* null, !dbg !6735
  call void @_ZSt9terminatev() noreturn nounwind, !dbg !6735
  unreachable, !dbg !6735
}

define void @_ZN10FruitClick11Application8simulateEv(%"class.FruitClick::Application"* %this) align 2 {
  %1 = alloca %"class.FruitClick::Application"*, align 4
  store %"class.FruitClick::Application"* %this, %"class.FruitClick::Application"** %1, align 4
  call void @llvm.dbg.declare(metadata !{%"class.FruitClick::Application"** %1}, metadata !6737), !dbg !6738
  %2 = load %"class.FruitClick::Application"** %1
  %3 = getelementptr inbounds %"class.FruitClick::Application"* %2, i32 0, i32 8, !dbg !6739
  %4 = load i32* %3, align 4, !dbg !6739
  %5 = icmp sgt i32 %4, 0, !dbg !6739
  br i1 %5, label %6, label %11, !dbg !6739

; <label>:6                                       ; preds = %0
  call void @_ZN10FruitClick11Application12deleteApplesEv(%"class.FruitClick::Application"* %2), !dbg !6741
  %7 = getelementptr inbounds %"class.FruitClick::Application"* %2, i32 0, i32 3, !dbg !6743
  %8 = load i32* %7, align 4, !dbg !6743
  %9 = add nsw i32 %8, 1, !dbg !6743
  store i32 %9, i32* %7, align 4, !dbg !6743
  %10 = getelementptr inbounds %"class.FruitClick::Application"* %2, i32 0, i32 2, !dbg !6744
  call void @_ZN7b2World4StepEfii(%class.b2World* %10, float 0x3F91111120000000, i32 6, i32 2), !dbg !6744
  call void @_ZN10FruitClick11Application10spawnAppleEv(%"class.FruitClick::Application"* %2), !dbg !6745
  br label %11, !dbg !6746

; <label>:11                                      ; preds = %6, %0
  ret void, !dbg !6747
}

declare void @_ZN10FruitClick8Platform9drawBeginEv()

declare void @_ZN10FruitClick8Platform4drawENS0_7TextureEfff(i32, float, float, float)

declare void @_ZNSsC1EPKcRKSaIcE(%"class.std::basic_string"*, i8*, %"class.std::allocator.3"*)

declare void @_ZNSaIcEC1Ev(%"class.std::allocator.3"*) nounwind

declare void @_ZNSaIcED1Ev(%"class.std::allocator.3"*) nounwind

declare %"class.std::basic_string"* @_ZNSspLEPKc(%"class.std::basic_string"*, i8*)

declare i8* @_ZN10FruitClick8toStringEi(i32)

declare void @_ZN10FruitClick8Platform8drawTextEPKcff(i8*, float, float)

declare i8* @_ZNKSs5c_strEv(%"class.std::basic_string"*)

declare %"class.std::basic_string"* @_ZNSsaSEPKc(%"class.std::basic_string"*, i8*)

declare float @_ZN10FruitClick8toScreenEf(float)

declare float @_ZNK10FruitClick9B2DObject1xEv(%"class.FruitClick::B2DObject"*)

declare float @_ZNK10FruitClick9B2DObject1yEv(%"class.FruitClick::B2DObject"*)

declare float @_ZNK10FruitClick9B2DObject5angleEv(%"class.FruitClick::B2DObject"*)

declare void @_ZN10FruitClick8Platform7drawEndEv()

declare void @_ZNSsD1Ev(%"class.std::basic_string"*)

define void @_ZN10FruitClick11Application5touchEff(%"class.FruitClick::Application"* %this, float %x, float %y) align 2 {
  %1 = alloca %"class.FruitClick::Application"*, align 4
  %2 = alloca float, align 4
  %3 = alloca float, align 4
  %aabb = alloca %struct.b2AABB, align 4
  store %"class.FruitClick::Application"* %this, %"class.FruitClick::Application"** %1, align 4
  call void @llvm.dbg.declare(metadata !{%"class.FruitClick::Application"** %1}, metadata !6748), !dbg !6749
  store float %x, float* %2, align 4
  call void @llvm.dbg.declare(metadata !{float* %2}, metadata !6750), !dbg !6751
  store float %y, float* %3, align 4
  call void @llvm.dbg.declare(metadata !{float* %3}, metadata !6752), !dbg !6753
  %4 = load %"class.FruitClick::Application"** %1
  call void @llvm.dbg.declare(metadata !{%struct.b2AABB* %aabb}, metadata !6754), !dbg !6756
  call void @_ZN6b2AABBC1Ev(%struct.b2AABB* %aabb), !dbg !6757
  %5 = load float* %2, align 4, !dbg !6758
  %6 = fsub float %5, 1.000000e+00, !dbg !6758
  %7 = call float @_ZN10FruitClick7toWorldEf(float %6), !dbg !6758
  %8 = getelementptr inbounds %struct.b2AABB* %aabb, i32 0, i32 0, !dbg !6758
  %9 = getelementptr inbounds %struct.b2Vec2* %8, i32 0, i32 0, !dbg !6758
  store float %7, float* %9, align 4, !dbg !6758
  %10 = load float* %3, align 4, !dbg !6759
  %11 = fsub float %10, 1.000000e+00, !dbg !6759
  %12 = call float @_ZN10FruitClick7toWorldEf(float %11), !dbg !6759
  %13 = getelementptr inbounds %struct.b2AABB* %aabb, i32 0, i32 0, !dbg !6759
  %14 = getelementptr inbounds %struct.b2Vec2* %13, i32 0, i32 1, !dbg !6759
  store float %12, float* %14, align 4, !dbg !6759
  %15 = load float* %2, align 4, !dbg !6760
  %16 = fadd float %15, 1.000000e+00, !dbg !6760
  %17 = call float @_ZN10FruitClick7toWorldEf(float %16), !dbg !6760
  %18 = getelementptr inbounds %struct.b2AABB* %aabb, i32 0, i32 1, !dbg !6760
  %19 = getelementptr inbounds %struct.b2Vec2* %18, i32 0, i32 0, !dbg !6760
  store float %17, float* %19, align 4, !dbg !6760
  %20 = load float* %3, align 4, !dbg !6761
  %21 = fadd float %20, 1.000000e+00, !dbg !6761
  %22 = call float @_ZN10FruitClick7toWorldEf(float %21), !dbg !6761
  %23 = getelementptr inbounds %struct.b2AABB* %aabb, i32 0, i32 1, !dbg !6761
  %24 = getelementptr inbounds %struct.b2Vec2* %23, i32 0, i32 1, !dbg !6761
  store float %22, float* %24, align 4, !dbg !6761
  %25 = getelementptr inbounds %"class.FruitClick::Application"* %4, i32 0, i32 2, !dbg !6762
  %26 = bitcast %"class.FruitClick::Application"* %4 to i8*, !dbg !6762
  %27 = getelementptr i8* %26, i32 4, !dbg !6762
  %28 = bitcast i8* %27 to %class.b2QueryCallback*, !dbg !6762
  call void @_ZNK7b2World9QueryAABBEP15b2QueryCallbackRK6b2AABB(%class.b2World* %25, %class.b2QueryCallback* %28, %struct.b2AABB* %aabb), !dbg !6762
  ret void, !dbg !6763
}

define linkonce_odr void @_ZN6b2AABBC1Ev(%struct.b2AABB* %this) unnamed_addr inlinehint align 2 {
  %1 = alloca %struct.b2AABB*, align 4
  store %struct.b2AABB* %this, %struct.b2AABB** %1, align 4
  call void @llvm.dbg.declare(metadata !{%struct.b2AABB** %1}, metadata !6764), !dbg !6765
  %2 = load %struct.b2AABB** %1
  call void @_ZN6b2AABBC2Ev(%struct.b2AABB* %2), !dbg !6765
  ret void, !dbg !6765
}

declare void @_ZNK7b2World9QueryAABBEP15b2QueryCallbackRK6b2AABB(%class.b2World*, %class.b2QueryCallback*, %struct.b2AABB*)

define void @_ZN10FruitClick11Application12deleteApplesEv(%"class.FruitClick::Application"* %this) align 2 {
  %1 = alloca %"class.FruitClick::Application"*, align 4
  %i = alloca i32, align 4
  %apple = alloca %"class.FruitClick::Apple"*, align 4
  store %"class.FruitClick::Application"* %this, %"class.FruitClick::Application"** %1, align 4
  call void @llvm.dbg.declare(metadata !{%"class.FruitClick::Application"** %1}, metadata !6766), !dbg !6767
  %2 = load %"class.FruitClick::Application"** %1
  call void @llvm.dbg.declare(metadata !{i32* %i}, metadata !6768), !dbg !6772
  store i32 0, i32* %i, align 4, !dbg !6773
  br label %3, !dbg !6773

; <label>:3                                       ; preds = %23, %0
  %4 = load i32* %i, align 4, !dbg !6773
  %5 = getelementptr inbounds %"class.FruitClick::Application"* %2, i32 0, i32 6, !dbg !6774
  %6 = call i32 @_ZNKSt6vectorIPN10FruitClick5AppleESaIS2_EE4sizeEv(%"class.std::vector"* %5), !dbg !6774
  %7 = icmp ult i32 %4, %6, !dbg !6774
  br i1 %7, label %8, label %26, !dbg !6774

; <label>:8                                       ; preds = %3
  call void @llvm.dbg.declare(metadata !{%"class.FruitClick::Apple"** %apple}, metadata !6775), !dbg !6777
  %9 = getelementptr inbounds %"class.FruitClick::Application"* %2, i32 0, i32 6, !dbg !6778
  %10 = load i32* %i, align 4, !dbg !6778
  %11 = call %"class.FruitClick::Apple"** @_ZNSt6vectorIPN10FruitClick5AppleESaIS2_EEixEj(%"class.std::vector"* %9, i32 %10), !dbg !6778
  %12 = load %"class.FruitClick::Apple"** %11, !dbg !6778
  store %"class.FruitClick::Apple"* %12, %"class.FruitClick::Apple"** %apple, align 4, !dbg !6778
  %13 = getelementptr inbounds %"class.FruitClick::Application"* %2, i32 0, i32 5, !dbg !6779
  %14 = call i32 @_ZNSt3setIPN10FruitClick5AppleESt4lessIS2_ESaIS2_EE5eraseERKS2_(%"class.std::set"* %13, %"class.FruitClick::Apple"** %apple), !dbg !6779
  %15 = load %"class.FruitClick::Apple"** %apple, align 4, !dbg !6780
  %16 = icmp eq %"class.FruitClick::Apple"* %15, null, !dbg !6780
  br i1 %16, label %22, label %17, !dbg !6780

; <label>:17                                      ; preds = %8
  %18 = bitcast %"class.FruitClick::Apple"* %15 to void (%"class.FruitClick::Apple"*)***, !dbg !6780
  %19 = load void (%"class.FruitClick::Apple"*)*** %18, !dbg !6780
  %20 = getelementptr inbounds void (%"class.FruitClick::Apple"*)** %19, i64 1, !dbg !6780
  %21 = load void (%"class.FruitClick::Apple"*)** %20, !dbg !6780
  call void %21(%"class.FruitClick::Apple"* %15), !dbg !6780
  br label %22, !dbg !6780

; <label>:22                                      ; preds = %17, %8
  br label %23, !dbg !6781

; <label>:23                                      ; preds = %22
  %24 = load i32* %i, align 4, !dbg !6782
  %25 = add i32 %24, 1, !dbg !6782
  store i32 %25, i32* %i, align 4, !dbg !6782
  br label %3, !dbg !6782

; <label>:26                                      ; preds = %3
  %27 = getelementptr inbounds %"class.FruitClick::Application"* %2, i32 0, i32 6, !dbg !6783
  call void @_ZNSt6vectorIPN10FruitClick5AppleESaIS2_EE5clearEv(%"class.std::vector"* %27), !dbg !6783
  ret void, !dbg !6784
}

declare void @_ZN7b2World4StepEfii(%class.b2World*, float, i32, i32)

define void @_ZN10FruitClick11Application10spawnAppleEv(%"class.FruitClick::Application"* %this) align 2 {
  %1 = alloca %"class.FruitClick::Application"*, align 4
  %x = alloca float, align 4
  %y = alloca float, align 4
  %vx = alloca float, align 4
  %vy = alloca float, align 4
  %apple = alloca %"class.FruitClick::Apple"*, align 4
  %2 = alloca i8*
  %3 = alloca i32
  %4 = alloca %"struct.std::pair", align 4
  store %"class.FruitClick::Application"* %this, %"class.FruitClick::Application"** %1, align 4
  call void @llvm.dbg.declare(metadata !{%"class.FruitClick::Application"** %1}, metadata !6785), !dbg !6786
  %5 = load %"class.FruitClick::Application"** %1
  %6 = getelementptr inbounds %"class.FruitClick::Application"* %5, i32 0, i32 3, !dbg !6787
  %7 = load i32* %6, align 4, !dbg !6787
  %8 = getelementptr inbounds %"class.FruitClick::Application"* %5, i32 0, i32 4, !dbg !6787
  %9 = load i32* %8, align 4, !dbg !6787
  %10 = srem i32 %7, %9, !dbg !6787
  %11 = icmp eq i32 %10, 0, !dbg !6787
  br i1 %11, label %12, label %55, !dbg !6787

; <label>:12                                      ; preds = %0
  call void @llvm.dbg.declare(metadata !{float* %x}, metadata !6789), !dbg !6791
  %13 = call i32 @rand() nounwind, !dbg !6792
  %14 = srem i32 %13, 270, !dbg !6792
  %15 = add nsw i32 %14, 25, !dbg !6792
  %16 = sitofp i32 %15 to float, !dbg !6792
  store float %16, float* %x, align 4, !dbg !6792
  call void @llvm.dbg.declare(metadata !{float* %y}, metadata !6793), !dbg !6794
  store float 4.900000e+02, float* %y, align 4, !dbg !6795
  call void @llvm.dbg.declare(metadata !{float* %vx}, metadata !6796), !dbg !6797
  %17 = call i32 @rand() nounwind, !dbg !6798
  %18 = srem i32 %17, 9, !dbg !6798
  %19 = sub nsw i32 %18, 4, !dbg !6798
  %20 = sitofp i32 %19 to float, !dbg !6798
  store float %20, float* %vx, align 4, !dbg !6798
  call void @llvm.dbg.declare(metadata !{float* %vy}, metadata !6799), !dbg !6800
  store float -3.000000e+00, float* %vy, align 4, !dbg !6801
  call void @llvm.dbg.declare(metadata !{%"class.FruitClick::Apple"** %apple}, metadata !6802), !dbg !6803
  %21 = call noalias i8* @_Znwj(i32 12), !dbg !6804
  %22 = bitcast i8* %21 to %"class.FruitClick::Apple"*, !dbg !6804
  %23 = getelementptr inbounds %"class.FruitClick::Application"* %5, i32 0, i32 2, !dbg !6804
  invoke void @_ZN10FruitClick5AppleC1ER7b2World(%"class.FruitClick::Apple"* %22, %class.b2World* %23)
          to label %24 unwind label %49, !dbg !6804

; <label>:24                                      ; preds = %12
  store %"class.FruitClick::Apple"* %22, %"class.FruitClick::Apple"** %apple, align 4, !dbg !6804
  %25 = load %"class.FruitClick::Apple"** %apple, align 4, !dbg !6805
  %26 = bitcast %"class.FruitClick::Apple"* %25 to %"class.FruitClick::B2DObject"*, !dbg !6805
  %27 = load float* %x, align 4, !dbg !6806
  %28 = call float @_ZN10FruitClick7toWorldEf(float %27), !dbg !6806
  %29 = load float* %y, align 4, !dbg !6807
  %30 = call float @_ZN10FruitClick7toWorldEf(float %29), !dbg !6807
  call void @_ZN10FruitClick9B2DObject11setPositionEff(%"class.FruitClick::B2DObject"* %26, float %28, float %30), !dbg !6807
  %31 = load %"class.FruitClick::Apple"** %apple, align 4, !dbg !6808
  %32 = bitcast %"class.FruitClick::Apple"* %31 to %"class.FruitClick::B2DObject"*, !dbg !6808
  %33 = load float* %vx, align 4, !dbg !6808
  %34 = load float* %vy, align 4, !dbg !6808
  call void @_ZN10FruitClick9B2DObject11setVelocityEff(%"class.FruitClick::B2DObject"* %32, float %33, float %34), !dbg !6808
  %35 = load %"class.FruitClick::Apple"** %apple, align 4, !dbg !6809
  %36 = bitcast %"class.FruitClick::Apple"* %35 to %"class.FruitClick::B2DObject"*, !dbg !6809
  %37 = call i32 @rand() nounwind, !dbg !6810
  %38 = srem i32 %37, 32, !dbg !6810
  %39 = sub nsw i32 %38, 16, !dbg !6810
  %40 = sitofp i32 %39 to float, !dbg !6810
  call void @_ZN10FruitClick9B2DObject18setAngularVelocityEf(%"class.FruitClick::B2DObject"* %36, float %40), !dbg !6810
  %41 = getelementptr inbounds %"class.FruitClick::Application"* %5, i32 0, i32 5, !dbg !6811
  call void @_ZNSt3setIPN10FruitClick5AppleESt4lessIS2_ESaIS2_EE6insertERKS2_(%"struct.std::pair"* sret %4, %"class.std::set"* %41, %"class.FruitClick::Apple"** %apple), !dbg !6811
  %42 = getelementptr inbounds %"class.FruitClick::Application"* %5, i32 0, i32 4, !dbg !6812
  %43 = load i32* %42, align 4, !dbg !6812
  %44 = icmp sgt i32 %43, 25, !dbg !6812
  br i1 %44, label %45, label %53, !dbg !6812

; <label>:45                                      ; preds = %24
  %46 = getelementptr inbounds %"class.FruitClick::Application"* %5, i32 0, i32 4, !dbg !6813
  %47 = load i32* %46, align 4, !dbg !6813
  %48 = sub nsw i32 %47, 2, !dbg !6813
  store i32 %48, i32* %46, align 4, !dbg !6813
  br label %53, !dbg !6813

; <label>:49                                      ; preds = %12
  %50 = landingpad { i8*, i32 } personality i8* bitcast (i32 (...)* @__gxx_personality_v0 to i8*)
          cleanup, !dbg !6804
  %51 = extractvalue { i8*, i32 } %50, 0, !dbg !6804
  store i8* %51, i8** %2, !dbg !6804
  %52 = extractvalue { i8*, i32 } %50, 1, !dbg !6804
  store i32 %52, i32* %3, !dbg !6804
  call void @_ZdlPv(i8* %21) nounwind, !dbg !6804
  br label %56, !dbg !6804

; <label>:53                                      ; preds = %45, %24
  %54 = getelementptr inbounds %"class.FruitClick::Application"* %5, i32 0, i32 3, !dbg !6814
  store i32 0, i32* %54, align 4, !dbg !6814
  br label %55, !dbg !6815

; <label>:55                                      ; preds = %53, %0
  ret void, !dbg !6816

; <label>:56                                      ; preds = %49
  %57 = load i8** %2, !dbg !6804
  %58 = load i8** %2, !dbg !6804
  %59 = load i32* %3, !dbg !6804
  %60 = insertvalue { i8*, i32 } undef, i8* %58, 0, !dbg !6804
  %61 = insertvalue { i8*, i32 } %60, i32 %59, 1, !dbg !6804
  resume { i8*, i32 } %61, !dbg !6804
}

declare i32 @rand() nounwind

declare noalias i8* @_Znwj(i32)

declare void @_ZN10FruitClick5AppleC1ER7b2World(%"class.FruitClick::Apple"*, %class.b2World*)

declare void @_ZN10FruitClick9B2DObject11setVelocityEff(%"class.FruitClick::B2DObject"*, float, float)

declare void @_ZN10FruitClick9B2DObject18setAngularVelocityEf(%"class.FruitClick::B2DObject"*, float)

define linkonce_odr void @_ZNSt3setIPN10FruitClick5AppleESt4lessIS2_ESaIS2_EE6insertERKS2_(%"struct.std::pair"* noalias sret %agg.result, %"class.std::set"* %this, %"class.FruitClick::Apple"** %__x) align 2 {
  %1 = alloca %"class.std::set"*, align 4
  %2 = alloca %"class.FruitClick::Apple"**, align 4
  %__p = alloca %"struct.std::pair.7", align 4
  %3 = alloca %"struct.std::_Rb_tree_const_iterator", align 4
  store %"class.std::set"* %this, %"class.std::set"** %1, align 4
  call void @llvm.dbg.declare(metadata !{%"class.std::set"** %1}, metadata !6817), !dbg !6818
  store %"class.FruitClick::Apple"** %__x, %"class.FruitClick::Apple"*** %2, align 4
  call void @llvm.dbg.declare(metadata !{%"class.FruitClick::Apple"*** %2}, metadata !6819), !dbg !6820
  %4 = load %"class.std::set"** %1
  call void @llvm.dbg.declare(metadata !{%"struct.std::pair.7"* %__p}, metadata !6821), !dbg !6823
  %5 = getelementptr inbounds %"class.std::set"* %4, i32 0, i32 0, !dbg !6824
  %6 = load %"class.FruitClick::Apple"*** %2, !dbg !6824
  call void @_ZNSt8_Rb_treeIPN10FruitClick5AppleES2_St9_IdentityIS2_ESt4lessIS2_ESaIS2_EE16_M_insert_uniqueERKS2_(%"struct.std::pair.7"* sret %__p, %"class.std::_Rb_tree"* %5, %"class.FruitClick::Apple"** %6), !dbg !6824
  %7 = getelementptr inbounds %"struct.std::pair.7"* %__p, i32 0, i32 0, !dbg !6825
  call void @_ZNSt23_Rb_tree_const_iteratorIPN10FruitClick5AppleEEC1ERKSt17_Rb_tree_iteratorIS2_E(%"struct.std::_Rb_tree_const_iterator"* %3, %"struct.std::_Rb_tree_iterator"* %7), !dbg !6825
  %8 = getelementptr inbounds %"struct.std::pair.7"* %__p, i32 0, i32 1, !dbg !6825
  call void @_ZNSt4pairISt23_Rb_tree_const_iteratorIPN10FruitClick5AppleEEbEC1ERKS4_RKb(%"struct.std::pair"* %agg.result, %"struct.std::_Rb_tree_const_iterator"* %3, i8* %8), !dbg !6825
  ret void, !dbg !6825
}

define linkonce_odr i32 @_ZNKSt6vectorIPN10FruitClick5AppleESaIS2_EE4sizeEv(%"class.std::vector"* %this) nounwind align 2 {
  %1 = alloca %"class.std::vector"*, align 4
  store %"class.std::vector"* %this, %"class.std::vector"** %1, align 4
  call void @llvm.dbg.declare(metadata !{%"class.std::vector"** %1}, metadata !6826), !dbg !6827
  %2 = load %"class.std::vector"** %1
  %3 = bitcast %"class.std::vector"* %2 to %"struct.std::_Vector_base"*, !dbg !6828
  %4 = getelementptr inbounds %"struct.std::_Vector_base"* %3, i32 0, i32 0, !dbg !6828
  %5 = getelementptr inbounds %"struct.std::_Vector_base<FruitClick::Apple *, std::allocator<FruitClick::Apple *> >::_Vector_impl"* %4, i32 0, i32 1, !dbg !6828
  %6 = load %"class.FruitClick::Apple"*** %5, align 4, !dbg !6828
  %7 = bitcast %"class.std::vector"* %2 to %"struct.std::_Vector_base"*, !dbg !6828
  %8 = getelementptr inbounds %"struct.std::_Vector_base"* %7, i32 0, i32 0, !dbg !6828
  %9 = getelementptr inbounds %"struct.std::_Vector_base<FruitClick::Apple *, std::allocator<FruitClick::Apple *> >::_Vector_impl"* %8, i32 0, i32 0, !dbg !6828
  %10 = load %"class.FruitClick::Apple"*** %9, align 4, !dbg !6828
  %11 = ptrtoint %"class.FruitClick::Apple"** %6 to i32, !dbg !6828
  %12 = ptrtoint %"class.FruitClick::Apple"** %10 to i32, !dbg !6828
  %13 = sub i32 %11, %12, !dbg !6828
  %14 = sdiv exact i32 %13, 4, !dbg !6828
  ret i32 %14, !dbg !6828
}

define linkonce_odr %"class.FruitClick::Apple"** @_ZNSt6vectorIPN10FruitClick5AppleESaIS2_EEixEj(%"class.std::vector"* %this, i32 %__n) nounwind align 2 {
  %1 = alloca %"class.std::vector"*, align 4
  %2 = alloca i32, align 4
  store %"class.std::vector"* %this, %"class.std::vector"** %1, align 4
  call void @llvm.dbg.declare(metadata !{%"class.std::vector"** %1}, metadata !6830), !dbg !6831
  store i32 %__n, i32* %2, align 4
  call void @llvm.dbg.declare(metadata !{i32* %2}, metadata !6832), !dbg !6833
  %3 = load %"class.std::vector"** %1
  %4 = bitcast %"class.std::vector"* %3 to %"struct.std::_Vector_base"*, !dbg !6834
  %5 = getelementptr inbounds %"struct.std::_Vector_base"* %4, i32 0, i32 0, !dbg !6834
  %6 = getelementptr inbounds %"struct.std::_Vector_base<FruitClick::Apple *, std::allocator<FruitClick::Apple *> >::_Vector_impl"* %5, i32 0, i32 0, !dbg !6834
  %7 = load %"class.FruitClick::Apple"*** %6, align 4, !dbg !6834
  %8 = load i32* %2, align 4, !dbg !6834
  %9 = getelementptr inbounds %"class.FruitClick::Apple"** %7, i32 %8, !dbg !6834
  ret %"class.FruitClick::Apple"** %9, !dbg !6834
}

define linkonce_odr i32 @_ZNSt3setIPN10FruitClick5AppleESt4lessIS2_ESaIS2_EE5eraseERKS2_(%"class.std::set"* %this, %"class.FruitClick::Apple"** %__x) align 2 {
  %1 = alloca %"class.std::set"*, align 4
  %2 = alloca %"class.FruitClick::Apple"**, align 4
  store %"class.std::set"* %this, %"class.std::set"** %1, align 4
  call void @llvm.dbg.declare(metadata !{%"class.std::set"** %1}, metadata !6836), !dbg !6837
  store %"class.FruitClick::Apple"** %__x, %"class.FruitClick::Apple"*** %2, align 4
  call void @llvm.dbg.declare(metadata !{%"class.FruitClick::Apple"*** %2}, metadata !6838), !dbg !6839
  %3 = load %"class.std::set"** %1
  %4 = getelementptr inbounds %"class.std::set"* %3, i32 0, i32 0, !dbg !6840
  %5 = load %"class.FruitClick::Apple"*** %2, !dbg !6840
  %6 = call i32 @_ZNSt8_Rb_treeIPN10FruitClick5AppleES2_St9_IdentityIS2_ESt4lessIS2_ESaIS2_EE5eraseERKS2_(%"class.std::_Rb_tree"* %4, %"class.FruitClick::Apple"** %5), !dbg !6840
  ret i32 %6, !dbg !6840
}

define linkonce_odr void @_ZNSt6vectorIPN10FruitClick5AppleESaIS2_EE5clearEv(%"class.std::vector"* %this) align 2 {
  %1 = alloca %"class.std::vector"*, align 4
  store %"class.std::vector"* %this, %"class.std::vector"** %1, align 4
  call void @llvm.dbg.declare(metadata !{%"class.std::vector"** %1}, metadata !6842), !dbg !6843
  %2 = load %"class.std::vector"** %1
  %3 = bitcast %"class.std::vector"* %2 to %"struct.std::_Vector_base"*, !dbg !6844
  %4 = getelementptr inbounds %"struct.std::_Vector_base"* %3, i32 0, i32 0, !dbg !6844
  %5 = getelementptr inbounds %"struct.std::_Vector_base<FruitClick::Apple *, std::allocator<FruitClick::Apple *> >::_Vector_impl"* %4, i32 0, i32 0, !dbg !6844
  %6 = load %"class.FruitClick::Apple"*** %5, align 4, !dbg !6844
  call void @_ZNSt6vectorIPN10FruitClick5AppleESaIS2_EE15_M_erase_at_endEPS2_(%"class.std::vector"* %2, %"class.FruitClick::Apple"** %6), !dbg !6844
  ret void, !dbg !6846
}

define void @_ZN10FruitClick11Application10touchAppleEPNS_5AppleE(%"class.FruitClick::Application"* %this, %"class.FruitClick::Apple"* %apple) align 2 {
  %1 = alloca %"class.FruitClick::Application"*, align 4
  %2 = alloca %"class.FruitClick::Apple"*, align 4
  store %"class.FruitClick::Application"* %this, %"class.FruitClick::Application"** %1, align 4
  call void @llvm.dbg.declare(metadata !{%"class.FruitClick::Application"** %1}, metadata !6847), !dbg !6848
  store %"class.FruitClick::Apple"* %apple, %"class.FruitClick::Apple"** %2, align 4
  call void @llvm.dbg.declare(metadata !{%"class.FruitClick::Apple"** %2}, metadata !6849), !dbg !6850
  %3 = load %"class.FruitClick::Application"** %1
  %4 = getelementptr inbounds %"class.FruitClick::Application"* %3, i32 0, i32 6, !dbg !6851
  call void @_ZNSt6vectorIPN10FruitClick5AppleESaIS2_EE9push_backERKS2_(%"class.std::vector"* %4, %"class.FruitClick::Apple"** %2), !dbg !6851
  call void @_ZN10FruitClick8Platform9playSoundENS0_5SoundE(i32 0), !dbg !6853
  %5 = getelementptr inbounds %"class.FruitClick::Application"* %3, i32 0, i32 7, !dbg !6854
  %6 = load i32* %5, align 4, !dbg !6854
  %7 = add nsw i32 %6, 1, !dbg !6854
  store i32 %7, i32* %5, align 4, !dbg !6854
  ret void, !dbg !6855
}

define linkonce_odr void @_ZNSt6vectorIPN10FruitClick5AppleESaIS2_EE9push_backERKS2_(%"class.std::vector"* %this, %"class.FruitClick::Apple"** %__x) align 2 {
  %1 = alloca %"class.std::vector"*, align 4
  %2 = alloca %"class.FruitClick::Apple"**, align 4
  %3 = alloca %"class.__gnu_cxx::__normal_iterator", align 4
  store %"class.std::vector"* %this, %"class.std::vector"** %1, align 4
  call void @llvm.dbg.declare(metadata !{%"class.std::vector"** %1}, metadata !6856), !dbg !6857
  store %"class.FruitClick::Apple"** %__x, %"class.FruitClick::Apple"*** %2, align 4
  call void @llvm.dbg.declare(metadata !{%"class.FruitClick::Apple"*** %2}, metadata !6858), !dbg !6859
  %4 = load %"class.std::vector"** %1
  %5 = bitcast %"class.std::vector"* %4 to %"struct.std::_Vector_base"*, !dbg !6860
  %6 = getelementptr inbounds %"struct.std::_Vector_base"* %5, i32 0, i32 0, !dbg !6860
  %7 = getelementptr inbounds %"struct.std::_Vector_base<FruitClick::Apple *, std::allocator<FruitClick::Apple *> >::_Vector_impl"* %6, i32 0, i32 1, !dbg !6860
  %8 = load %"class.FruitClick::Apple"*** %7, align 4, !dbg !6860
  %9 = bitcast %"class.std::vector"* %4 to %"struct.std::_Vector_base"*, !dbg !6860
  %10 = getelementptr inbounds %"struct.std::_Vector_base"* %9, i32 0, i32 0, !dbg !6860
  %11 = getelementptr inbounds %"struct.std::_Vector_base<FruitClick::Apple *, std::allocator<FruitClick::Apple *> >::_Vector_impl"* %10, i32 0, i32 2, !dbg !6860
  %12 = load %"class.FruitClick::Apple"*** %11, align 4, !dbg !6860
  %13 = icmp ne %"class.FruitClick::Apple"** %8, %12, !dbg !6860
  br i1 %13, label %14, label %28, !dbg !6860

; <label>:14                                      ; preds = %0
  %15 = bitcast %"class.std::vector"* %4 to %"struct.std::_Vector_base"*, !dbg !6862
  %16 = getelementptr inbounds %"struct.std::_Vector_base"* %15, i32 0, i32 0, !dbg !6862
  %17 = bitcast %"struct.std::_Vector_base<FruitClick::Apple *, std::allocator<FruitClick::Apple *> >::_Vector_impl"* %16 to %"class.__gnu_cxx::new_allocator.1"*, !dbg !6862
  %18 = bitcast %"class.std::vector"* %4 to %"struct.std::_Vector_base"*, !dbg !6862
  %19 = getelementptr inbounds %"struct.std::_Vector_base"* %18, i32 0, i32 0, !dbg !6862
  %20 = getelementptr inbounds %"struct.std::_Vector_base<FruitClick::Apple *, std::allocator<FruitClick::Apple *> >::_Vector_impl"* %19, i32 0, i32 1, !dbg !6862
  %21 = load %"class.FruitClick::Apple"*** %20, align 4, !dbg !6862
  %22 = load %"class.FruitClick::Apple"*** %2, !dbg !6862
  call void @_ZN9__gnu_cxx13new_allocatorIPN10FruitClick5AppleEE9constructEPS3_RKS3_(%"class.__gnu_cxx::new_allocator.1"* %17, %"class.FruitClick::Apple"** %21, %"class.FruitClick::Apple"** %22), !dbg !6862
  %23 = bitcast %"class.std::vector"* %4 to %"struct.std::_Vector_base"*, !dbg !6864
  %24 = getelementptr inbounds %"struct.std::_Vector_base"* %23, i32 0, i32 0, !dbg !6864
  %25 = getelementptr inbounds %"struct.std::_Vector_base<FruitClick::Apple *, std::allocator<FruitClick::Apple *> >::_Vector_impl"* %24, i32 0, i32 1, !dbg !6864
  %26 = load %"class.FruitClick::Apple"*** %25, align 4, !dbg !6864
  %27 = getelementptr inbounds %"class.FruitClick::Apple"** %26, i32 1, !dbg !6864
  store %"class.FruitClick::Apple"** %27, %"class.FruitClick::Apple"*** %25, align 4, !dbg !6864
  br label %30, !dbg !6865

; <label>:28                                      ; preds = %0
  call void @_ZNSt6vectorIPN10FruitClick5AppleESaIS2_EE3endEv(%"class.__gnu_cxx::__normal_iterator"* sret %3, %"class.std::vector"* %4), !dbg !6866
  %29 = load %"class.FruitClick::Apple"*** %2, !dbg !6866
  call void @_ZNSt6vectorIPN10FruitClick5AppleESaIS2_EE13_M_insert_auxEN9__gnu_cxx17__normal_iteratorIPS2_S4_EERKS2_(%"class.std::vector"* %4, %"class.__gnu_cxx::__normal_iterator"* byval align 4 %3, %"class.FruitClick::Apple"** %29), !dbg !6866
  br label %30

; <label>:30                                      ; preds = %28, %14
  ret void, !dbg !6867
}

declare void @_ZN10FruitClick8Platform9playSoundENS0_5SoundE(i32)

define void @_ZN10FruitClick11Application10crashAppleEPNS_5AppleE(%"class.FruitClick::Application"* %this, %"class.FruitClick::Apple"* %apple) align 2 {
  %1 = alloca %"class.FruitClick::Application"*, align 4
  %2 = alloca %"class.FruitClick::Apple"*, align 4
  store %"class.FruitClick::Application"* %this, %"class.FruitClick::Application"** %1, align 4
  call void @llvm.dbg.declare(metadata !{%"class.FruitClick::Application"** %1}, metadata !6868), !dbg !6869
  store %"class.FruitClick::Apple"* %apple, %"class.FruitClick::Apple"** %2, align 4
  call void @llvm.dbg.declare(metadata !{%"class.FruitClick::Apple"** %2}, metadata !6870), !dbg !6871
  %3 = load %"class.FruitClick::Application"** %1
  %4 = getelementptr inbounds %"class.FruitClick::Application"* %3, i32 0, i32 6, !dbg !6872
  call void @_ZNSt6vectorIPN10FruitClick5AppleESaIS2_EE9push_backERKS2_(%"class.std::vector"* %4, %"class.FruitClick::Apple"** %2), !dbg !6872
  call void @_ZN10FruitClick8Platform9playSoundENS0_5SoundE(i32 1), !dbg !6874
  %5 = getelementptr inbounds %"class.FruitClick::Application"* %3, i32 0, i32 8, !dbg !6875
  %6 = load i32* %5, align 4, !dbg !6875
  %7 = add nsw i32 %6, -1, !dbg !6875
  store i32 %7, i32* %5, align 4, !dbg !6875
  call void @_ZN10FruitClick8Platform3logEPKc(i8* getelementptr inbounds ([7 x i8]* @.str2, i32 0, i32 0)), !dbg !6876
  ret void, !dbg !6877
}

declare void @_ZN10FruitClick8Platform3logEPKc(i8*)

define zeroext i1 @_ZN10FruitClick11Application13ReportFixtureEP9b2Fixture(%"class.FruitClick::Application"* %this, %class.b2Fixture* %fixture) align 2 {
  %1 = alloca %"class.FruitClick::Application"*, align 4
  %2 = alloca %class.b2Fixture*, align 4
  %object = alloca %"class.FruitClick::B2DObject"*, align 4
  %apple = alloca %"class.FruitClick::Apple"*, align 4
  store %"class.FruitClick::Application"* %this, %"class.FruitClick::Application"** %1, align 4
  call void @llvm.dbg.declare(metadata !{%"class.FruitClick::Application"** %1}, metadata !6878), !dbg !6879
  store %class.b2Fixture* %fixture, %class.b2Fixture** %2, align 4
  call void @llvm.dbg.declare(metadata !{%class.b2Fixture** %2}, metadata !6880), !dbg !6881
  %3 = load %"class.FruitClick::Application"** %1
  call void @llvm.dbg.declare(metadata !{%"class.FruitClick::B2DObject"** %object}, metadata !6882), !dbg !6884
  %4 = load %class.b2Fixture** %2, align 4, !dbg !6885
  %5 = call %class.b2Body* @_ZN9b2Fixture7GetBodyEv(%class.b2Fixture* %4), !dbg !6885
  %6 = call i8* @_ZNK6b2Body11GetUserDataEv(%class.b2Body* %5), !dbg !6885
  %7 = bitcast i8* %6 to %"class.FruitClick::B2DObject"*, !dbg !6885
  store %"class.FruitClick::B2DObject"* %7, %"class.FruitClick::B2DObject"** %object, align 4, !dbg !6885
  call void @llvm.dbg.declare(metadata !{%"class.FruitClick::Apple"** %apple}, metadata !6886), !dbg !6887
  %8 = load %"class.FruitClick::B2DObject"** %object, align 4, !dbg !6888
  %9 = icmp eq %"class.FruitClick::B2DObject"* %8, null, !dbg !6888
  br i1 %9, label %14, label %10, !dbg !6888

; <label>:10                                      ; preds = %0
  %11 = bitcast %"class.FruitClick::B2DObject"* %8 to i8*, !dbg !6888
  %12 = call i8* @__dynamic_cast(i8* %11, i8* bitcast (i8** @_ZTIN10FruitClick9B2DObjectE to i8*), i8* bitcast ({ i8*, i8*, i8* }* @_ZTIN10FruitClick5AppleE to i8*), i32 -1), !dbg !6888
  %13 = bitcast i8* %12 to %"class.FruitClick::Apple"*, !dbg !6888
  br label %15, !dbg !6888

; <label>:14                                      ; preds = %0
  br label %15, !dbg !6888

; <label>:15                                      ; preds = %14, %10
  %16 = phi %"class.FruitClick::Apple"* [ %13, %10 ], [ null, %14 ], !dbg !6888
  store %"class.FruitClick::Apple"* %16, %"class.FruitClick::Apple"** %apple, align 4, !dbg !6888
  %17 = load %"class.FruitClick::Apple"** %apple, align 4, !dbg !6889
  %18 = icmp ne %"class.FruitClick::Apple"* %17, null, !dbg !6889
  br i1 %18, label %19, label %21, !dbg !6889

; <label>:19                                      ; preds = %15
  %20 = load %"class.FruitClick::Apple"** %apple, align 4, !dbg !6890
  call void @_ZN10FruitClick11Application10touchAppleEPNS_5AppleE(%"class.FruitClick::Application"* %3, %"class.FruitClick::Apple"* %20), !dbg !6890
  br label %21, !dbg !6890

; <label>:21                                      ; preds = %19, %15
  ret i1 false, !dbg !6891
}

define linkonce_odr %class.b2Body* @_ZN9b2Fixture7GetBodyEv(%class.b2Fixture* %this) nounwind inlinehint align 2 {
  %1 = alloca %class.b2Fixture*, align 4
  store %class.b2Fixture* %this, %class.b2Fixture** %1, align 4
  call void @llvm.dbg.declare(metadata !{%class.b2Fixture** %1}, metadata !6892), !dbg !6893
  %2 = load %class.b2Fixture** %1
  %3 = getelementptr inbounds %class.b2Fixture* %2, i32 0, i32 2, !dbg !6894
  %4 = load %class.b2Body** %3, align 4, !dbg !6894
  ret %class.b2Body* %4, !dbg !6894
}

define linkonce_odr i8* @_ZNK6b2Body11GetUserDataEv(%class.b2Body* %this) nounwind inlinehint align 2 {
  %1 = alloca %class.b2Body*, align 4
  store %class.b2Body* %this, %class.b2Body** %1, align 4
  call void @llvm.dbg.declare(metadata !{%class.b2Body** %1}, metadata !6896), !dbg !6897
  %2 = load %class.b2Body** %1
  %3 = getelementptr inbounds %class.b2Body* %2, i32 0, i32 24, !dbg !6898
  %4 = load i8** %3, align 4, !dbg !6898
  ret i8* %4, !dbg !6898
}

declare i8* @__dynamic_cast(i8*, i8*, i8*, i32)

define zeroext i1 @_ZThn4_N10FruitClick11Application13ReportFixtureEP9b2Fixture(%"class.FruitClick::Application"* %this, %class.b2Fixture* %fixture) {
  %1 = alloca %"class.FruitClick::Application"*, align 4
  %2 = alloca %class.b2Fixture*, align 4
  store %"class.FruitClick::Application"* %this, %"class.FruitClick::Application"** %1, align 4
  store %class.b2Fixture* %fixture, %class.b2Fixture** %2, align 4
  %3 = load %"class.FruitClick::Application"** %1
  %4 = bitcast %"class.FruitClick::Application"* %3 to i8*
  %5 = getelementptr inbounds i8* %4, i64 -4
  %6 = bitcast i8* %5 to %"class.FruitClick::Application"*
  %7 = load %class.b2Fixture** %2, align 4
  %8 = call zeroext i1 @_ZN10FruitClick11Application13ReportFixtureEP9b2Fixture(%"class.FruitClick::Application"* %6, %class.b2Fixture* %7)
  ret i1 %8
}

define void @_ZN10FruitClick11Application12BeginContactEP9b2Contact(%"class.FruitClick::Application"* %this, %class.b2Contact* %contact) align 2 {
  %1 = alloca %"class.FruitClick::Application"*, align 4
  %2 = alloca %class.b2Contact*, align 4
  %object1 = alloca %"class.FruitClick::B2DObject"*, align 4
  %object2 = alloca %"class.FruitClick::B2DObject"*, align 4
  %apple = alloca %"class.FruitClick::Apple"*, align 4
  %grass = alloca %"class.FruitClick::Grass"*, align 4
  %grass1 = alloca %"class.FruitClick::Grass"*, align 4
  store %"class.FruitClick::Application"* %this, %"class.FruitClick::Application"** %1, align 4
  call void @llvm.dbg.declare(metadata !{%"class.FruitClick::Application"** %1}, metadata !6900), !dbg !6901
  store %class.b2Contact* %contact, %class.b2Contact** %2, align 4
  call void @llvm.dbg.declare(metadata !{%class.b2Contact** %2}, metadata !6902), !dbg !6903
  %3 = load %"class.FruitClick::Application"** %1
  call void @llvm.dbg.declare(metadata !{%"class.FruitClick::B2DObject"** %object1}, metadata !6904), !dbg !6906
  %4 = load %class.b2Contact** %2, align 4, !dbg !6907
  %5 = call %class.b2Fixture* @_ZN9b2Contact11GetFixtureAEv(%class.b2Contact* %4), !dbg !6907
  %6 = call %class.b2Body* @_ZN9b2Fixture7GetBodyEv(%class.b2Fixture* %5), !dbg !6907
  %7 = call i8* @_ZNK6b2Body11GetUserDataEv(%class.b2Body* %6), !dbg !6907
  %8 = bitcast i8* %7 to %"class.FruitClick::B2DObject"*, !dbg !6907
  store %"class.FruitClick::B2DObject"* %8, %"class.FruitClick::B2DObject"** %object1, align 4, !dbg !6907
  call void @llvm.dbg.declare(metadata !{%"class.FruitClick::B2DObject"** %object2}, metadata !6908), !dbg !6909
  %9 = load %class.b2Contact** %2, align 4, !dbg !6910
  %10 = call %class.b2Fixture* @_ZN9b2Contact11GetFixtureBEv(%class.b2Contact* %9), !dbg !6910
  %11 = call %class.b2Body* @_ZN9b2Fixture7GetBodyEv(%class.b2Fixture* %10), !dbg !6910
  %12 = call i8* @_ZNK6b2Body11GetUserDataEv(%class.b2Body* %11), !dbg !6910
  %13 = bitcast i8* %12 to %"class.FruitClick::B2DObject"*, !dbg !6910
  store %"class.FruitClick::B2DObject"* %13, %"class.FruitClick::B2DObject"** %object2, align 4, !dbg !6910
  call void @llvm.dbg.declare(metadata !{%"class.FruitClick::Apple"** %apple}, metadata !6911), !dbg !6912
  %14 = load %"class.FruitClick::B2DObject"** %object1, align 4, !dbg !6913
  %15 = icmp eq %"class.FruitClick::B2DObject"* %14, null, !dbg !6913
  br i1 %15, label %20, label %16, !dbg !6913

; <label>:16                                      ; preds = %0
  %17 = bitcast %"class.FruitClick::B2DObject"* %14 to i8*, !dbg !6913
  %18 = call i8* @__dynamic_cast(i8* %17, i8* bitcast (i8** @_ZTIN10FruitClick9B2DObjectE to i8*), i8* bitcast ({ i8*, i8*, i8* }* @_ZTIN10FruitClick5AppleE to i8*), i32 -1), !dbg !6913
  %19 = bitcast i8* %18 to %"class.FruitClick::Apple"*, !dbg !6913
  br label %21, !dbg !6913

; <label>:20                                      ; preds = %0
  br label %21, !dbg !6913

; <label>:21                                      ; preds = %20, %16
  %22 = phi %"class.FruitClick::Apple"* [ %19, %16 ], [ null, %20 ], !dbg !6913
  store %"class.FruitClick::Apple"* %22, %"class.FruitClick::Apple"** %apple, align 4, !dbg !6913
  %23 = load %"class.FruitClick::Apple"** %apple, align 4, !dbg !6914
  %24 = icmp ne %"class.FruitClick::Apple"* %23, null, !dbg !6914
  br i1 %24, label %25, label %40, !dbg !6914

; <label>:25                                      ; preds = %21
  call void @llvm.dbg.declare(metadata !{%"class.FruitClick::Grass"** %grass}, metadata !6915), !dbg !6917
  %26 = load %"class.FruitClick::B2DObject"** %object2, align 4, !dbg !6918
  %27 = icmp eq %"class.FruitClick::B2DObject"* %26, null, !dbg !6918
  br i1 %27, label %32, label %28, !dbg !6918

; <label>:28                                      ; preds = %25
  %29 = bitcast %"class.FruitClick::B2DObject"* %26 to i8*, !dbg !6918
  %30 = call i8* @__dynamic_cast(i8* %29, i8* bitcast (i8** @_ZTIN10FruitClick9B2DObjectE to i8*), i8* bitcast ({ i8*, i8*, i8* }* @_ZTIN10FruitClick5GrassE to i8*), i32 -1), !dbg !6918
  %31 = bitcast i8* %30 to %"class.FruitClick::Grass"*, !dbg !6918
  br label %33, !dbg !6918

; <label>:32                                      ; preds = %25
  br label %33, !dbg !6918

; <label>:33                                      ; preds = %32, %28
  %34 = phi %"class.FruitClick::Grass"* [ %31, %28 ], [ null, %32 ], !dbg !6918
  store %"class.FruitClick::Grass"* %34, %"class.FruitClick::Grass"** %grass, align 4, !dbg !6918
  %35 = load %"class.FruitClick::Grass"** %grass, align 4, !dbg !6919
  %36 = icmp ne %"class.FruitClick::Grass"* %35, null, !dbg !6919
  br i1 %36, label %37, label %39, !dbg !6919

; <label>:37                                      ; preds = %33
  %38 = load %"class.FruitClick::Apple"** %apple, align 4, !dbg !6920
  call void @_ZN10FruitClick11Application10crashAppleEPNS_5AppleE(%"class.FruitClick::Application"* %3, %"class.FruitClick::Apple"* %38), !dbg !6920
  br label %39, !dbg !6922

; <label>:39                                      ; preds = %37, %33
  br label %68, !dbg !6923

; <label>:40                                      ; preds = %21
  %41 = load %"class.FruitClick::B2DObject"** %object2, align 4, !dbg !6924
  %42 = icmp eq %"class.FruitClick::B2DObject"* %41, null, !dbg !6924
  br i1 %42, label %47, label %43, !dbg !6924

; <label>:43                                      ; preds = %40
  %44 = bitcast %"class.FruitClick::B2DObject"* %41 to i8*, !dbg !6924
  %45 = call i8* @__dynamic_cast(i8* %44, i8* bitcast (i8** @_ZTIN10FruitClick9B2DObjectE to i8*), i8* bitcast ({ i8*, i8*, i8* }* @_ZTIN10FruitClick5AppleE to i8*), i32 -1), !dbg !6924
  %46 = bitcast i8* %45 to %"class.FruitClick::Apple"*, !dbg !6924
  br label %48, !dbg !6924

; <label>:47                                      ; preds = %40
  br label %48, !dbg !6924

; <label>:48                                      ; preds = %47, %43
  %49 = phi %"class.FruitClick::Apple"* [ %46, %43 ], [ null, %47 ], !dbg !6924
  store %"class.FruitClick::Apple"* %49, %"class.FruitClick::Apple"** %apple, align 4, !dbg !6924
  %50 = load %"class.FruitClick::Apple"** %apple, align 4, !dbg !6926
  %51 = icmp ne %"class.FruitClick::Apple"* %50, null, !dbg !6926
  br i1 %51, label %52, label %67, !dbg !6926

; <label>:52                                      ; preds = %48
  call void @llvm.dbg.declare(metadata !{%"class.FruitClick::Grass"** %grass1}, metadata !6927), !dbg !6929
  %53 = load %"class.FruitClick::B2DObject"** %object1, align 4, !dbg !6930
  %54 = icmp eq %"class.FruitClick::B2DObject"* %53, null, !dbg !6930
  br i1 %54, label %59, label %55, !dbg !6930

; <label>:55                                      ; preds = %52
  %56 = bitcast %"class.FruitClick::B2DObject"* %53 to i8*, !dbg !6930
  %57 = call i8* @__dynamic_cast(i8* %56, i8* bitcast (i8** @_ZTIN10FruitClick9B2DObjectE to i8*), i8* bitcast ({ i8*, i8*, i8* }* @_ZTIN10FruitClick5GrassE to i8*), i32 -1), !dbg !6930
  %58 = bitcast i8* %57 to %"class.FruitClick::Grass"*, !dbg !6930
  br label %60, !dbg !6930

; <label>:59                                      ; preds = %52
  br label %60, !dbg !6930

; <label>:60                                      ; preds = %59, %55
  %61 = phi %"class.FruitClick::Grass"* [ %58, %55 ], [ null, %59 ], !dbg !6930
  store %"class.FruitClick::Grass"* %61, %"class.FruitClick::Grass"** %grass1, align 4, !dbg !6930
  %62 = load %"class.FruitClick::Grass"** %grass1, align 4, !dbg !6931
  %63 = icmp ne %"class.FruitClick::Grass"* %62, null, !dbg !6931
  br i1 %63, label %64, label %66, !dbg !6931

; <label>:64                                      ; preds = %60
  %65 = load %"class.FruitClick::Apple"** %apple, align 4, !dbg !6932
  call void @_ZN10FruitClick11Application10crashAppleEPNS_5AppleE(%"class.FruitClick::Application"* %3, %"class.FruitClick::Apple"* %65), !dbg !6932
  br label %66, !dbg !6934

; <label>:66                                      ; preds = %64, %60
  br label %67, !dbg !6935

; <label>:67                                      ; preds = %66, %48
  br label %68

; <label>:68                                      ; preds = %67, %39
  ret void, !dbg !6936
}

define linkonce_odr %class.b2Fixture* @_ZN9b2Contact11GetFixtureAEv(%class.b2Contact* %this) nounwind inlinehint align 2 {
  %1 = alloca %class.b2Contact*, align 4
  store %class.b2Contact* %this, %class.b2Contact** %1, align 4
  call void @llvm.dbg.declare(metadata !{%class.b2Contact** %1}, metadata !6937), !dbg !6938
  %2 = load %class.b2Contact** %1
  %3 = getelementptr inbounds %class.b2Contact* %2, i32 0, i32 6, !dbg !6939
  %4 = load %class.b2Fixture** %3, align 4, !dbg !6939
  ret %class.b2Fixture* %4, !dbg !6939
}

define linkonce_odr %class.b2Fixture* @_ZN9b2Contact11GetFixtureBEv(%class.b2Contact* %this) nounwind inlinehint align 2 {
  %1 = alloca %class.b2Contact*, align 4
  store %class.b2Contact* %this, %class.b2Contact** %1, align 4
  call void @llvm.dbg.declare(metadata !{%class.b2Contact** %1}, metadata !6941), !dbg !6942
  %2 = load %class.b2Contact** %1
  %3 = getelementptr inbounds %class.b2Contact* %2, i32 0, i32 7, !dbg !6943
  %4 = load %class.b2Fixture** %3, align 4, !dbg !6943
  ret %class.b2Fixture* %4, !dbg !6943
}

define linkonce_odr void @_ZN17b2ContactListener10EndContactEP9b2Contact(%class.b2ContactListener* %this, %class.b2Contact* %contact) nounwind align 2 {
  %1 = alloca %class.b2ContactListener*, align 4
  %2 = alloca %class.b2Contact*, align 4
  store %class.b2ContactListener* %this, %class.b2ContactListener** %1, align 4
  call void @llvm.dbg.declare(metadata !{%class.b2ContactListener** %1}, metadata !6945), !dbg !6946
  store %class.b2Contact* %contact, %class.b2Contact** %2, align 4
  call void @llvm.dbg.declare(metadata !{%class.b2Contact** %2}, metadata !6947), !dbg !6948
  %3 = load %class.b2ContactListener** %1
  ret void, !dbg !6949
}

define linkonce_odr void @_ZN17b2ContactListener8PreSolveEP9b2ContactPK10b2Manifold(%class.b2ContactListener* %this, %class.b2Contact* %contact, %struct.b2Manifold* %oldManifold) nounwind align 2 {
  %1 = alloca %class.b2ContactListener*, align 4
  %2 = alloca %class.b2Contact*, align 4
  %3 = alloca %struct.b2Manifold*, align 4
  store %class.b2ContactListener* %this, %class.b2ContactListener** %1, align 4
  call void @llvm.dbg.declare(metadata !{%class.b2ContactListener** %1}, metadata !6951), !dbg !6952
  store %class.b2Contact* %contact, %class.b2Contact** %2, align 4
  call void @llvm.dbg.declare(metadata !{%class.b2Contact** %2}, metadata !6953), !dbg !6954
  store %struct.b2Manifold* %oldManifold, %struct.b2Manifold** %3, align 4
  call void @llvm.dbg.declare(metadata !{%struct.b2Manifold** %3}, metadata !6955), !dbg !6956
  %4 = load %class.b2ContactListener** %1
  ret void, !dbg !6957
}

define linkonce_odr void @_ZN17b2ContactListener9PostSolveEP9b2ContactPK16b2ContactImpulse(%class.b2ContactListener* %this, %class.b2Contact* %contact, %struct.b2ContactImpulse* %impulse) nounwind align 2 {
  %1 = alloca %class.b2ContactListener*, align 4
  %2 = alloca %class.b2Contact*, align 4
  %3 = alloca %struct.b2ContactImpulse*, align 4
  store %class.b2ContactListener* %this, %class.b2ContactListener** %1, align 4
  call void @llvm.dbg.declare(metadata !{%class.b2ContactListener** %1}, metadata !6959), !dbg !6960
  store %class.b2Contact* %contact, %class.b2Contact** %2, align 4
  call void @llvm.dbg.declare(metadata !{%class.b2Contact** %2}, metadata !6961), !dbg !6962
  store %struct.b2ContactImpulse* %impulse, %struct.b2ContactImpulse** %3, align 4
  call void @llvm.dbg.declare(metadata !{%struct.b2ContactImpulse** %3}, metadata !6963), !dbg !6964
  %4 = load %class.b2ContactListener** %1
  ret void, !dbg !6965
}

define linkonce_odr void @_ZN9__gnu_cxx13new_allocatorIPN10FruitClick5AppleEE9constructEPS3_RKS3_(%"class.__gnu_cxx::new_allocator.1"* %this, %"class.FruitClick::Apple"** %__p, %"class.FruitClick::Apple"** %__val) nounwind align 2 {
  %1 = alloca %"class.__gnu_cxx::new_allocator.1"*, align 4
  %2 = alloca %"class.FruitClick::Apple"**, align 4
  %3 = alloca %"class.FruitClick::Apple"**, align 4
  store %"class.__gnu_cxx::new_allocator.1"* %this, %"class.__gnu_cxx::new_allocator.1"** %1, align 4
  call void @llvm.dbg.declare(metadata !{%"class.__gnu_cxx::new_allocator.1"** %1}, metadata !6967), !dbg !6968
  store %"class.FruitClick::Apple"** %__p, %"class.FruitClick::Apple"*** %2, align 4
  call void @llvm.dbg.declare(metadata !{%"class.FruitClick::Apple"*** %2}, metadata !6969), !dbg !6970
  store %"class.FruitClick::Apple"** %__val, %"class.FruitClick::Apple"*** %3, align 4
  call void @llvm.dbg.declare(metadata !{%"class.FruitClick::Apple"*** %3}, metadata !6971), !dbg !6972
  %4 = load %"class.__gnu_cxx::new_allocator.1"** %1
  %5 = load %"class.FruitClick::Apple"*** %2, align 4, !dbg !6973
  %6 = bitcast %"class.FruitClick::Apple"** %5 to i8*, !dbg !6973
  %7 = icmp eq i8* %6, null, !dbg !6973
  br i1 %7, label %12, label %8, !dbg !6973

; <label>:8                                       ; preds = %0
  %9 = bitcast i8* %6 to %"class.FruitClick::Apple"**, !dbg !6973
  %10 = load %"class.FruitClick::Apple"*** %3, !dbg !6973
  %11 = load %"class.FruitClick::Apple"** %10, align 4, !dbg !6973
  store %"class.FruitClick::Apple"* %11, %"class.FruitClick::Apple"** %9, align 4, !dbg !6973
  br label %12, !dbg !6973

; <label>:12                                      ; preds = %8, %0
  %13 = phi %"class.FruitClick::Apple"** [ %9, %8 ], [ null, %0 ], !dbg !6973
  ret void, !dbg !6975
}

define linkonce_odr void @_ZNSt6vectorIPN10FruitClick5AppleESaIS2_EE13_M_insert_auxEN9__gnu_cxx17__normal_iteratorIPS2_S4_EERKS2_(%"class.std::vector"* %this, %"class.__gnu_cxx::__normal_iterator"* byval align 4 %__position, %"class.FruitClick::Apple"** %__x) align 2 {
  %1 = alloca %"class.std::vector"*, align 4
  %2 = alloca %"class.FruitClick::Apple"**, align 4
  %__x_copy = alloca %"class.FruitClick::Apple"*, align 4
  %__len = alloca i32, align 4
  %__elems_before = alloca i32, align 4
  %3 = alloca %"class.__gnu_cxx::__normal_iterator", align 4
  %__new_start = alloca %"class.FruitClick::Apple"**, align 4
  %__new_finish = alloca %"class.FruitClick::Apple"**, align 4
  %4 = alloca i8*
  %5 = alloca i32
  store %"class.std::vector"* %this, %"class.std::vector"** %1, align 4
  call void @llvm.dbg.declare(metadata !{%"class.std::vector"** %1}, metadata !6976), !dbg !6977
  call void @llvm.dbg.declare(metadata !{%"class.__gnu_cxx::__normal_iterator"* %__position}, metadata !6978), !dbg !6979
  store %"class.FruitClick::Apple"** %__x, %"class.FruitClick::Apple"*** %2, align 4
  call void @llvm.dbg.declare(metadata !{%"class.FruitClick::Apple"*** %2}, metadata !6980), !dbg !6981
  %6 = load %"class.std::vector"** %1
  %7 = bitcast %"class.std::vector"* %6 to %"struct.std::_Vector_base"*, !dbg !6982
  %8 = getelementptr inbounds %"struct.std::_Vector_base"* %7, i32 0, i32 0, !dbg !6982
  %9 = getelementptr inbounds %"struct.std::_Vector_base<FruitClick::Apple *, std::allocator<FruitClick::Apple *> >::_Vector_impl"* %8, i32 0, i32 1, !dbg !6982
  %10 = load %"class.FruitClick::Apple"*** %9, align 4, !dbg !6982
  %11 = bitcast %"class.std::vector"* %6 to %"struct.std::_Vector_base"*, !dbg !6982
  %12 = getelementptr inbounds %"struct.std::_Vector_base"* %11, i32 0, i32 0, !dbg !6982
  %13 = getelementptr inbounds %"struct.std::_Vector_base<FruitClick::Apple *, std::allocator<FruitClick::Apple *> >::_Vector_impl"* %12, i32 0, i32 2, !dbg !6982
  %14 = load %"class.FruitClick::Apple"*** %13, align 4, !dbg !6982
  %15 = icmp ne %"class.FruitClick::Apple"** %10, %14, !dbg !6982
  br i1 %15, label %16, label %51, !dbg !6982

; <label>:16                                      ; preds = %0
  %17 = bitcast %"class.std::vector"* %6 to %"struct.std::_Vector_base"*, !dbg !6984
  %18 = getelementptr inbounds %"struct.std::_Vector_base"* %17, i32 0, i32 0, !dbg !6984
  %19 = bitcast %"struct.std::_Vector_base<FruitClick::Apple *, std::allocator<FruitClick::Apple *> >::_Vector_impl"* %18 to %"class.__gnu_cxx::new_allocator.1"*, !dbg !6984
  %20 = bitcast %"class.std::vector"* %6 to %"struct.std::_Vector_base"*, !dbg !6984
  %21 = getelementptr inbounds %"struct.std::_Vector_base"* %20, i32 0, i32 0, !dbg !6984
  %22 = getelementptr inbounds %"struct.std::_Vector_base<FruitClick::Apple *, std::allocator<FruitClick::Apple *> >::_Vector_impl"* %21, i32 0, i32 1, !dbg !6984
  %23 = load %"class.FruitClick::Apple"*** %22, align 4, !dbg !6984
  %24 = bitcast %"class.std::vector"* %6 to %"struct.std::_Vector_base"*, !dbg !6984
  %25 = getelementptr inbounds %"struct.std::_Vector_base"* %24, i32 0, i32 0, !dbg !6984
  %26 = getelementptr inbounds %"struct.std::_Vector_base<FruitClick::Apple *, std::allocator<FruitClick::Apple *> >::_Vector_impl"* %25, i32 0, i32 1, !dbg !6984
  %27 = load %"class.FruitClick::Apple"*** %26, align 4, !dbg !6984
  %28 = getelementptr inbounds %"class.FruitClick::Apple"** %27, i32 -1, !dbg !6984
  call void @_ZN9__gnu_cxx13new_allocatorIPN10FruitClick5AppleEE9constructEPS3_RKS3_(%"class.__gnu_cxx::new_allocator.1"* %19, %"class.FruitClick::Apple"** %23, %"class.FruitClick::Apple"** %28), !dbg !6984
  %29 = bitcast %"class.std::vector"* %6 to %"struct.std::_Vector_base"*, !dbg !6986
  %30 = getelementptr inbounds %"struct.std::_Vector_base"* %29, i32 0, i32 0, !dbg !6986
  %31 = getelementptr inbounds %"struct.std::_Vector_base<FruitClick::Apple *, std::allocator<FruitClick::Apple *> >::_Vector_impl"* %30, i32 0, i32 1, !dbg !6986
  %32 = load %"class.FruitClick::Apple"*** %31, align 4, !dbg !6986
  %33 = getelementptr inbounds %"class.FruitClick::Apple"** %32, i32 1, !dbg !6986
  store %"class.FruitClick::Apple"** %33, %"class.FruitClick::Apple"*** %31, align 4, !dbg !6986
  call void @llvm.dbg.declare(metadata !{%"class.FruitClick::Apple"** %__x_copy}, metadata !6987), !dbg !6988
  %34 = load %"class.FruitClick::Apple"*** %2, !dbg !6989
  %35 = load %"class.FruitClick::Apple"** %34, align 4, !dbg !6989
  store %"class.FruitClick::Apple"* %35, %"class.FruitClick::Apple"** %__x_copy, align 4, !dbg !6989
  %36 = call %"class.FruitClick::Apple"*** @_ZNK9__gnu_cxx17__normal_iteratorIPPN10FruitClick5AppleESt6vectorIS3_SaIS3_EEE4baseEv(%"class.__gnu_cxx::__normal_iterator"* %__position), !dbg !6990
  %37 = load %"class.FruitClick::Apple"*** %36, !dbg !6990
  %38 = bitcast %"class.std::vector"* %6 to %"struct.std::_Vector_base"*, !dbg !6990
  %39 = getelementptr inbounds %"struct.std::_Vector_base"* %38, i32 0, i32 0, !dbg !6990
  %40 = getelementptr inbounds %"struct.std::_Vector_base<FruitClick::Apple *, std::allocator<FruitClick::Apple *> >::_Vector_impl"* %39, i32 0, i32 1, !dbg !6990
  %41 = load %"class.FruitClick::Apple"*** %40, align 4, !dbg !6990
  %42 = getelementptr inbounds %"class.FruitClick::Apple"** %41, i32 -2, !dbg !6990
  %43 = bitcast %"class.std::vector"* %6 to %"struct.std::_Vector_base"*, !dbg !6990
  %44 = getelementptr inbounds %"struct.std::_Vector_base"* %43, i32 0, i32 0, !dbg !6990
  %45 = getelementptr inbounds %"struct.std::_Vector_base<FruitClick::Apple *, std::allocator<FruitClick::Apple *> >::_Vector_impl"* %44, i32 0, i32 1, !dbg !6990
  %46 = load %"class.FruitClick::Apple"*** %45, align 4, !dbg !6990
  %47 = getelementptr inbounds %"class.FruitClick::Apple"** %46, i32 -1, !dbg !6990
  %48 = call %"class.FruitClick::Apple"** @_ZSt13copy_backwardIPPN10FruitClick5AppleES3_ET0_T_S5_S4_(%"class.FruitClick::Apple"** %37, %"class.FruitClick::Apple"** %42, %"class.FruitClick::Apple"** %47), !dbg !6990
  %49 = load %"class.FruitClick::Apple"** %__x_copy, align 4, !dbg !6991
  %50 = call %"class.FruitClick::Apple"** @_ZNK9__gnu_cxx17__normal_iteratorIPPN10FruitClick5AppleESt6vectorIS3_SaIS3_EEEdeEv(%"class.__gnu_cxx::__normal_iterator"* %__position), !dbg !6991
  store %"class.FruitClick::Apple"* %49, %"class.FruitClick::Apple"** %50, !dbg !6991
  br label %170, !dbg !6992

; <label>:51                                      ; preds = %0
  call void @llvm.dbg.declare(metadata !{i32* %__len}, metadata !6993), !dbg !6996
  %52 = call i32 @_ZNKSt6vectorIPN10FruitClick5AppleESaIS2_EE12_M_check_lenEjPKc(%"class.std::vector"* %6, i32 1, i8* getelementptr inbounds ([22 x i8]* @.str3, i32 0, i32 0)), !dbg !6997
  store i32 %52, i32* %__len, align 4, !dbg !6997
  call void @llvm.dbg.declare(metadata !{i32* %__elems_before}, metadata !6998), !dbg !6999
  call void @_ZNSt6vectorIPN10FruitClick5AppleESaIS2_EE5beginEv(%"class.__gnu_cxx::__normal_iterator"* sret %3, %"class.std::vector"* %6), !dbg !7000
  %53 = call i32 @_ZN9__gnu_cxxmiIPPN10FruitClick5AppleESt6vectorIS3_SaIS3_EEEENS_17__normal_iteratorIT_T0_E15difference_typeERKSB_SE_(%"class.__gnu_cxx::__normal_iterator"* %__position, %"class.__gnu_cxx::__normal_iterator"* %3), !dbg !7000
  store i32 %53, i32* %__elems_before, align 4, !dbg !7000
  call void @llvm.dbg.declare(metadata !{%"class.FruitClick::Apple"*** %__new_start}, metadata !7001), !dbg !7002
  %54 = bitcast %"class.std::vector"* %6 to %"struct.std::_Vector_base"*, !dbg !7003
  %55 = load i32* %__len, align 4, !dbg !7003
  %56 = call %"class.FruitClick::Apple"** @_ZNSt12_Vector_baseIPN10FruitClick5AppleESaIS2_EE11_M_allocateEj(%"struct.std::_Vector_base"* %54, i32 %55), !dbg !7003
  store %"class.FruitClick::Apple"** %56, %"class.FruitClick::Apple"*** %__new_start, align 4, !dbg !7003
  call void @llvm.dbg.declare(metadata !{%"class.FruitClick::Apple"*** %__new_finish}, metadata !7004), !dbg !7005
  %57 = load %"class.FruitClick::Apple"*** %__new_start, align 4, !dbg !7006
  store %"class.FruitClick::Apple"** %57, %"class.FruitClick::Apple"*** %__new_finish, align 4, !dbg !7006
  %58 = bitcast %"class.std::vector"* %6 to %"struct.std::_Vector_base"*, !dbg !7007
  %59 = getelementptr inbounds %"struct.std::_Vector_base"* %58, i32 0, i32 0, !dbg !7007
  %60 = bitcast %"struct.std::_Vector_base<FruitClick::Apple *, std::allocator<FruitClick::Apple *> >::_Vector_impl"* %59 to %"class.__gnu_cxx::new_allocator.1"*, !dbg !7007
  %61 = load %"class.FruitClick::Apple"*** %__new_start, align 4, !dbg !7007
  %62 = load i32* %__elems_before, align 4, !dbg !7007
  %63 = getelementptr inbounds %"class.FruitClick::Apple"** %61, i32 %62, !dbg !7007
  %64 = load %"class.FruitClick::Apple"*** %2, !dbg !7007
  invoke void @_ZN9__gnu_cxx13new_allocatorIPN10FruitClick5AppleEE9constructEPS3_RKS3_(%"class.__gnu_cxx::new_allocator.1"* %60, %"class.FruitClick::Apple"** %63, %"class.FruitClick::Apple"** %64)
          to label %65 unwind label %94, !dbg !7007

; <label>:65                                      ; preds = %51
  store %"class.FruitClick::Apple"** null, %"class.FruitClick::Apple"*** %__new_finish, align 4, !dbg !7009
  %66 = bitcast %"class.std::vector"* %6 to %"struct.std::_Vector_base"*, !dbg !7010
  %67 = getelementptr inbounds %"struct.std::_Vector_base"* %66, i32 0, i32 0, !dbg !7010
  %68 = getelementptr inbounds %"struct.std::_Vector_base<FruitClick::Apple *, std::allocator<FruitClick::Apple *> >::_Vector_impl"* %67, i32 0, i32 0, !dbg !7010
  %69 = load %"class.FruitClick::Apple"*** %68, align 4, !dbg !7010
  %70 = invoke %"class.FruitClick::Apple"*** @_ZNK9__gnu_cxx17__normal_iteratorIPPN10FruitClick5AppleESt6vectorIS3_SaIS3_EEE4baseEv(%"class.__gnu_cxx::__normal_iterator"* %__position)
          to label %71 unwind label %94, !dbg !7011

; <label>:71                                      ; preds = %65
  %72 = load %"class.FruitClick::Apple"*** %70, !dbg !7011
  %73 = load %"class.FruitClick::Apple"*** %__new_start, align 4, !dbg !7011
  %74 = bitcast %"class.std::vector"* %6 to %"struct.std::_Vector_base"*, !dbg !7012
  %75 = invoke %"class.std::allocator.0"* @_ZNSt12_Vector_baseIPN10FruitClick5AppleESaIS2_EE19_M_get_Tp_allocatorEv(%"struct.std::_Vector_base"* %74)
          to label %76 unwind label %94, !dbg !7012

; <label>:76                                      ; preds = %71
  %77 = invoke %"class.FruitClick::Apple"** @_ZSt22__uninitialized_move_aIPPN10FruitClick5AppleES3_SaIS2_EET0_T_S6_S5_RT1_(%"class.FruitClick::Apple"** %69, %"class.FruitClick::Apple"** %72, %"class.FruitClick::Apple"** %73, %"class.std::allocator.0"* %75)
          to label %78 unwind label %94, !dbg !7012

; <label>:78                                      ; preds = %76
  store %"class.FruitClick::Apple"** %77, %"class.FruitClick::Apple"*** %__new_finish, align 4, !dbg !7012
  %79 = load %"class.FruitClick::Apple"*** %__new_finish, align 4, !dbg !7013
  %80 = getelementptr inbounds %"class.FruitClick::Apple"** %79, i32 1, !dbg !7013
  store %"class.FruitClick::Apple"** %80, %"class.FruitClick::Apple"*** %__new_finish, align 4, !dbg !7013
  %81 = invoke %"class.FruitClick::Apple"*** @_ZNK9__gnu_cxx17__normal_iteratorIPPN10FruitClick5AppleESt6vectorIS3_SaIS3_EEE4baseEv(%"class.__gnu_cxx::__normal_iterator"* %__position)
          to label %82 unwind label %94, !dbg !7014

; <label>:82                                      ; preds = %78
  %83 = load %"class.FruitClick::Apple"*** %81, !dbg !7014
  %84 = bitcast %"class.std::vector"* %6 to %"struct.std::_Vector_base"*, !dbg !7014
  %85 = getelementptr inbounds %"struct.std::_Vector_base"* %84, i32 0, i32 0, !dbg !7014
  %86 = getelementptr inbounds %"struct.std::_Vector_base<FruitClick::Apple *, std::allocator<FruitClick::Apple *> >::_Vector_impl"* %85, i32 0, i32 1, !dbg !7014
  %87 = load %"class.FruitClick::Apple"*** %86, align 4, !dbg !7014
  %88 = load %"class.FruitClick::Apple"*** %__new_finish, align 4, !dbg !7014
  %89 = bitcast %"class.std::vector"* %6 to %"struct.std::_Vector_base"*, !dbg !7015
  %90 = invoke %"class.std::allocator.0"* @_ZNSt12_Vector_baseIPN10FruitClick5AppleESaIS2_EE19_M_get_Tp_allocatorEv(%"struct.std::_Vector_base"* %89)
          to label %91 unwind label %94, !dbg !7015

; <label>:91                                      ; preds = %82
  %92 = invoke %"class.FruitClick::Apple"** @_ZSt22__uninitialized_move_aIPPN10FruitClick5AppleES3_SaIS2_EET0_T_S6_S5_RT1_(%"class.FruitClick::Apple"** %83, %"class.FruitClick::Apple"** %87, %"class.FruitClick::Apple"** %88, %"class.std::allocator.0"* %90)
          to label %93 unwind label %94, !dbg !7015

; <label>:93                                      ; preds = %91
  store %"class.FruitClick::Apple"** %92, %"class.FruitClick::Apple"*** %__new_finish, align 4, !dbg !7015
  br label %128, !dbg !7016

; <label>:94                                      ; preds = %91, %82, %78, %76, %71, %65, %51
  %95 = landingpad { i8*, i32 } personality i8* bitcast (i32 (...)* @__gxx_personality_v0 to i8*)
          catch i8* null, !dbg !7007
  %96 = extractvalue { i8*, i32 } %95, 0, !dbg !7007
  store i8* %96, i8** %4, !dbg !7007
  %97 = extractvalue { i8*, i32 } %95, 1, !dbg !7007
  store i32 %97, i32* %5, !dbg !7007
  br label %98, !dbg !7007

; <label>:98                                      ; preds = %94
  %99 = load i8** %4, !dbg !7016
  %100 = call i8* @__cxa_begin_catch(i8* %99) nounwind, !dbg !7016
  %101 = load %"class.FruitClick::Apple"*** %__new_finish, align 4, !dbg !7017
  %102 = icmp ne %"class.FruitClick::Apple"** %101, null, !dbg !7017
  br i1 %102, label %115, label %103, !dbg !7017

; <label>:103                                     ; preds = %98
  %104 = bitcast %"class.std::vector"* %6 to %"struct.std::_Vector_base"*, !dbg !7019
  %105 = getelementptr inbounds %"struct.std::_Vector_base"* %104, i32 0, i32 0, !dbg !7019
  %106 = bitcast %"struct.std::_Vector_base<FruitClick::Apple *, std::allocator<FruitClick::Apple *> >::_Vector_impl"* %105 to %"class.__gnu_cxx::new_allocator.1"*, !dbg !7019
  %107 = load %"class.FruitClick::Apple"*** %__new_start, align 4, !dbg !7019
  %108 = load i32* %__elems_before, align 4, !dbg !7019
  %109 = getelementptr inbounds %"class.FruitClick::Apple"** %107, i32 %108, !dbg !7019
  invoke void @_ZN9__gnu_cxx13new_allocatorIPN10FruitClick5AppleEE7destroyEPS3_(%"class.__gnu_cxx::new_allocator.1"* %106, %"class.FruitClick::Apple"** %109)
          to label %110 unwind label %111, !dbg !7019

; <label>:110                                     ; preds = %103
  br label %122, !dbg !7019

; <label>:111                                     ; preds = %126, %122, %120, %115, %103
  %112 = landingpad { i8*, i32 } personality i8* bitcast (i32 (...)* @__gxx_personality_v0 to i8*)
          cleanup, !dbg !7019
  %113 = extractvalue { i8*, i32 } %112, 0, !dbg !7019
  store i8* %113, i8** %4, !dbg !7019
  %114 = extractvalue { i8*, i32 } %112, 1, !dbg !7019
  store i32 %114, i32* %5, !dbg !7019
  invoke void @__cxa_end_catch()
          to label %127 unwind label %177, !dbg !7020

; <label>:115                                     ; preds = %98
  %116 = load %"class.FruitClick::Apple"*** %__new_start, align 4, !dbg !7021
  %117 = load %"class.FruitClick::Apple"*** %__new_finish, align 4, !dbg !7021
  %118 = bitcast %"class.std::vector"* %6 to %"struct.std::_Vector_base"*, !dbg !7022
  %119 = invoke %"class.std::allocator.0"* @_ZNSt12_Vector_baseIPN10FruitClick5AppleESaIS2_EE19_M_get_Tp_allocatorEv(%"struct.std::_Vector_base"* %118)
          to label %120 unwind label %111, !dbg !7022

; <label>:120                                     ; preds = %115
  invoke void @_ZSt8_DestroyIPPN10FruitClick5AppleES2_EvT_S4_RSaIT0_E(%"class.FruitClick::Apple"** %116, %"class.FruitClick::Apple"** %117, %"class.std::allocator.0"* %119)
          to label %121 unwind label %111, !dbg !7022

; <label>:121                                     ; preds = %120
  br label %122

; <label>:122                                     ; preds = %121, %110
  %123 = bitcast %"class.std::vector"* %6 to %"struct.std::_Vector_base"*, !dbg !7023
  %124 = load %"class.FruitClick::Apple"*** %__new_start, align 4, !dbg !7023
  %125 = load i32* %__len, align 4, !dbg !7023
  invoke void @_ZNSt12_Vector_baseIPN10FruitClick5AppleESaIS2_EE13_M_deallocateEPS2_j(%"struct.std::_Vector_base"* %123, %"class.FruitClick::Apple"** %124, i32 %125)
          to label %126 unwind label %111, !dbg !7023

; <label>:126                                     ; preds = %122
  invoke void @__cxa_rethrow() noreturn
          to label %179 unwind label %111, !dbg !7024

; <label>:127                                     ; preds = %111
  br label %171, !dbg !7020

; <label>:128                                     ; preds = %93
  %129 = bitcast %"class.std::vector"* %6 to %"struct.std::_Vector_base"*, !dbg !7025
  %130 = getelementptr inbounds %"struct.std::_Vector_base"* %129, i32 0, i32 0, !dbg !7025
  %131 = getelementptr inbounds %"struct.std::_Vector_base<FruitClick::Apple *, std::allocator<FruitClick::Apple *> >::_Vector_impl"* %130, i32 0, i32 0, !dbg !7025
  %132 = load %"class.FruitClick::Apple"*** %131, align 4, !dbg !7025
  %133 = bitcast %"class.std::vector"* %6 to %"struct.std::_Vector_base"*, !dbg !7025
  %134 = getelementptr inbounds %"struct.std::_Vector_base"* %133, i32 0, i32 0, !dbg !7025
  %135 = getelementptr inbounds %"struct.std::_Vector_base<FruitClick::Apple *, std::allocator<FruitClick::Apple *> >::_Vector_impl"* %134, i32 0, i32 1, !dbg !7025
  %136 = load %"class.FruitClick::Apple"*** %135, align 4, !dbg !7025
  %137 = bitcast %"class.std::vector"* %6 to %"struct.std::_Vector_base"*, !dbg !7026
  %138 = call %"class.std::allocator.0"* @_ZNSt12_Vector_baseIPN10FruitClick5AppleESaIS2_EE19_M_get_Tp_allocatorEv(%"struct.std::_Vector_base"* %137), !dbg !7026
  call void @_ZSt8_DestroyIPPN10FruitClick5AppleES2_EvT_S4_RSaIT0_E(%"class.FruitClick::Apple"** %132, %"class.FruitClick::Apple"** %136, %"class.std::allocator.0"* %138), !dbg !7026
  %139 = bitcast %"class.std::vector"* %6 to %"struct.std::_Vector_base"*, !dbg !7027
  %140 = bitcast %"class.std::vector"* %6 to %"struct.std::_Vector_base"*, !dbg !7027
  %141 = getelementptr inbounds %"struct.std::_Vector_base"* %140, i32 0, i32 0, !dbg !7027
  %142 = getelementptr inbounds %"struct.std::_Vector_base<FruitClick::Apple *, std::allocator<FruitClick::Apple *> >::_Vector_impl"* %141, i32 0, i32 0, !dbg !7027
  %143 = load %"class.FruitClick::Apple"*** %142, align 4, !dbg !7027
  %144 = bitcast %"class.std::vector"* %6 to %"struct.std::_Vector_base"*, !dbg !7027
  %145 = getelementptr inbounds %"struct.std::_Vector_base"* %144, i32 0, i32 0, !dbg !7027
  %146 = getelementptr inbounds %"struct.std::_Vector_base<FruitClick::Apple *, std::allocator<FruitClick::Apple *> >::_Vector_impl"* %145, i32 0, i32 2, !dbg !7027
  %147 = load %"class.FruitClick::Apple"*** %146, align 4, !dbg !7027
  %148 = bitcast %"class.std::vector"* %6 to %"struct.std::_Vector_base"*, !dbg !7027
  %149 = getelementptr inbounds %"struct.std::_Vector_base"* %148, i32 0, i32 0, !dbg !7027
  %150 = getelementptr inbounds %"struct.std::_Vector_base<FruitClick::Apple *, std::allocator<FruitClick::Apple *> >::_Vector_impl"* %149, i32 0, i32 0, !dbg !7027
  %151 = load %"class.FruitClick::Apple"*** %150, align 4, !dbg !7027
  %152 = ptrtoint %"class.FruitClick::Apple"** %147 to i32, !dbg !7027
  %153 = ptrtoint %"class.FruitClick::Apple"** %151 to i32, !dbg !7027
  %154 = sub i32 %152, %153, !dbg !7027
  %155 = sdiv exact i32 %154, 4, !dbg !7027
  call void @_ZNSt12_Vector_baseIPN10FruitClick5AppleESaIS2_EE13_M_deallocateEPS2_j(%"struct.std::_Vector_base"* %139, %"class.FruitClick::Apple"** %143, i32 %155), !dbg !7027
  %156 = load %"class.FruitClick::Apple"*** %__new_start, align 4, !dbg !7028
  %157 = bitcast %"class.std::vector"* %6 to %"struct.std::_Vector_base"*, !dbg !7028
  %158 = getelementptr inbounds %"struct.std::_Vector_base"* %157, i32 0, i32 0, !dbg !7028
  %159 = getelementptr inbounds %"struct.std::_Vector_base<FruitClick::Apple *, std::allocator<FruitClick::Apple *> >::_Vector_impl"* %158, i32 0, i32 0, !dbg !7028
  store %"class.FruitClick::Apple"** %156, %"class.FruitClick::Apple"*** %159, align 4, !dbg !7028
  %160 = load %"class.FruitClick::Apple"*** %__new_finish, align 4, !dbg !7029
  %161 = bitcast %"class.std::vector"* %6 to %"struct.std::_Vector_base"*, !dbg !7029
  %162 = getelementptr inbounds %"struct.std::_Vector_base"* %161, i32 0, i32 0, !dbg !7029
  %163 = getelementptr inbounds %"struct.std::_Vector_base<FruitClick::Apple *, std::allocator<FruitClick::Apple *> >::_Vector_impl"* %162, i32 0, i32 1, !dbg !7029
  store %"class.FruitClick::Apple"** %160, %"class.FruitClick::Apple"*** %163, align 4, !dbg !7029
  %164 = load %"class.FruitClick::Apple"*** %__new_start, align 4, !dbg !7030
  %165 = load i32* %__len, align 4, !dbg !7030
  %166 = getelementptr inbounds %"class.FruitClick::Apple"** %164, i32 %165, !dbg !7030
  %167 = bitcast %"class.std::vector"* %6 to %"struct.std::_Vector_base"*, !dbg !7030
  %168 = getelementptr inbounds %"struct.std::_Vector_base"* %167, i32 0, i32 0, !dbg !7030
  %169 = getelementptr inbounds %"struct.std::_Vector_base<FruitClick::Apple *, std::allocator<FruitClick::Apple *> >::_Vector_impl"* %168, i32 0, i32 2, !dbg !7030
  store %"class.FruitClick::Apple"** %166, %"class.FruitClick::Apple"*** %169, align 4, !dbg !7030
  br label %170

; <label>:170                                     ; preds = %128, %16
  ret void, !dbg !7031

; <label>:171                                     ; preds = %127
  %172 = load i8** %4, !dbg !7020
  %173 = load i8** %4, !dbg !7020
  %174 = load i32* %5, !dbg !7020
  %175 = insertvalue { i8*, i32 } undef, i8* %173, 0, !dbg !7020
  %176 = insertvalue { i8*, i32 } %175, i32 %174, 1, !dbg !7020
  resume { i8*, i32 } %176, !dbg !7020

; <label>:177                                     ; preds = %111
  %178 = landingpad { i8*, i32 } personality i8* bitcast (i32 (...)* @__gxx_personality_v0 to i8*)
          catch i8* null, !dbg !7020
  call void @_ZSt9terminatev() noreturn nounwind, !dbg !7020
  unreachable, !dbg !7020

; <label>:179                                     ; preds = %126
  unreachable
}

define linkonce_odr void @_ZNSt6vectorIPN10FruitClick5AppleESaIS2_EE3endEv(%"class.__gnu_cxx::__normal_iterator"* noalias sret %agg.result, %"class.std::vector"* %this) align 2 {
  %1 = alloca %"class.std::vector"*, align 4
  store %"class.std::vector"* %this, %"class.std::vector"** %1, align 4
  call void @llvm.dbg.declare(metadata !{%"class.std::vector"** %1}, metadata !7032), !dbg !7033
  %2 = load %"class.std::vector"** %1
  %3 = bitcast %"class.std::vector"* %2 to %"struct.std::_Vector_base"*, !dbg !7034
  %4 = getelementptr inbounds %"struct.std::_Vector_base"* %3, i32 0, i32 0, !dbg !7034
  %5 = getelementptr inbounds %"struct.std::_Vector_base<FruitClick::Apple *, std::allocator<FruitClick::Apple *> >::_Vector_impl"* %4, i32 0, i32 1, !dbg !7034
  call void @_ZN9__gnu_cxx17__normal_iteratorIPPN10FruitClick5AppleESt6vectorIS3_SaIS3_EEEC1ERKS4_(%"class.__gnu_cxx::__normal_iterator"* %agg.result, %"class.FruitClick::Apple"*** %5), !dbg !7034
  ret void, !dbg !7034
}

define linkonce_odr void @_ZN9__gnu_cxx17__normal_iteratorIPPN10FruitClick5AppleESt6vectorIS3_SaIS3_EEEC1ERKS4_(%"class.__gnu_cxx::__normal_iterator"* %this, %"class.FruitClick::Apple"*** %__i) unnamed_addr align 2 {
  %1 = alloca %"class.__gnu_cxx::__normal_iterator"*, align 4
  %2 = alloca %"class.FruitClick::Apple"***, align 4
  store %"class.__gnu_cxx::__normal_iterator"* %this, %"class.__gnu_cxx::__normal_iterator"** %1, align 4
  call void @llvm.dbg.declare(metadata !{%"class.__gnu_cxx::__normal_iterator"** %1}, metadata !7036), !dbg !7037
  store %"class.FruitClick::Apple"*** %__i, %"class.FruitClick::Apple"**** %2, align 4
  call void @llvm.dbg.declare(metadata !{%"class.FruitClick::Apple"**** %2}, metadata !7038), !dbg !7039
  %3 = load %"class.__gnu_cxx::__normal_iterator"** %1
  %4 = load %"class.FruitClick::Apple"**** %2, !dbg !7040
  call void @_ZN9__gnu_cxx17__normal_iteratorIPPN10FruitClick5AppleESt6vectorIS3_SaIS3_EEEC2ERKS4_(%"class.__gnu_cxx::__normal_iterator"* %3, %"class.FruitClick::Apple"*** %4), !dbg !7040
  ret void, !dbg !7040
}

define linkonce_odr void @_ZN9__gnu_cxx17__normal_iteratorIPPN10FruitClick5AppleESt6vectorIS3_SaIS3_EEEC2ERKS4_(%"class.__gnu_cxx::__normal_iterator"* %this, %"class.FruitClick::Apple"*** %__i) unnamed_addr nounwind align 2 {
  %1 = alloca %"class.__gnu_cxx::__normal_iterator"*, align 4
  %2 = alloca %"class.FruitClick::Apple"***, align 4
  store %"class.__gnu_cxx::__normal_iterator"* %this, %"class.__gnu_cxx::__normal_iterator"** %1, align 4
  call void @llvm.dbg.declare(metadata !{%"class.__gnu_cxx::__normal_iterator"** %1}, metadata !7041), !dbg !7042
  store %"class.FruitClick::Apple"*** %__i, %"class.FruitClick::Apple"**** %2, align 4
  call void @llvm.dbg.declare(metadata !{%"class.FruitClick::Apple"**** %2}, metadata !7043), !dbg !7044
  %3 = load %"class.__gnu_cxx::__normal_iterator"** %1
  %4 = getelementptr inbounds %"class.__gnu_cxx::__normal_iterator"* %3, i32 0, i32 0, !dbg !7045
  %5 = load %"class.FruitClick::Apple"**** %2, !dbg !7045
  %6 = load %"class.FruitClick::Apple"*** %5, align 4, !dbg !7045
  store %"class.FruitClick::Apple"** %6, %"class.FruitClick::Apple"*** %4, align 4, !dbg !7045
  ret void, !dbg !7046
}

define linkonce_odr %"class.FruitClick::Apple"** @_ZSt13copy_backwardIPPN10FruitClick5AppleES3_ET0_T_S5_S4_(%"class.FruitClick::Apple"** %__first, %"class.FruitClick::Apple"** %__last, %"class.FruitClick::Apple"** %__result) {
  %1 = alloca %"class.FruitClick::Apple"**, align 4
  %2 = alloca %"class.FruitClick::Apple"**, align 4
  %3 = alloca %"class.FruitClick::Apple"**, align 4
  store %"class.FruitClick::Apple"** %__first, %"class.FruitClick::Apple"*** %1, align 4
  call void @llvm.dbg.declare(metadata !{%"class.FruitClick::Apple"*** %1}, metadata !7048), !dbg !7049
  store %"class.FruitClick::Apple"** %__last, %"class.FruitClick::Apple"*** %2, align 4
  call void @llvm.dbg.declare(metadata !{%"class.FruitClick::Apple"*** %2}, metadata !7050), !dbg !7051
  store %"class.FruitClick::Apple"** %__result, %"class.FruitClick::Apple"*** %3, align 4
  call void @llvm.dbg.declare(metadata !{%"class.FruitClick::Apple"*** %3}, metadata !7052), !dbg !7053
  %4 = load %"class.FruitClick::Apple"*** %1, align 4, !dbg !7054
  %5 = call %"class.FruitClick::Apple"** @_ZSt12__miter_baseIPPN10FruitClick5AppleEENSt11_Miter_baseIT_E13iterator_typeES5_(%"class.FruitClick::Apple"** %4), !dbg !7054
  %6 = load %"class.FruitClick::Apple"*** %2, align 4, !dbg !7056
  %7 = call %"class.FruitClick::Apple"** @_ZSt12__miter_baseIPPN10FruitClick5AppleEENSt11_Miter_baseIT_E13iterator_typeES5_(%"class.FruitClick::Apple"** %6), !dbg !7056
  %8 = load %"class.FruitClick::Apple"*** %3, align 4, !dbg !7056
  %9 = call %"class.FruitClick::Apple"** @_ZSt23__copy_move_backward_a2ILb0EPPN10FruitClick5AppleES3_ET1_T0_S5_S4_(%"class.FruitClick::Apple"** %5, %"class.FruitClick::Apple"** %7, %"class.FruitClick::Apple"** %8), !dbg !7056
  ret %"class.FruitClick::Apple"** %9, !dbg !7056
}

define linkonce_odr %"class.FruitClick::Apple"*** @_ZNK9__gnu_cxx17__normal_iteratorIPPN10FruitClick5AppleESt6vectorIS3_SaIS3_EEE4baseEv(%"class.__gnu_cxx::__normal_iterator"* %this) nounwind align 2 {
  %1 = alloca %"class.__gnu_cxx::__normal_iterator"*, align 4
  store %"class.__gnu_cxx::__normal_iterator"* %this, %"class.__gnu_cxx::__normal_iterator"** %1, align 4
  call void @llvm.dbg.declare(metadata !{%"class.__gnu_cxx::__normal_iterator"** %1}, metadata !7057), !dbg !7058
  %2 = load %"class.__gnu_cxx::__normal_iterator"** %1
  %3 = getelementptr inbounds %"class.__gnu_cxx::__normal_iterator"* %2, i32 0, i32 0, !dbg !7059
  ret %"class.FruitClick::Apple"*** %3, !dbg !7059
}

define linkonce_odr %"class.FruitClick::Apple"** @_ZNK9__gnu_cxx17__normal_iteratorIPPN10FruitClick5AppleESt6vectorIS3_SaIS3_EEEdeEv(%"class.__gnu_cxx::__normal_iterator"* %this) nounwind align 2 {
  %1 = alloca %"class.__gnu_cxx::__normal_iterator"*, align 4
  store %"class.__gnu_cxx::__normal_iterator"* %this, %"class.__gnu_cxx::__normal_iterator"** %1, align 4
  call void @llvm.dbg.declare(metadata !{%"class.__gnu_cxx::__normal_iterator"** %1}, metadata !7061), !dbg !7062
  %2 = load %"class.__gnu_cxx::__normal_iterator"** %1
  %3 = getelementptr inbounds %"class.__gnu_cxx::__normal_iterator"* %2, i32 0, i32 0, !dbg !7063
  %4 = load %"class.FruitClick::Apple"*** %3, align 4, !dbg !7063
  ret %"class.FruitClick::Apple"** %4, !dbg !7063
}

define linkonce_odr i32 @_ZNKSt6vectorIPN10FruitClick5AppleESaIS2_EE12_M_check_lenEjPKc(%"class.std::vector"* %this, i32 %__n, i8* %__s) align 2 {
  %1 = alloca %"class.std::vector"*, align 4
  %2 = alloca i32, align 4
  %3 = alloca i8*, align 4
  %__len = alloca i32, align 4
  %4 = alloca i32, align 4
  store %"class.std::vector"* %this, %"class.std::vector"** %1, align 4
  call void @llvm.dbg.declare(metadata !{%"class.std::vector"** %1}, metadata !7065), !dbg !7066
  store i32 %__n, i32* %2, align 4
  call void @llvm.dbg.declare(metadata !{i32* %2}, metadata !7067), !dbg !7068
  store i8* %__s, i8** %3, align 4
  call void @llvm.dbg.declare(metadata !{i8** %3}, metadata !7069), !dbg !7070
  %5 = load %"class.std::vector"** %1
  %6 = call i32 @_ZNKSt6vectorIPN10FruitClick5AppleESaIS2_EE8max_sizeEv(%"class.std::vector"* %5), !dbg !7071
  %7 = call i32 @_ZNKSt6vectorIPN10FruitClick5AppleESaIS2_EE4sizeEv(%"class.std::vector"* %5), !dbg !7073
  %8 = sub i32 %6, %7, !dbg !7073
  %9 = load i32* %2, align 4, !dbg !7073
  %10 = icmp ult i32 %8, %9, !dbg !7073
  br i1 %10, label %11, label %13, !dbg !7073

; <label>:11                                      ; preds = %0
  %12 = load i8** %3, align 4, !dbg !7074
  call void @_ZSt20__throw_length_errorPKc(i8* %12) noreturn, !dbg !7074
  unreachable, !dbg !7074

; <label>:13                                      ; preds = %0
  call void @llvm.dbg.declare(metadata !{i32* %__len}, metadata !7075), !dbg !7076
  %14 = call i32 @_ZNKSt6vectorIPN10FruitClick5AppleESaIS2_EE4sizeEv(%"class.std::vector"* %5), !dbg !7077
  %15 = call i32 @_ZNKSt6vectorIPN10FruitClick5AppleESaIS2_EE4sizeEv(%"class.std::vector"* %5), !dbg !7078
  store i32 %15, i32* %4, align 4, !dbg !7078
  %16 = call i32* @_ZSt3maxIjERKT_S2_S2_(i32* %4, i32* %2), !dbg !7078
  %17 = load i32* %16, !dbg !7078
  %18 = add i32 %14, %17, !dbg !7078
  store i32 %18, i32* %__len, align 4, !dbg !7078
  %19 = load i32* %__len, align 4, !dbg !7079
  %20 = call i32 @_ZNKSt6vectorIPN10FruitClick5AppleESaIS2_EE4sizeEv(%"class.std::vector"* %5), !dbg !7080
  %21 = icmp ult i32 %19, %20, !dbg !7080
  br i1 %21, label %26, label %22, !dbg !7080

; <label>:22                                      ; preds = %13
  %23 = load i32* %__len, align 4, !dbg !7080
  %24 = call i32 @_ZNKSt6vectorIPN10FruitClick5AppleESaIS2_EE8max_sizeEv(%"class.std::vector"* %5), !dbg !7081
  %25 = icmp ugt i32 %23, %24, !dbg !7081
  br i1 %25, label %26, label %28, !dbg !7081

; <label>:26                                      ; preds = %22, %13
  %27 = call i32 @_ZNKSt6vectorIPN10FruitClick5AppleESaIS2_EE8max_sizeEv(%"class.std::vector"* %5), !dbg !7082
  br label %30, !dbg !7082

; <label>:28                                      ; preds = %22
  %29 = load i32* %__len, align 4, !dbg !7082
  br label %30, !dbg !7082

; <label>:30                                      ; preds = %28, %26
  %31 = phi i32 [ %27, %26 ], [ %29, %28 ], !dbg !7082
  ret i32 %31, !dbg !7082
}

define linkonce_odr i32 @_ZN9__gnu_cxxmiIPPN10FruitClick5AppleESt6vectorIS3_SaIS3_EEEENS_17__normal_iteratorIT_T0_E15difference_typeERKSB_SE_(%"class.__gnu_cxx::__normal_iterator"* %__lhs, %"class.__gnu_cxx::__normal_iterator"* %__rhs) inlinehint {
  %1 = alloca %"class.__gnu_cxx::__normal_iterator"*, align 4
  %2 = alloca %"class.__gnu_cxx::__normal_iterator"*, align 4
  store %"class.__gnu_cxx::__normal_iterator"* %__lhs, %"class.__gnu_cxx::__normal_iterator"** %1, align 4
  call void @llvm.dbg.declare(metadata !{%"class.__gnu_cxx::__normal_iterator"** %1}, metadata !7083), !dbg !7084
  store %"class.__gnu_cxx::__normal_iterator"* %__rhs, %"class.__gnu_cxx::__normal_iterator"** %2, align 4
  call void @llvm.dbg.declare(metadata !{%"class.__gnu_cxx::__normal_iterator"** %2}, metadata !7085), !dbg !7086
  %3 = load %"class.__gnu_cxx::__normal_iterator"** %1, !dbg !7087
  %4 = call %"class.FruitClick::Apple"*** @_ZNK9__gnu_cxx17__normal_iteratorIPPN10FruitClick5AppleESt6vectorIS3_SaIS3_EEE4baseEv(%"class.__gnu_cxx::__normal_iterator"* %3), !dbg !7087
  %5 = load %"class.FruitClick::Apple"*** %4, !dbg !7087
  %6 = load %"class.__gnu_cxx::__normal_iterator"** %2, !dbg !7089
  %7 = call %"class.FruitClick::Apple"*** @_ZNK9__gnu_cxx17__normal_iteratorIPPN10FruitClick5AppleESt6vectorIS3_SaIS3_EEE4baseEv(%"class.__gnu_cxx::__normal_iterator"* %6), !dbg !7089
  %8 = load %"class.FruitClick::Apple"*** %7, !dbg !7089
  %9 = ptrtoint %"class.FruitClick::Apple"** %5 to i32, !dbg !7089
  %10 = ptrtoint %"class.FruitClick::Apple"** %8 to i32, !dbg !7089
  %11 = sub i32 %9, %10, !dbg !7089
  %12 = sdiv exact i32 %11, 4, !dbg !7089
  ret i32 %12, !dbg !7089
}

define linkonce_odr void @_ZNSt6vectorIPN10FruitClick5AppleESaIS2_EE5beginEv(%"class.__gnu_cxx::__normal_iterator"* noalias sret %agg.result, %"class.std::vector"* %this) align 2 {
  %1 = alloca %"class.std::vector"*, align 4
  store %"class.std::vector"* %this, %"class.std::vector"** %1, align 4
  call void @llvm.dbg.declare(metadata !{%"class.std::vector"** %1}, metadata !7090), !dbg !7091
  %2 = load %"class.std::vector"** %1
  %3 = bitcast %"class.std::vector"* %2 to %"struct.std::_Vector_base"*, !dbg !7092
  %4 = getelementptr inbounds %"struct.std::_Vector_base"* %3, i32 0, i32 0, !dbg !7092
  %5 = getelementptr inbounds %"struct.std::_Vector_base<FruitClick::Apple *, std::allocator<FruitClick::Apple *> >::_Vector_impl"* %4, i32 0, i32 0, !dbg !7092
  call void @_ZN9__gnu_cxx17__normal_iteratorIPPN10FruitClick5AppleESt6vectorIS3_SaIS3_EEEC1ERKS4_(%"class.__gnu_cxx::__normal_iterator"* %agg.result, %"class.FruitClick::Apple"*** %5), !dbg !7092
  ret void, !dbg !7092
}

define linkonce_odr %"class.FruitClick::Apple"** @_ZNSt12_Vector_baseIPN10FruitClick5AppleESaIS2_EE11_M_allocateEj(%"struct.std::_Vector_base"* %this, i32 %__n) align 2 {
  %1 = alloca %"struct.std::_Vector_base"*, align 4
  %2 = alloca i32, align 4
  store %"struct.std::_Vector_base"* %this, %"struct.std::_Vector_base"** %1, align 4
  call void @llvm.dbg.declare(metadata !{%"struct.std::_Vector_base"** %1}, metadata !7094), !dbg !7095
  store i32 %__n, i32* %2, align 4
  call void @llvm.dbg.declare(metadata !{i32* %2}, metadata !7096), !dbg !7097
  %3 = load %"struct.std::_Vector_base"** %1
  %4 = load i32* %2, align 4, !dbg !7098
  %5 = icmp ne i32 %4, 0, !dbg !7098
  br i1 %5, label %6, label %11, !dbg !7098

; <label>:6                                       ; preds = %0
  %7 = getelementptr inbounds %"struct.std::_Vector_base"* %3, i32 0, i32 0, !dbg !7100
  %8 = bitcast %"struct.std::_Vector_base<FruitClick::Apple *, std::allocator<FruitClick::Apple *> >::_Vector_impl"* %7 to %"class.__gnu_cxx::new_allocator.1"*, !dbg !7100
  %9 = load i32* %2, align 4, !dbg !7100
  %10 = call %"class.FruitClick::Apple"** @_ZN9__gnu_cxx13new_allocatorIPN10FruitClick5AppleEE8allocateEjPKv(%"class.__gnu_cxx::new_allocator.1"* %8, i32 %9, i8* null), !dbg !7100
  br label %12, !dbg !7100

; <label>:11                                      ; preds = %0
  br label %12, !dbg !7100

; <label>:12                                      ; preds = %11, %6
  %13 = phi %"class.FruitClick::Apple"** [ %10, %6 ], [ null, %11 ], !dbg !7100
  ret %"class.FruitClick::Apple"** %13, !dbg !7100
}

define linkonce_odr %"class.FruitClick::Apple"** @_ZSt22__uninitialized_move_aIPPN10FruitClick5AppleES3_SaIS2_EET0_T_S6_S5_RT1_(%"class.FruitClick::Apple"** %__first, %"class.FruitClick::Apple"** %__last, %"class.FruitClick::Apple"** %__result, %"class.std::allocator.0"* %__alloc) inlinehint {
  %1 = alloca %"class.FruitClick::Apple"**, align 4
  %2 = alloca %"class.FruitClick::Apple"**, align 4
  %3 = alloca %"class.FruitClick::Apple"**, align 4
  %4 = alloca %"class.std::allocator.0"*, align 4
  store %"class.FruitClick::Apple"** %__first, %"class.FruitClick::Apple"*** %1, align 4
  call void @llvm.dbg.declare(metadata !{%"class.FruitClick::Apple"*** %1}, metadata !7101), !dbg !7102
  store %"class.FruitClick::Apple"** %__last, %"class.FruitClick::Apple"*** %2, align 4
  call void @llvm.dbg.declare(metadata !{%"class.FruitClick::Apple"*** %2}, metadata !7103), !dbg !7104
  store %"class.FruitClick::Apple"** %__result, %"class.FruitClick::Apple"*** %3, align 4
  call void @llvm.dbg.declare(metadata !{%"class.FruitClick::Apple"*** %3}, metadata !7105), !dbg !7106
  store %"class.std::allocator.0"* %__alloc, %"class.std::allocator.0"** %4, align 4
  call void @llvm.dbg.declare(metadata !{%"class.std::allocator.0"** %4}, metadata !7107), !dbg !7109
  %5 = load %"class.FruitClick::Apple"*** %1, align 4, !dbg !7110
  %6 = load %"class.FruitClick::Apple"*** %2, align 4, !dbg !7110
  %7 = load %"class.FruitClick::Apple"*** %3, align 4, !dbg !7110
  %8 = load %"class.std::allocator.0"** %4, !dbg !7110
  %9 = call %"class.FruitClick::Apple"** @_ZSt22__uninitialized_copy_aIPPN10FruitClick5AppleES3_S2_ET0_T_S5_S4_RSaIT1_E(%"class.FruitClick::Apple"** %5, %"class.FruitClick::Apple"** %6, %"class.FruitClick::Apple"** %7, %"class.std::allocator.0"* %8), !dbg !7110
  ret %"class.FruitClick::Apple"** %9, !dbg !7110
}

define linkonce_odr %"class.std::allocator.0"* @_ZNSt12_Vector_baseIPN10FruitClick5AppleESaIS2_EE19_M_get_Tp_allocatorEv(%"struct.std::_Vector_base"* %this) nounwind align 2 {
  %1 = alloca %"struct.std::_Vector_base"*, align 4
  store %"struct.std::_Vector_base"* %this, %"struct.std::_Vector_base"** %1, align 4
  call void @llvm.dbg.declare(metadata !{%"struct.std::_Vector_base"** %1}, metadata !7112), !dbg !7113
  %2 = load %"struct.std::_Vector_base"** %1
  %3 = getelementptr inbounds %"struct.std::_Vector_base"* %2, i32 0, i32 0, !dbg !7114
  %4 = bitcast %"struct.std::_Vector_base<FruitClick::Apple *, std::allocator<FruitClick::Apple *> >::_Vector_impl"* %3 to %"class.std::allocator.0"*, !dbg !7114
  ret %"class.std::allocator.0"* %4, !dbg !7114
}

declare i8* @__cxa_begin_catch(i8*)

define linkonce_odr void @_ZN9__gnu_cxx13new_allocatorIPN10FruitClick5AppleEE7destroyEPS3_(%"class.__gnu_cxx::new_allocator.1"* %this, %"class.FruitClick::Apple"** %__p) nounwind align 2 {
  %1 = alloca %"class.__gnu_cxx::new_allocator.1"*, align 4
  %2 = alloca %"class.FruitClick::Apple"**, align 4
  store %"class.__gnu_cxx::new_allocator.1"* %this, %"class.__gnu_cxx::new_allocator.1"** %1, align 4
  call void @llvm.dbg.declare(metadata !{%"class.__gnu_cxx::new_allocator.1"** %1}, metadata !7116), !dbg !7117
  store %"class.FruitClick::Apple"** %__p, %"class.FruitClick::Apple"*** %2, align 4
  call void @llvm.dbg.declare(metadata !{%"class.FruitClick::Apple"*** %2}, metadata !7118), !dbg !7119
  %3 = load %"class.__gnu_cxx::new_allocator.1"** %1
  %4 = load %"class.FruitClick::Apple"*** %2, align 4, !dbg !7120
  ret void, !dbg !7122
}

define linkonce_odr void @_ZSt8_DestroyIPPN10FruitClick5AppleES2_EvT_S4_RSaIT0_E(%"class.FruitClick::Apple"** %__first, %"class.FruitClick::Apple"** %__last, %"class.std::allocator.0"*) inlinehint {
  %2 = alloca %"class.FruitClick::Apple"**, align 4
  %3 = alloca %"class.FruitClick::Apple"**, align 4
  %4 = alloca %"class.std::allocator.0"*, align 4
  store %"class.FruitClick::Apple"** %__first, %"class.FruitClick::Apple"*** %2, align 4
  call void @llvm.dbg.declare(metadata !{%"class.FruitClick::Apple"*** %2}, metadata !7123), !dbg !7124
  store %"class.FruitClick::Apple"** %__last, %"class.FruitClick::Apple"*** %3, align 4
  call void @llvm.dbg.declare(metadata !{%"class.FruitClick::Apple"*** %3}, metadata !7125), !dbg !7126
  store %"class.std::allocator.0"* %0, %"class.std::allocator.0"** %4, align 4
  %5 = load %"class.FruitClick::Apple"*** %2, align 4, !dbg !7127
  %6 = load %"class.FruitClick::Apple"*** %3, align 4, !dbg !7127
  call void @_ZSt8_DestroyIPPN10FruitClick5AppleEEvT_S4_(%"class.FruitClick::Apple"** %5, %"class.FruitClick::Apple"** %6), !dbg !7127
  ret void, !dbg !7129
}

define linkonce_odr void @_ZNSt12_Vector_baseIPN10FruitClick5AppleESaIS2_EE13_M_deallocateEPS2_j(%"struct.std::_Vector_base"* %this, %"class.FruitClick::Apple"** %__p, i32 %__n) align 2 {
  %1 = alloca %"struct.std::_Vector_base"*, align 4
  %2 = alloca %"class.FruitClick::Apple"**, align 4
  %3 = alloca i32, align 4
  store %"struct.std::_Vector_base"* %this, %"struct.std::_Vector_base"** %1, align 4
  call void @llvm.dbg.declare(metadata !{%"struct.std::_Vector_base"** %1}, metadata !7130), !dbg !7131
  store %"class.FruitClick::Apple"** %__p, %"class.FruitClick::Apple"*** %2, align 4
  call void @llvm.dbg.declare(metadata !{%"class.FruitClick::Apple"*** %2}, metadata !7132), !dbg !7133
  store i32 %__n, i32* %3, align 4
  call void @llvm.dbg.declare(metadata !{i32* %3}, metadata !7134), !dbg !7135
  %4 = load %"struct.std::_Vector_base"** %1
  %5 = load %"class.FruitClick::Apple"*** %2, align 4, !dbg !7136
  %6 = icmp ne %"class.FruitClick::Apple"** %5, null, !dbg !7136
  br i1 %6, label %7, label %12, !dbg !7136

; <label>:7                                       ; preds = %0
  %8 = getelementptr inbounds %"struct.std::_Vector_base"* %4, i32 0, i32 0, !dbg !7138
  %9 = bitcast %"struct.std::_Vector_base<FruitClick::Apple *, std::allocator<FruitClick::Apple *> >::_Vector_impl"* %8 to %"class.__gnu_cxx::new_allocator.1"*, !dbg !7138
  %10 = load %"class.FruitClick::Apple"*** %2, align 4, !dbg !7138
  %11 = load i32* %3, align 4, !dbg !7138
  call void @_ZN9__gnu_cxx13new_allocatorIPN10FruitClick5AppleEE10deallocateEPS3_j(%"class.__gnu_cxx::new_allocator.1"* %9, %"class.FruitClick::Apple"** %10, i32 %11), !dbg !7138
  br label %12, !dbg !7138

; <label>:12                                      ; preds = %7, %0
  ret void, !dbg !7139
}

declare void @__cxa_rethrow()

declare void @__cxa_end_catch()

define linkonce_odr void @_ZN9__gnu_cxx13new_allocatorIPN10FruitClick5AppleEE10deallocateEPS3_j(%"class.__gnu_cxx::new_allocator.1"* %this, %"class.FruitClick::Apple"** %__p, i32) nounwind align 2 {
  %2 = alloca %"class.__gnu_cxx::new_allocator.1"*, align 4
  %3 = alloca %"class.FruitClick::Apple"**, align 4
  %4 = alloca i32, align 4
  store %"class.__gnu_cxx::new_allocator.1"* %this, %"class.__gnu_cxx::new_allocator.1"** %2, align 4
  call void @llvm.dbg.declare(metadata !{%"class.__gnu_cxx::new_allocator.1"** %2}, metadata !7140), !dbg !7141
  store %"class.FruitClick::Apple"** %__p, %"class.FruitClick::Apple"*** %3, align 4
  call void @llvm.dbg.declare(metadata !{%"class.FruitClick::Apple"*** %3}, metadata !7142), !dbg !7143
  store i32 %0, i32* %4, align 4
  %5 = load %"class.__gnu_cxx::new_allocator.1"** %2
  %6 = load %"class.FruitClick::Apple"*** %3, align 4, !dbg !7144
  %7 = bitcast %"class.FruitClick::Apple"** %6 to i8*, !dbg !7144
  call void @_ZdlPv(i8* %7) nounwind, !dbg !7144
  ret void, !dbg !7146
}

define linkonce_odr void @_ZSt8_DestroyIPPN10FruitClick5AppleEEvT_S4_(%"class.FruitClick::Apple"** %__first, %"class.FruitClick::Apple"** %__last) inlinehint {
  %1 = alloca %"class.FruitClick::Apple"**, align 4
  %2 = alloca %"class.FruitClick::Apple"**, align 4
  store %"class.FruitClick::Apple"** %__first, %"class.FruitClick::Apple"*** %1, align 4
  call void @llvm.dbg.declare(metadata !{%"class.FruitClick::Apple"*** %1}, metadata !7147), !dbg !7148
  store %"class.FruitClick::Apple"** %__last, %"class.FruitClick::Apple"*** %2, align 4
  call void @llvm.dbg.declare(metadata !{%"class.FruitClick::Apple"*** %2}, metadata !7149), !dbg !7150
  %3 = load %"class.FruitClick::Apple"*** %1, align 4, !dbg !7151
  %4 = load %"class.FruitClick::Apple"*** %2, align 4, !dbg !7151
  call void @_ZNSt12_Destroy_auxILb1EE9__destroyIPPN10FruitClick5AppleEEEvT_S6_(%"class.FruitClick::Apple"** %3, %"class.FruitClick::Apple"** %4), !dbg !7151
  ret void, !dbg !7153
}

define linkonce_odr void @_ZNSt12_Destroy_auxILb1EE9__destroyIPPN10FruitClick5AppleEEEvT_S6_(%"class.FruitClick::Apple"**, %"class.FruitClick::Apple"**) nounwind align 2 {
  %3 = alloca %"class.FruitClick::Apple"**, align 4
  %4 = alloca %"class.FruitClick::Apple"**, align 4
  store %"class.FruitClick::Apple"** %0, %"class.FruitClick::Apple"*** %3, align 4
  store %"class.FruitClick::Apple"** %1, %"class.FruitClick::Apple"*** %4, align 4
  ret void, !dbg !7154
}

define linkonce_odr %"class.FruitClick::Apple"** @_ZSt22__uninitialized_copy_aIPPN10FruitClick5AppleES3_S2_ET0_T_S5_S4_RSaIT1_E(%"class.FruitClick::Apple"** %__first, %"class.FruitClick::Apple"** %__last, %"class.FruitClick::Apple"** %__result, %"class.std::allocator.0"*) inlinehint {
  %2 = alloca %"class.FruitClick::Apple"**, align 4
  %3 = alloca %"class.FruitClick::Apple"**, align 4
  %4 = alloca %"class.FruitClick::Apple"**, align 4
  %5 = alloca %"class.std::allocator.0"*, align 4
  store %"class.FruitClick::Apple"** %__first, %"class.FruitClick::Apple"*** %2, align 4
  call void @llvm.dbg.declare(metadata !{%"class.FruitClick::Apple"*** %2}, metadata !7156), !dbg !7157
  store %"class.FruitClick::Apple"** %__last, %"class.FruitClick::Apple"*** %3, align 4
  call void @llvm.dbg.declare(metadata !{%"class.FruitClick::Apple"*** %3}, metadata !7158), !dbg !7159
  store %"class.FruitClick::Apple"** %__result, %"class.FruitClick::Apple"*** %4, align 4
  call void @llvm.dbg.declare(metadata !{%"class.FruitClick::Apple"*** %4}, metadata !7160), !dbg !7161
  store %"class.std::allocator.0"* %0, %"class.std::allocator.0"** %5, align 4
  %6 = load %"class.FruitClick::Apple"*** %2, align 4, !dbg !7162
  %7 = load %"class.FruitClick::Apple"*** %3, align 4, !dbg !7162
  %8 = load %"class.FruitClick::Apple"*** %4, align 4, !dbg !7162
  %9 = call %"class.FruitClick::Apple"** @_ZSt18uninitialized_copyIPPN10FruitClick5AppleES3_ET0_T_S5_S4_(%"class.FruitClick::Apple"** %6, %"class.FruitClick::Apple"** %7, %"class.FruitClick::Apple"** %8), !dbg !7162
  ret %"class.FruitClick::Apple"** %9, !dbg !7162
}

define linkonce_odr %"class.FruitClick::Apple"** @_ZSt18uninitialized_copyIPPN10FruitClick5AppleES3_ET0_T_S5_S4_(%"class.FruitClick::Apple"** %__first, %"class.FruitClick::Apple"** %__last, %"class.FruitClick::Apple"** %__result) inlinehint {
  %1 = alloca %"class.FruitClick::Apple"**, align 4
  %2 = alloca %"class.FruitClick::Apple"**, align 4
  %3 = alloca %"class.FruitClick::Apple"**, align 4
  store %"class.FruitClick::Apple"** %__first, %"class.FruitClick::Apple"*** %1, align 4
  call void @llvm.dbg.declare(metadata !{%"class.FruitClick::Apple"*** %1}, metadata !7164), !dbg !7165
  store %"class.FruitClick::Apple"** %__last, %"class.FruitClick::Apple"*** %2, align 4
  call void @llvm.dbg.declare(metadata !{%"class.FruitClick::Apple"*** %2}, metadata !7166), !dbg !7167
  store %"class.FruitClick::Apple"** %__result, %"class.FruitClick::Apple"*** %3, align 4
  call void @llvm.dbg.declare(metadata !{%"class.FruitClick::Apple"*** %3}, metadata !7168), !dbg !7169
  %4 = load %"class.FruitClick::Apple"*** %1, align 4, !dbg !7170
  %5 = load %"class.FruitClick::Apple"*** %2, align 4, !dbg !7170
  %6 = load %"class.FruitClick::Apple"*** %3, align 4, !dbg !7170
  %7 = call %"class.FruitClick::Apple"** @_ZNSt20__uninitialized_copyILb1EE13__uninit_copyIPPN10FruitClick5AppleES5_EET0_T_S7_S6_(%"class.FruitClick::Apple"** %4, %"class.FruitClick::Apple"** %5, %"class.FruitClick::Apple"** %6), !dbg !7170
  ret %"class.FruitClick::Apple"** %7, !dbg !7170
}

define linkonce_odr %"class.FruitClick::Apple"** @_ZNSt20__uninitialized_copyILb1EE13__uninit_copyIPPN10FruitClick5AppleES5_EET0_T_S7_S6_(%"class.FruitClick::Apple"** %__first, %"class.FruitClick::Apple"** %__last, %"class.FruitClick::Apple"** %__result) align 2 {
  %1 = alloca %"class.FruitClick::Apple"**, align 4
  %2 = alloca %"class.FruitClick::Apple"**, align 4
  %3 = alloca %"class.FruitClick::Apple"**, align 4
  store %"class.FruitClick::Apple"** %__first, %"class.FruitClick::Apple"*** %1, align 4
  call void @llvm.dbg.declare(metadata !{%"class.FruitClick::Apple"*** %1}, metadata !7172), !dbg !7173
  store %"class.FruitClick::Apple"** %__last, %"class.FruitClick::Apple"*** %2, align 4
  call void @llvm.dbg.declare(metadata !{%"class.FruitClick::Apple"*** %2}, metadata !7174), !dbg !7175
  store %"class.FruitClick::Apple"** %__result, %"class.FruitClick::Apple"*** %3, align 4
  call void @llvm.dbg.declare(metadata !{%"class.FruitClick::Apple"*** %3}, metadata !7176), !dbg !7177
  %4 = load %"class.FruitClick::Apple"*** %1, align 4, !dbg !7178
  %5 = load %"class.FruitClick::Apple"*** %2, align 4, !dbg !7178
  %6 = load %"class.FruitClick::Apple"*** %3, align 4, !dbg !7178
  %7 = call %"class.FruitClick::Apple"** @_ZSt4copyIPPN10FruitClick5AppleES3_ET0_T_S5_S4_(%"class.FruitClick::Apple"** %4, %"class.FruitClick::Apple"** %5, %"class.FruitClick::Apple"** %6), !dbg !7178
  ret %"class.FruitClick::Apple"** %7, !dbg !7178
}

define linkonce_odr %"class.FruitClick::Apple"** @_ZSt4copyIPPN10FruitClick5AppleES3_ET0_T_S5_S4_(%"class.FruitClick::Apple"** %__first, %"class.FruitClick::Apple"** %__last, %"class.FruitClick::Apple"** %__result) {
  %1 = alloca %"class.FruitClick::Apple"**, align 4
  %2 = alloca %"class.FruitClick::Apple"**, align 4
  %3 = alloca %"class.FruitClick::Apple"**, align 4
  store %"class.FruitClick::Apple"** %__first, %"class.FruitClick::Apple"*** %1, align 4
  call void @llvm.dbg.declare(metadata !{%"class.FruitClick::Apple"*** %1}, metadata !7180), !dbg !7181
  store %"class.FruitClick::Apple"** %__last, %"class.FruitClick::Apple"*** %2, align 4
  call void @llvm.dbg.declare(metadata !{%"class.FruitClick::Apple"*** %2}, metadata !7182), !dbg !7183
  store %"class.FruitClick::Apple"** %__result, %"class.FruitClick::Apple"*** %3, align 4
  call void @llvm.dbg.declare(metadata !{%"class.FruitClick::Apple"*** %3}, metadata !7184), !dbg !7185
  %4 = load %"class.FruitClick::Apple"*** %1, align 4, !dbg !7186
  %5 = call %"class.FruitClick::Apple"** @_ZSt12__miter_baseIPPN10FruitClick5AppleEENSt11_Miter_baseIT_E13iterator_typeES5_(%"class.FruitClick::Apple"** %4), !dbg !7186
  %6 = load %"class.FruitClick::Apple"*** %2, align 4, !dbg !7188
  %7 = call %"class.FruitClick::Apple"** @_ZSt12__miter_baseIPPN10FruitClick5AppleEENSt11_Miter_baseIT_E13iterator_typeES5_(%"class.FruitClick::Apple"** %6), !dbg !7188
  %8 = load %"class.FruitClick::Apple"*** %3, align 4, !dbg !7188
  %9 = call %"class.FruitClick::Apple"** @_ZSt14__copy_move_a2ILb0EPPN10FruitClick5AppleES3_ET1_T0_S5_S4_(%"class.FruitClick::Apple"** %5, %"class.FruitClick::Apple"** %7, %"class.FruitClick::Apple"** %8), !dbg !7188
  ret %"class.FruitClick::Apple"** %9, !dbg !7188
}

define linkonce_odr %"class.FruitClick::Apple"** @_ZSt14__copy_move_a2ILb0EPPN10FruitClick5AppleES3_ET1_T0_S5_S4_(%"class.FruitClick::Apple"** %__first, %"class.FruitClick::Apple"** %__last, %"class.FruitClick::Apple"** %__result) inlinehint {
  %1 = alloca %"class.FruitClick::Apple"**, align 4
  %2 = alloca %"class.FruitClick::Apple"**, align 4
  %3 = alloca %"class.FruitClick::Apple"**, align 4
  store %"class.FruitClick::Apple"** %__first, %"class.FruitClick::Apple"*** %1, align 4
  call void @llvm.dbg.declare(metadata !{%"class.FruitClick::Apple"*** %1}, metadata !7189), !dbg !7190
  store %"class.FruitClick::Apple"** %__last, %"class.FruitClick::Apple"*** %2, align 4
  call void @llvm.dbg.declare(metadata !{%"class.FruitClick::Apple"*** %2}, metadata !7191), !dbg !7192
  store %"class.FruitClick::Apple"** %__result, %"class.FruitClick::Apple"*** %3, align 4
  call void @llvm.dbg.declare(metadata !{%"class.FruitClick::Apple"*** %3}, metadata !7193), !dbg !7194
  %4 = load %"class.FruitClick::Apple"*** %1, align 4, !dbg !7195
  %5 = call %"class.FruitClick::Apple"** @_ZSt12__niter_baseIPPN10FruitClick5AppleEENSt11_Niter_baseIT_E13iterator_typeES5_(%"class.FruitClick::Apple"** %4), !dbg !7195
  %6 = load %"class.FruitClick::Apple"*** %2, align 4, !dbg !7197
  %7 = call %"class.FruitClick::Apple"** @_ZSt12__niter_baseIPPN10FruitClick5AppleEENSt11_Niter_baseIT_E13iterator_typeES5_(%"class.FruitClick::Apple"** %6), !dbg !7197
  %8 = load %"class.FruitClick::Apple"*** %3, align 4, !dbg !7198
  %9 = call %"class.FruitClick::Apple"** @_ZSt12__niter_baseIPPN10FruitClick5AppleEENSt11_Niter_baseIT_E13iterator_typeES5_(%"class.FruitClick::Apple"** %8), !dbg !7198
  %10 = call %"class.FruitClick::Apple"** @_ZSt13__copy_move_aILb0EPPN10FruitClick5AppleES3_ET1_T0_S5_S4_(%"class.FruitClick::Apple"** %5, %"class.FruitClick::Apple"** %7, %"class.FruitClick::Apple"** %9), !dbg !7198
  ret %"class.FruitClick::Apple"** %10, !dbg !7198
}

define linkonce_odr %"class.FruitClick::Apple"** @_ZSt12__miter_baseIPPN10FruitClick5AppleEENSt11_Miter_baseIT_E13iterator_typeES5_(%"class.FruitClick::Apple"** %__it) inlinehint {
  %1 = alloca %"class.FruitClick::Apple"**, align 4
  store %"class.FruitClick::Apple"** %__it, %"class.FruitClick::Apple"*** %1, align 4
  call void @llvm.dbg.declare(metadata !{%"class.FruitClick::Apple"*** %1}, metadata !7199), !dbg !7200
  %2 = load %"class.FruitClick::Apple"*** %1, align 4, !dbg !7201
  %3 = call %"class.FruitClick::Apple"** @_ZNSt10_Iter_baseIPPN10FruitClick5AppleELb0EE7_S_baseES3_(%"class.FruitClick::Apple"** %2), !dbg !7201
  ret %"class.FruitClick::Apple"** %3, !dbg !7201
}

define linkonce_odr %"class.FruitClick::Apple"** @_ZNSt10_Iter_baseIPPN10FruitClick5AppleELb0EE7_S_baseES3_(%"class.FruitClick::Apple"** %__it) nounwind align 2 {
  %1 = alloca %"class.FruitClick::Apple"**, align 4
  store %"class.FruitClick::Apple"** %__it, %"class.FruitClick::Apple"*** %1, align 4
  call void @llvm.dbg.declare(metadata !{%"class.FruitClick::Apple"*** %1}, metadata !7203), !dbg !7204
  %2 = load %"class.FruitClick::Apple"*** %1, align 4, !dbg !7205
  ret %"class.FruitClick::Apple"** %2, !dbg !7205
}

define linkonce_odr %"class.FruitClick::Apple"** @_ZSt13__copy_move_aILb0EPPN10FruitClick5AppleES3_ET1_T0_S5_S4_(%"class.FruitClick::Apple"** %__first, %"class.FruitClick::Apple"** %__last, %"class.FruitClick::Apple"** %__result) inlinehint {
  %1 = alloca %"class.FruitClick::Apple"**, align 4
  %2 = alloca %"class.FruitClick::Apple"**, align 4
  %3 = alloca %"class.FruitClick::Apple"**, align 4
  %__simple = alloca i8, align 1
  store %"class.FruitClick::Apple"** %__first, %"class.FruitClick::Apple"*** %1, align 4
  call void @llvm.dbg.declare(metadata !{%"class.FruitClick::Apple"*** %1}, metadata !7207), !dbg !7208
  store %"class.FruitClick::Apple"** %__last, %"class.FruitClick::Apple"*** %2, align 4
  call void @llvm.dbg.declare(metadata !{%"class.FruitClick::Apple"*** %2}, metadata !7209), !dbg !7210
  store %"class.FruitClick::Apple"** %__result, %"class.FruitClick::Apple"*** %3, align 4
  call void @llvm.dbg.declare(metadata !{%"class.FruitClick::Apple"*** %3}, metadata !7211), !dbg !7212
  call void @llvm.dbg.declare(metadata !{i8* %__simple}, metadata !7213), !dbg !7216
  store i8 1, i8* %__simple, align 1, !dbg !7217
  %4 = load %"class.FruitClick::Apple"*** %1, align 4, !dbg !7218
  %5 = load %"class.FruitClick::Apple"*** %2, align 4, !dbg !7218
  %6 = load %"class.FruitClick::Apple"*** %3, align 4, !dbg !7218
  %7 = call %"class.FruitClick::Apple"** @_ZNSt11__copy_moveILb0ELb1ESt26random_access_iterator_tagE8__copy_mIPN10FruitClick5AppleEEEPT_PKS6_S9_S7_(%"class.FruitClick::Apple"** %4, %"class.FruitClick::Apple"** %5, %"class.FruitClick::Apple"** %6), !dbg !7218
  ret %"class.FruitClick::Apple"** %7, !dbg !7218
}

define linkonce_odr %"class.FruitClick::Apple"** @_ZSt12__niter_baseIPPN10FruitClick5AppleEENSt11_Niter_baseIT_E13iterator_typeES5_(%"class.FruitClick::Apple"** %__it) nounwind inlinehint {
  %1 = alloca %"class.FruitClick::Apple"**, align 4
  store %"class.FruitClick::Apple"** %__it, %"class.FruitClick::Apple"*** %1, align 4
  call void @llvm.dbg.declare(metadata !{%"class.FruitClick::Apple"*** %1}, metadata !7219), !dbg !7220
  %2 = load %"class.FruitClick::Apple"*** %1, align 4, !dbg !7221
  %3 = call %"class.FruitClick::Apple"** @_ZNSt10_Iter_baseIPPN10FruitClick5AppleELb0EE7_S_baseES3_(%"class.FruitClick::Apple"** %2), !dbg !7221
  ret %"class.FruitClick::Apple"** %3, !dbg !7221
}

define linkonce_odr %"class.FruitClick::Apple"** @_ZNSt11__copy_moveILb0ELb1ESt26random_access_iterator_tagE8__copy_mIPN10FruitClick5AppleEEEPT_PKS6_S9_S7_(%"class.FruitClick::Apple"** %__first, %"class.FruitClick::Apple"** %__last, %"class.FruitClick::Apple"** %__result) nounwind align 2 {
  %1 = alloca %"class.FruitClick::Apple"**, align 4
  %2 = alloca %"class.FruitClick::Apple"**, align 4
  %3 = alloca %"class.FruitClick::Apple"**, align 4
  %_Num = alloca i32, align 4
  store %"class.FruitClick::Apple"** %__first, %"class.FruitClick::Apple"*** %1, align 4
  call void @llvm.dbg.declare(metadata !{%"class.FruitClick::Apple"*** %1}, metadata !7223), !dbg !7224
  store %"class.FruitClick::Apple"** %__last, %"class.FruitClick::Apple"*** %2, align 4
  call void @llvm.dbg.declare(metadata !{%"class.FruitClick::Apple"*** %2}, metadata !7225), !dbg !7226
  store %"class.FruitClick::Apple"** %__result, %"class.FruitClick::Apple"*** %3, align 4
  call void @llvm.dbg.declare(metadata !{%"class.FruitClick::Apple"*** %3}, metadata !7227), !dbg !7228
  call void @llvm.dbg.declare(metadata !{i32* %_Num}, metadata !7229), !dbg !7232
  %4 = load %"class.FruitClick::Apple"*** %2, align 4, !dbg !7233
  %5 = load %"class.FruitClick::Apple"*** %1, align 4, !dbg !7233
  %6 = ptrtoint %"class.FruitClick::Apple"** %4 to i32, !dbg !7233
  %7 = ptrtoint %"class.FruitClick::Apple"** %5 to i32, !dbg !7233
  %8 = sub i32 %6, %7, !dbg !7233
  %9 = sdiv exact i32 %8, 4, !dbg !7233
  store i32 %9, i32* %_Num, align 4, !dbg !7233
  %10 = load i32* %_Num, align 4, !dbg !7234
  %11 = icmp ne i32 %10, 0, !dbg !7234
  br i1 %11, label %12, label %19, !dbg !7234

; <label>:12                                      ; preds = %0
  %13 = load %"class.FruitClick::Apple"*** %3, align 4, !dbg !7235
  %14 = bitcast %"class.FruitClick::Apple"** %13 to i8*, !dbg !7235
  %15 = load %"class.FruitClick::Apple"*** %1, align 4, !dbg !7235
  %16 = bitcast %"class.FruitClick::Apple"** %15 to i8*, !dbg !7235
  %17 = load i32* %_Num, align 4, !dbg !7235
  %18 = mul i32 4, %17, !dbg !7235
  call void @llvm.memmove.p0i8.p0i8.i32(i8* %14, i8* %16, i32 %18, i32 1, i1 false), !dbg !7235
  br label %19, !dbg !7235

; <label>:19                                      ; preds = %12, %0
  %20 = load %"class.FruitClick::Apple"*** %3, align 4, !dbg !7236
  %21 = load i32* %_Num, align 4, !dbg !7236
  %22 = getelementptr inbounds %"class.FruitClick::Apple"** %20, i32 %21, !dbg !7236
  ret %"class.FruitClick::Apple"** %22, !dbg !7236
}

declare void @llvm.memmove.p0i8.p0i8.i32(i8* nocapture, i8* nocapture, i32, i32, i1) nounwind

define linkonce_odr %"class.FruitClick::Apple"** @_ZN9__gnu_cxx13new_allocatorIPN10FruitClick5AppleEE8allocateEjPKv(%"class.__gnu_cxx::new_allocator.1"* %this, i32 %__n, i8*) align 2 {
  %2 = alloca %"class.__gnu_cxx::new_allocator.1"*, align 4
  %3 = alloca i32, align 4
  %4 = alloca i8*, align 4
  store %"class.__gnu_cxx::new_allocator.1"* %this, %"class.__gnu_cxx::new_allocator.1"** %2, align 4
  call void @llvm.dbg.declare(metadata !{%"class.__gnu_cxx::new_allocator.1"** %2}, metadata !7237), !dbg !7238
  store i32 %__n, i32* %3, align 4
  call void @llvm.dbg.declare(metadata !{i32* %3}, metadata !7239), !dbg !7240
  store i8* %0, i8** %4, align 4
  %5 = load %"class.__gnu_cxx::new_allocator.1"** %2
  %6 = load i32* %3, align 4, !dbg !7241
  %7 = call i32 @_ZNK9__gnu_cxx13new_allocatorIPN10FruitClick5AppleEE8max_sizeEv(%"class.__gnu_cxx::new_allocator.1"* %5) nounwind, !dbg !7243
  %8 = icmp ugt i32 %6, %7, !dbg !7243
  br i1 %8, label %9, label %10, !dbg !7243

; <label>:9                                       ; preds = %1
  call void @_ZSt17__throw_bad_allocv() noreturn, !dbg !7244
  unreachable, !dbg !7244

; <label>:10                                      ; preds = %1
  %11 = load i32* %3, align 4, !dbg !7245
  %12 = mul i32 %11, 4, !dbg !7245
  %13 = call noalias i8* @_Znwj(i32 %12), !dbg !7245
  %14 = bitcast i8* %13 to %"class.FruitClick::Apple"**, !dbg !7245
  ret %"class.FruitClick::Apple"** %14, !dbg !7245
}

define linkonce_odr i32 @_ZNK9__gnu_cxx13new_allocatorIPN10FruitClick5AppleEE8max_sizeEv(%"class.__gnu_cxx::new_allocator.1"* %this) nounwind align 2 {
  %1 = alloca %"class.__gnu_cxx::new_allocator.1"*, align 4
  store %"class.__gnu_cxx::new_allocator.1"* %this, %"class.__gnu_cxx::new_allocator.1"** %1, align 4
  call void @llvm.dbg.declare(metadata !{%"class.__gnu_cxx::new_allocator.1"** %1}, metadata !7246), !dbg !7247
  %2 = load %"class.__gnu_cxx::new_allocator.1"** %1
  ret i32 1073741823, !dbg !7248
}

declare void @_ZSt17__throw_bad_allocv() noreturn

define linkonce_odr i32 @_ZNKSt6vectorIPN10FruitClick5AppleESaIS2_EE8max_sizeEv(%"class.std::vector"* %this) align 2 {
  %1 = alloca %"class.std::vector"*, align 4
  store %"class.std::vector"* %this, %"class.std::vector"** %1, align 4
  call void @llvm.dbg.declare(metadata !{%"class.std::vector"** %1}, metadata !7250), !dbg !7251
  %2 = load %"class.std::vector"** %1
  %3 = bitcast %"class.std::vector"* %2 to %"struct.std::_Vector_base"*, !dbg !7252
  %4 = call %"class.std::allocator.0"* @_ZNKSt12_Vector_baseIPN10FruitClick5AppleESaIS2_EE19_M_get_Tp_allocatorEv(%"struct.std::_Vector_base"* %3), !dbg !7252
  %5 = bitcast %"class.std::allocator.0"* %4 to %"class.__gnu_cxx::new_allocator.1"*, !dbg !7252
  %6 = call i32 @_ZNK9__gnu_cxx13new_allocatorIPN10FruitClick5AppleEE8max_sizeEv(%"class.__gnu_cxx::new_allocator.1"* %5) nounwind, !dbg !7252
  ret i32 %6, !dbg !7252
}

declare void @_ZSt20__throw_length_errorPKc(i8*) noreturn

define linkonce_odr i32* @_ZSt3maxIjERKT_S2_S2_(i32* %__a, i32* %__b) nounwind {
  %1 = alloca i32*, align 4
  %2 = alloca i32*, align 4
  %3 = alloca i32*, align 4
  store i32* %__a, i32** %2, align 4
  call void @llvm.dbg.declare(metadata !{i32** %2}, metadata !7254), !dbg !7255
  store i32* %__b, i32** %3, align 4
  call void @llvm.dbg.declare(metadata !{i32** %3}, metadata !7256), !dbg !7257
  %4 = load i32** %2, !dbg !7258
  %5 = load i32* %4, align 4, !dbg !7258
  %6 = load i32** %3, !dbg !7258
  %7 = load i32* %6, align 4, !dbg !7258
  %8 = icmp ult i32 %5, %7, !dbg !7258
  br i1 %8, label %9, label %11, !dbg !7258

; <label>:9                                       ; preds = %0
  %10 = load i32** %3, !dbg !7260
  store i32* %10, i32** %1, !dbg !7260
  br label %13, !dbg !7260

; <label>:11                                      ; preds = %0
  %12 = load i32** %2, !dbg !7261
  store i32* %12, i32** %1, !dbg !7261
  br label %13, !dbg !7261

; <label>:13                                      ; preds = %11, %9
  %14 = load i32** %1, !dbg !7262
  ret i32* %14, !dbg !7262
}

define linkonce_odr %"class.std::allocator.0"* @_ZNKSt12_Vector_baseIPN10FruitClick5AppleESaIS2_EE19_M_get_Tp_allocatorEv(%"struct.std::_Vector_base"* %this) nounwind align 2 {
  %1 = alloca %"struct.std::_Vector_base"*, align 4
  store %"struct.std::_Vector_base"* %this, %"struct.std::_Vector_base"** %1, align 4
  call void @llvm.dbg.declare(metadata !{%"struct.std::_Vector_base"** %1}, metadata !7263), !dbg !7264
  %2 = load %"struct.std::_Vector_base"** %1
  %3 = getelementptr inbounds %"struct.std::_Vector_base"* %2, i32 0, i32 0, !dbg !7265
  %4 = bitcast %"struct.std::_Vector_base<FruitClick::Apple *, std::allocator<FruitClick::Apple *> >::_Vector_impl"* %3 to %"class.std::allocator.0"*, !dbg !7265
  ret %"class.std::allocator.0"* %4, !dbg !7265
}

define linkonce_odr %"class.FruitClick::Apple"** @_ZSt23__copy_move_backward_a2ILb0EPPN10FruitClick5AppleES3_ET1_T0_S5_S4_(%"class.FruitClick::Apple"** %__first, %"class.FruitClick::Apple"** %__last, %"class.FruitClick::Apple"** %__result) inlinehint {
  %1 = alloca %"class.FruitClick::Apple"**, align 4
  %2 = alloca %"class.FruitClick::Apple"**, align 4
  %3 = alloca %"class.FruitClick::Apple"**, align 4
  store %"class.FruitClick::Apple"** %__first, %"class.FruitClick::Apple"*** %1, align 4
  call void @llvm.dbg.declare(metadata !{%"class.FruitClick::Apple"*** %1}, metadata !7267), !dbg !7268
  store %"class.FruitClick::Apple"** %__last, %"class.FruitClick::Apple"*** %2, align 4
  call void @llvm.dbg.declare(metadata !{%"class.FruitClick::Apple"*** %2}, metadata !7269), !dbg !7270
  store %"class.FruitClick::Apple"** %__result, %"class.FruitClick::Apple"*** %3, align 4
  call void @llvm.dbg.declare(metadata !{%"class.FruitClick::Apple"*** %3}, metadata !7271), !dbg !7272
  %4 = load %"class.FruitClick::Apple"*** %1, align 4, !dbg !7273
  %5 = call %"class.FruitClick::Apple"** @_ZSt12__niter_baseIPPN10FruitClick5AppleEENSt11_Niter_baseIT_E13iterator_typeES5_(%"class.FruitClick::Apple"** %4), !dbg !7273
  %6 = load %"class.FruitClick::Apple"*** %2, align 4, !dbg !7275
  %7 = call %"class.FruitClick::Apple"** @_ZSt12__niter_baseIPPN10FruitClick5AppleEENSt11_Niter_baseIT_E13iterator_typeES5_(%"class.FruitClick::Apple"** %6), !dbg !7275
  %8 = load %"class.FruitClick::Apple"*** %3, align 4, !dbg !7276
  %9 = call %"class.FruitClick::Apple"** @_ZSt12__niter_baseIPPN10FruitClick5AppleEENSt11_Niter_baseIT_E13iterator_typeES5_(%"class.FruitClick::Apple"** %8), !dbg !7276
  %10 = call %"class.FruitClick::Apple"** @_ZSt22__copy_move_backward_aILb0EPPN10FruitClick5AppleES3_ET1_T0_S5_S4_(%"class.FruitClick::Apple"** %5, %"class.FruitClick::Apple"** %7, %"class.FruitClick::Apple"** %9), !dbg !7276
  ret %"class.FruitClick::Apple"** %10, !dbg !7276
}

define linkonce_odr %"class.FruitClick::Apple"** @_ZSt22__copy_move_backward_aILb0EPPN10FruitClick5AppleES3_ET1_T0_S5_S4_(%"class.FruitClick::Apple"** %__first, %"class.FruitClick::Apple"** %__last, %"class.FruitClick::Apple"** %__result) inlinehint {
  %1 = alloca %"class.FruitClick::Apple"**, align 4
  %2 = alloca %"class.FruitClick::Apple"**, align 4
  %3 = alloca %"class.FruitClick::Apple"**, align 4
  %__simple = alloca i8, align 1
  store %"class.FruitClick::Apple"** %__first, %"class.FruitClick::Apple"*** %1, align 4
  call void @llvm.dbg.declare(metadata !{%"class.FruitClick::Apple"*** %1}, metadata !7277), !dbg !7278
  store %"class.FruitClick::Apple"** %__last, %"class.FruitClick::Apple"*** %2, align 4
  call void @llvm.dbg.declare(metadata !{%"class.FruitClick::Apple"*** %2}, metadata !7279), !dbg !7280
  store %"class.FruitClick::Apple"** %__result, %"class.FruitClick::Apple"*** %3, align 4
  call void @llvm.dbg.declare(metadata !{%"class.FruitClick::Apple"*** %3}, metadata !7281), !dbg !7282
  call void @llvm.dbg.declare(metadata !{i8* %__simple}, metadata !7283), !dbg !7285
  store i8 1, i8* %__simple, align 1, !dbg !7286
  %4 = load %"class.FruitClick::Apple"*** %1, align 4, !dbg !7287
  %5 = load %"class.FruitClick::Apple"*** %2, align 4, !dbg !7287
  %6 = load %"class.FruitClick::Apple"*** %3, align 4, !dbg !7287
  %7 = call %"class.FruitClick::Apple"** @_ZNSt20__copy_move_backwardILb0ELb1ESt26random_access_iterator_tagE13__copy_move_bIPN10FruitClick5AppleEEEPT_PKS6_S9_S7_(%"class.FruitClick::Apple"** %4, %"class.FruitClick::Apple"** %5, %"class.FruitClick::Apple"** %6), !dbg !7287
  ret %"class.FruitClick::Apple"** %7, !dbg !7287
}

define linkonce_odr %"class.FruitClick::Apple"** @_ZNSt20__copy_move_backwardILb0ELb1ESt26random_access_iterator_tagE13__copy_move_bIPN10FruitClick5AppleEEEPT_PKS6_S9_S7_(%"class.FruitClick::Apple"** %__first, %"class.FruitClick::Apple"** %__last, %"class.FruitClick::Apple"** %__result) nounwind align 2 {
  %1 = alloca %"class.FruitClick::Apple"**, align 4
  %2 = alloca %"class.FruitClick::Apple"**, align 4
  %3 = alloca %"class.FruitClick::Apple"**, align 4
  %_Num = alloca i32, align 4
  store %"class.FruitClick::Apple"** %__first, %"class.FruitClick::Apple"*** %1, align 4
  call void @llvm.dbg.declare(metadata !{%"class.FruitClick::Apple"*** %1}, metadata !7288), !dbg !7289
  store %"class.FruitClick::Apple"** %__last, %"class.FruitClick::Apple"*** %2, align 4
  call void @llvm.dbg.declare(metadata !{%"class.FruitClick::Apple"*** %2}, metadata !7290), !dbg !7291
  store %"class.FruitClick::Apple"** %__result, %"class.FruitClick::Apple"*** %3, align 4
  call void @llvm.dbg.declare(metadata !{%"class.FruitClick::Apple"*** %3}, metadata !7292), !dbg !7293
  call void @llvm.dbg.declare(metadata !{i32* %_Num}, metadata !7294), !dbg !7296
  %4 = load %"class.FruitClick::Apple"*** %2, align 4, !dbg !7297
  %5 = load %"class.FruitClick::Apple"*** %1, align 4, !dbg !7297
  %6 = ptrtoint %"class.FruitClick::Apple"** %4 to i32, !dbg !7297
  %7 = ptrtoint %"class.FruitClick::Apple"** %5 to i32, !dbg !7297
  %8 = sub i32 %6, %7, !dbg !7297
  %9 = sdiv exact i32 %8, 4, !dbg !7297
  store i32 %9, i32* %_Num, align 4, !dbg !7297
  %10 = load i32* %_Num, align 4, !dbg !7298
  %11 = icmp ne i32 %10, 0, !dbg !7298
  br i1 %11, label %12, label %22, !dbg !7298

; <label>:12                                      ; preds = %0
  %13 = load %"class.FruitClick::Apple"*** %3, align 4, !dbg !7299
  %14 = load i32* %_Num, align 4, !dbg !7299
  %15 = sub i32 0, %14, !dbg !7299
  %16 = getelementptr inbounds %"class.FruitClick::Apple"** %13, i32 %15, !dbg !7299
  %17 = bitcast %"class.FruitClick::Apple"** %16 to i8*, !dbg !7299
  %18 = load %"class.FruitClick::Apple"*** %1, align 4, !dbg !7299
  %19 = bitcast %"class.FruitClick::Apple"** %18 to i8*, !dbg !7299
  %20 = load i32* %_Num, align 4, !dbg !7299
  %21 = mul i32 4, %20, !dbg !7299
  call void @llvm.memmove.p0i8.p0i8.i32(i8* %17, i8* %19, i32 %21, i32 1, i1 false), !dbg !7299
  br label %22, !dbg !7299

; <label>:22                                      ; preds = %12, %0
  %23 = load %"class.FruitClick::Apple"*** %3, align 4, !dbg !7300
  %24 = load i32* %_Num, align 4, !dbg !7300
  %25 = sub i32 0, %24, !dbg !7300
  %26 = getelementptr inbounds %"class.FruitClick::Apple"** %23, i32 %25, !dbg !7300
  ret %"class.FruitClick::Apple"** %26, !dbg !7300
}

define linkonce_odr void @_ZNSt6vectorIPN10FruitClick5AppleESaIS2_EE15_M_erase_at_endEPS2_(%"class.std::vector"* %this, %"class.FruitClick::Apple"** %__pos) align 2 {
  %1 = alloca %"class.std::vector"*, align 4
  %2 = alloca %"class.FruitClick::Apple"**, align 4
  store %"class.std::vector"* %this, %"class.std::vector"** %1, align 4
  call void @llvm.dbg.declare(metadata !{%"class.std::vector"** %1}, metadata !7301), !dbg !7302
  store %"class.FruitClick::Apple"** %__pos, %"class.FruitClick::Apple"*** %2, align 4
  call void @llvm.dbg.declare(metadata !{%"class.FruitClick::Apple"*** %2}, metadata !7303), !dbg !7304
  %3 = load %"class.std::vector"** %1
  %4 = load %"class.FruitClick::Apple"*** %2, align 4, !dbg !7305
  %5 = bitcast %"class.std::vector"* %3 to %"struct.std::_Vector_base"*, !dbg !7305
  %6 = getelementptr inbounds %"struct.std::_Vector_base"* %5, i32 0, i32 0, !dbg !7305
  %7 = getelementptr inbounds %"struct.std::_Vector_base<FruitClick::Apple *, std::allocator<FruitClick::Apple *> >::_Vector_impl"* %6, i32 0, i32 1, !dbg !7305
  %8 = load %"class.FruitClick::Apple"*** %7, align 4, !dbg !7305
  %9 = bitcast %"class.std::vector"* %3 to %"struct.std::_Vector_base"*, !dbg !7307
  %10 = call %"class.std::allocator.0"* @_ZNSt12_Vector_baseIPN10FruitClick5AppleESaIS2_EE19_M_get_Tp_allocatorEv(%"struct.std::_Vector_base"* %9), !dbg !7307
  call void @_ZSt8_DestroyIPPN10FruitClick5AppleES2_EvT_S4_RSaIT0_E(%"class.FruitClick::Apple"** %4, %"class.FruitClick::Apple"** %8, %"class.std::allocator.0"* %10), !dbg !7307
  %11 = load %"class.FruitClick::Apple"*** %2, align 4, !dbg !7308
  %12 = bitcast %"class.std::vector"* %3 to %"struct.std::_Vector_base"*, !dbg !7308
  %13 = getelementptr inbounds %"struct.std::_Vector_base"* %12, i32 0, i32 0, !dbg !7308
  %14 = getelementptr inbounds %"struct.std::_Vector_base<FruitClick::Apple *, std::allocator<FruitClick::Apple *> >::_Vector_impl"* %13, i32 0, i32 1, !dbg !7308
  store %"class.FruitClick::Apple"** %11, %"class.FruitClick::Apple"*** %14, align 4, !dbg !7308
  ret void, !dbg !7309
}

define linkonce_odr i32 @_ZNSt8_Rb_treeIPN10FruitClick5AppleES2_St9_IdentityIS2_ESt4lessIS2_ESaIS2_EE5eraseERKS2_(%"class.std::_Rb_tree"* %this, %"class.FruitClick::Apple"** %__x) align 2 {
  %1 = alloca %"class.std::_Rb_tree"*, align 4
  %2 = alloca %"class.FruitClick::Apple"**, align 4
  %__p = alloca %"struct.std::pair.6", align 4
  %__old_size = alloca i32, align 4
  %3 = alloca %"struct.std::_Rb_tree_iterator", align 4
  %4 = alloca %"struct.std::_Rb_tree_iterator", align 4
  store %"class.std::_Rb_tree"* %this, %"class.std::_Rb_tree"** %1, align 4
  call void @llvm.dbg.declare(metadata !{%"class.std::_Rb_tree"** %1}, metadata !7310), !dbg !7311
  store %"class.FruitClick::Apple"** %__x, %"class.FruitClick::Apple"*** %2, align 4
  call void @llvm.dbg.declare(metadata !{%"class.FruitClick::Apple"*** %2}, metadata !7312), !dbg !7313
  %5 = load %"class.std::_Rb_tree"** %1
  call void @llvm.dbg.declare(metadata !{%"struct.std::pair.6"* %__p}, metadata !7314), !dbg !7316
  %6 = load %"class.FruitClick::Apple"*** %2, !dbg !7317
  call void @_ZNSt8_Rb_treeIPN10FruitClick5AppleES2_St9_IdentityIS2_ESt4lessIS2_ESaIS2_EE11equal_rangeERKS2_(%"struct.std::pair.6"* sret %__p, %"class.std::_Rb_tree"* %5, %"class.FruitClick::Apple"** %6), !dbg !7317
  call void @llvm.dbg.declare(metadata !{i32* %__old_size}, metadata !7318), !dbg !7320
  %7 = call i32 @_ZNKSt8_Rb_treeIPN10FruitClick5AppleES2_St9_IdentityIS2_ESt4lessIS2_ESaIS2_EE4sizeEv(%"class.std::_Rb_tree"* %5), !dbg !7321
  store i32 %7, i32* %__old_size, align 4, !dbg !7321
  %8 = getelementptr inbounds %"struct.std::pair.6"* %__p, i32 0, i32 0, !dbg !7322
  %9 = bitcast %"struct.std::_Rb_tree_iterator"* %3 to i8*, !dbg !7322
  %10 = bitcast %"struct.std::_Rb_tree_iterator"* %8 to i8*, !dbg !7322
  call void @llvm.memcpy.p0i8.p0i8.i32(i8* %9, i8* %10, i32 4, i32 4, i1 false), !dbg !7322
  %11 = getelementptr inbounds %"struct.std::pair.6"* %__p, i32 0, i32 1, !dbg !7322
  %12 = bitcast %"struct.std::_Rb_tree_iterator"* %4 to i8*, !dbg !7322
  %13 = bitcast %"struct.std::_Rb_tree_iterator"* %11 to i8*, !dbg !7322
  call void @llvm.memcpy.p0i8.p0i8.i32(i8* %12, i8* %13, i32 4, i32 4, i1 false), !dbg !7322
  call void @_ZNSt8_Rb_treeIPN10FruitClick5AppleES2_St9_IdentityIS2_ESt4lessIS2_ESaIS2_EE5eraseESt17_Rb_tree_iteratorIS2_ESA_(%"class.std::_Rb_tree"* %5, %"struct.std::_Rb_tree_iterator"* byval align 4 %3, %"struct.std::_Rb_tree_iterator"* byval align 4 %4), !dbg !7322
  %14 = load i32* %__old_size, align 4, !dbg !7323
  %15 = call i32 @_ZNKSt8_Rb_treeIPN10FruitClick5AppleES2_St9_IdentityIS2_ESt4lessIS2_ESaIS2_EE4sizeEv(%"class.std::_Rb_tree"* %5), !dbg !7324
  %16 = sub i32 %14, %15, !dbg !7324
  ret i32 %16, !dbg !7324
}

define linkonce_odr void @_ZNSt8_Rb_treeIPN10FruitClick5AppleES2_St9_IdentityIS2_ESt4lessIS2_ESaIS2_EE11equal_rangeERKS2_(%"struct.std::pair.6"* noalias sret %agg.result, %"class.std::_Rb_tree"* %this, %"class.FruitClick::Apple"** %__k) align 2 {
  %1 = alloca %"class.std::_Rb_tree"*, align 4
  %2 = alloca %"class.FruitClick::Apple"**, align 4
  %__x = alloca %"struct.std::_Rb_tree_node"*, align 4
  %__y = alloca %"struct.std::_Rb_tree_node"*, align 4
  %__xu = alloca %"struct.std::_Rb_tree_node"*, align 4
  %__yu = alloca %"struct.std::_Rb_tree_node"*, align 4
  %3 = alloca %"struct.std::_Rb_tree_iterator", align 4
  %4 = alloca %"struct.std::_Rb_tree_iterator", align 4
  %5 = alloca %"struct.std::_Rb_tree_iterator", align 4
  %6 = alloca %"struct.std::_Rb_tree_iterator", align 4
  store %"class.std::_Rb_tree"* %this, %"class.std::_Rb_tree"** %1, align 4
  call void @llvm.dbg.declare(metadata !{%"class.std::_Rb_tree"** %1}, metadata !7325), !dbg !7326
  store %"class.FruitClick::Apple"** %__k, %"class.FruitClick::Apple"*** %2, align 4
  call void @llvm.dbg.declare(metadata !{%"class.FruitClick::Apple"*** %2}, metadata !7327), !dbg !7328
  %7 = load %"class.std::_Rb_tree"** %1
  call void @llvm.dbg.declare(metadata !{%"struct.std::_Rb_tree_node"** %__x}, metadata !7329), !dbg !7331
  %8 = call %"struct.std::_Rb_tree_node"* @_ZNSt8_Rb_treeIPN10FruitClick5AppleES2_St9_IdentityIS2_ESt4lessIS2_ESaIS2_EE8_M_beginEv(%"class.std::_Rb_tree"* %7), !dbg !7332
  store %"struct.std::_Rb_tree_node"* %8, %"struct.std::_Rb_tree_node"** %__x, align 4, !dbg !7332
  call void @llvm.dbg.declare(metadata !{%"struct.std::_Rb_tree_node"** %__y}, metadata !7333), !dbg !7334
  %9 = call %"struct.std::_Rb_tree_node"* @_ZNSt8_Rb_treeIPN10FruitClick5AppleES2_St9_IdentityIS2_ESt4lessIS2_ESaIS2_EE6_M_endEv(%"class.std::_Rb_tree"* %7), !dbg !7335
  store %"struct.std::_Rb_tree_node"* %9, %"struct.std::_Rb_tree_node"** %__y, align 4, !dbg !7335
  br label %10, !dbg !7336

; <label>:10                                      ; preds = %53, %0
  %11 = load %"struct.std::_Rb_tree_node"** %__x, align 4, !dbg !7336
  %12 = icmp ne %"struct.std::_Rb_tree_node"* %11, null, !dbg !7336
  br i1 %12, label %13, label %54, !dbg !7336

; <label>:13                                      ; preds = %10
  %14 = getelementptr inbounds %"class.std::_Rb_tree"* %7, i32 0, i32 0, !dbg !7337
  %15 = getelementptr inbounds %"struct.std::_Rb_tree<FruitClick::Apple *, FruitClick::Apple *, std::_Identity<FruitClick::Apple *>, std::less<FruitClick::Apple *>, std::allocator<FruitClick::Apple *> >::_Rb_tree_impl"* %14, i32 0, i32 0, !dbg !7337
  %16 = load %"struct.std::_Rb_tree_node"** %__x, align 4, !dbg !7339
  %17 = call %"class.FruitClick::Apple"** @_ZNSt8_Rb_treeIPN10FruitClick5AppleES2_St9_IdentityIS2_ESt4lessIS2_ESaIS2_EE6_S_keyEPKSt13_Rb_tree_nodeIS2_E(%"struct.std::_Rb_tree_node"* %16), !dbg !7339
  %18 = load %"class.FruitClick::Apple"*** %2, !dbg !7339
  %19 = call zeroext i1 @_ZNKSt4lessIPN10FruitClick5AppleEEclERKS2_S5_(%"struct.std::less"* %15, %"class.FruitClick::Apple"** %17, %"class.FruitClick::Apple"** %18), !dbg !7339
  br i1 %19, label %20, label %24, !dbg !7339

; <label>:20                                      ; preds = %13
  %21 = load %"struct.std::_Rb_tree_node"** %__x, align 4, !dbg !7340
  %22 = bitcast %"struct.std::_Rb_tree_node"* %21 to %"struct.std::_Rb_tree_node_base"*, !dbg !7340
  %23 = call %"struct.std::_Rb_tree_node"* @_ZNSt8_Rb_treeIPN10FruitClick5AppleES2_St9_IdentityIS2_ESt4lessIS2_ESaIS2_EE8_S_rightEPSt18_Rb_tree_node_base(%"struct.std::_Rb_tree_node_base"* %22), !dbg !7340
  store %"struct.std::_Rb_tree_node"* %23, %"struct.std::_Rb_tree_node"** %__x, align 4, !dbg !7340
  br label %53, !dbg !7340

; <label>:24                                      ; preds = %13
  %25 = getelementptr inbounds %"class.std::_Rb_tree"* %7, i32 0, i32 0, !dbg !7341
  %26 = getelementptr inbounds %"struct.std::_Rb_tree<FruitClick::Apple *, FruitClick::Apple *, std::_Identity<FruitClick::Apple *>, std::less<FruitClick::Apple *>, std::allocator<FruitClick::Apple *> >::_Rb_tree_impl"* %25, i32 0, i32 0, !dbg !7341
  %27 = load %"class.FruitClick::Apple"*** %2, !dbg !7341
  %28 = load %"struct.std::_Rb_tree_node"** %__x, align 4, !dbg !7342
  %29 = call %"class.FruitClick::Apple"** @_ZNSt8_Rb_treeIPN10FruitClick5AppleES2_St9_IdentityIS2_ESt4lessIS2_ESaIS2_EE6_S_keyEPKSt13_Rb_tree_nodeIS2_E(%"struct.std::_Rb_tree_node"* %28), !dbg !7342
  %30 = call zeroext i1 @_ZNKSt4lessIPN10FruitClick5AppleEEclERKS2_S5_(%"struct.std::less"* %26, %"class.FruitClick::Apple"** %27, %"class.FruitClick::Apple"** %29), !dbg !7342
  br i1 %30, label %31, label %36, !dbg !7342

; <label>:31                                      ; preds = %24
  %32 = load %"struct.std::_Rb_tree_node"** %__x, align 4, !dbg !7343
  store %"struct.std::_Rb_tree_node"* %32, %"struct.std::_Rb_tree_node"** %__y, align 4, !dbg !7343
  %33 = load %"struct.std::_Rb_tree_node"** %__x, align 4, !dbg !7344
  %34 = bitcast %"struct.std::_Rb_tree_node"* %33 to %"struct.std::_Rb_tree_node_base"*, !dbg !7344
  %35 = call %"struct.std::_Rb_tree_node"* @_ZNSt8_Rb_treeIPN10FruitClick5AppleES2_St9_IdentityIS2_ESt4lessIS2_ESaIS2_EE7_S_leftEPSt18_Rb_tree_node_base(%"struct.std::_Rb_tree_node_base"* %34), !dbg !7344
  store %"struct.std::_Rb_tree_node"* %35, %"struct.std::_Rb_tree_node"** %__x, align 4, !dbg !7344
  br label %52, !dbg !7344

; <label>:36                                      ; preds = %24
  call void @llvm.dbg.declare(metadata !{%"struct.std::_Rb_tree_node"** %__xu}, metadata !7345), !dbg !7347
  %37 = load %"struct.std::_Rb_tree_node"** %__x, align 4, !dbg !7348
  store %"struct.std::_Rb_tree_node"* %37, %"struct.std::_Rb_tree_node"** %__xu, align 4, !dbg !7348
  call void @llvm.dbg.declare(metadata !{%"struct.std::_Rb_tree_node"** %__yu}, metadata !7349), !dbg !7350
  %38 = load %"struct.std::_Rb_tree_node"** %__y, align 4, !dbg !7348
  store %"struct.std::_Rb_tree_node"* %38, %"struct.std::_Rb_tree_node"** %__yu, align 4, !dbg !7348
  %39 = load %"struct.std::_Rb_tree_node"** %__x, align 4, !dbg !7351
  store %"struct.std::_Rb_tree_node"* %39, %"struct.std::_Rb_tree_node"** %__y, align 4, !dbg !7351
  %40 = load %"struct.std::_Rb_tree_node"** %__x, align 4, !dbg !7352
  %41 = bitcast %"struct.std::_Rb_tree_node"* %40 to %"struct.std::_Rb_tree_node_base"*, !dbg !7352
  %42 = call %"struct.std::_Rb_tree_node"* @_ZNSt8_Rb_treeIPN10FruitClick5AppleES2_St9_IdentityIS2_ESt4lessIS2_ESaIS2_EE7_S_leftEPSt18_Rb_tree_node_base(%"struct.std::_Rb_tree_node_base"* %41), !dbg !7352
  store %"struct.std::_Rb_tree_node"* %42, %"struct.std::_Rb_tree_node"** %__x, align 4, !dbg !7352
  %43 = load %"struct.std::_Rb_tree_node"** %__xu, align 4, !dbg !7353
  %44 = bitcast %"struct.std::_Rb_tree_node"* %43 to %"struct.std::_Rb_tree_node_base"*, !dbg !7353
  %45 = call %"struct.std::_Rb_tree_node"* @_ZNSt8_Rb_treeIPN10FruitClick5AppleES2_St9_IdentityIS2_ESt4lessIS2_ESaIS2_EE8_S_rightEPSt18_Rb_tree_node_base(%"struct.std::_Rb_tree_node_base"* %44), !dbg !7353
  store %"struct.std::_Rb_tree_node"* %45, %"struct.std::_Rb_tree_node"** %__xu, align 4, !dbg !7353
  %46 = load %"struct.std::_Rb_tree_node"** %__x, align 4, !dbg !7354
  %47 = load %"struct.std::_Rb_tree_node"** %__y, align 4, !dbg !7354
  %48 = load %"class.FruitClick::Apple"*** %2, !dbg !7354
  call void @_ZNSt8_Rb_treeIPN10FruitClick5AppleES2_St9_IdentityIS2_ESt4lessIS2_ESaIS2_EE14_M_lower_boundEPSt13_Rb_tree_nodeIS2_ESB_RKS2_(%"struct.std::_Rb_tree_iterator"* sret %3, %"class.std::_Rb_tree"* %7, %"struct.std::_Rb_tree_node"* %46, %"struct.std::_Rb_tree_node"* %47, %"class.FruitClick::Apple"** %48), !dbg !7354
  %49 = load %"struct.std::_Rb_tree_node"** %__xu, align 4, !dbg !7355
  %50 = load %"struct.std::_Rb_tree_node"** %__yu, align 4, !dbg !7355
  %51 = load %"class.FruitClick::Apple"*** %2, !dbg !7355
  call void @_ZNSt8_Rb_treeIPN10FruitClick5AppleES2_St9_IdentityIS2_ESt4lessIS2_ESaIS2_EE14_M_upper_boundEPSt13_Rb_tree_nodeIS2_ESB_RKS2_(%"struct.std::_Rb_tree_iterator"* sret %4, %"class.std::_Rb_tree"* %7, %"struct.std::_Rb_tree_node"* %49, %"struct.std::_Rb_tree_node"* %50, %"class.FruitClick::Apple"** %51), !dbg !7355
  call void @_ZNSt4pairISt17_Rb_tree_iteratorIPN10FruitClick5AppleEES4_EC1ERKS4_S7_(%"struct.std::pair.6"* %agg.result, %"struct.std::_Rb_tree_iterator"* %3, %"struct.std::_Rb_tree_iterator"* %4), !dbg !7355
  br label %57, !dbg !7355

; <label>:52                                      ; preds = %31
  br label %53

; <label>:53                                      ; preds = %52, %20
  br label %10, !dbg !7356

; <label>:54                                      ; preds = %10
  %55 = load %"struct.std::_Rb_tree_node"** %__y, align 4, !dbg !7357
  call void @_ZNSt17_Rb_tree_iteratorIPN10FruitClick5AppleEEC1EPSt13_Rb_tree_nodeIS2_E(%"struct.std::_Rb_tree_iterator"* %5, %"struct.std::_Rb_tree_node"* %55), !dbg !7357
  %56 = load %"struct.std::_Rb_tree_node"** %__y, align 4, !dbg !7357
  call void @_ZNSt17_Rb_tree_iteratorIPN10FruitClick5AppleEEC1EPSt13_Rb_tree_nodeIS2_E(%"struct.std::_Rb_tree_iterator"* %6, %"struct.std::_Rb_tree_node"* %56), !dbg !7357
  call void @_ZNSt4pairISt17_Rb_tree_iteratorIPN10FruitClick5AppleEES4_EC1ERKS4_S7_(%"struct.std::pair.6"* %agg.result, %"struct.std::_Rb_tree_iterator"* %5, %"struct.std::_Rb_tree_iterator"* %6), !dbg !7357
  br label %57, !dbg !7357

; <label>:57                                      ; preds = %54, %36
  ret void, !dbg !7358
}

define linkonce_odr i32 @_ZNKSt8_Rb_treeIPN10FruitClick5AppleES2_St9_IdentityIS2_ESt4lessIS2_ESaIS2_EE4sizeEv(%"class.std::_Rb_tree"* %this) nounwind align 2 {
  %1 = alloca %"class.std::_Rb_tree"*, align 4
  store %"class.std::_Rb_tree"* %this, %"class.std::_Rb_tree"** %1, align 4
  call void @llvm.dbg.declare(metadata !{%"class.std::_Rb_tree"** %1}, metadata !7359), !dbg !7360
  %2 = load %"class.std::_Rb_tree"** %1
  %3 = getelementptr inbounds %"class.std::_Rb_tree"* %2, i32 0, i32 0, !dbg !7361
  %4 = getelementptr inbounds %"struct.std::_Rb_tree<FruitClick::Apple *, FruitClick::Apple *, std::_Identity<FruitClick::Apple *>, std::less<FruitClick::Apple *>, std::allocator<FruitClick::Apple *> >::_Rb_tree_impl"* %3, i32 0, i32 2, !dbg !7361
  %5 = load i32* %4, align 4, !dbg !7361
  ret i32 %5, !dbg !7361
}

define linkonce_odr void @_ZNSt8_Rb_treeIPN10FruitClick5AppleES2_St9_IdentityIS2_ESt4lessIS2_ESaIS2_EE5eraseESt17_Rb_tree_iteratorIS2_ESA_(%"class.std::_Rb_tree"* %this, %"struct.std::_Rb_tree_iterator"* byval align 4 %__first, %"struct.std::_Rb_tree_iterator"* byval align 4 %__last) align 2 {
  %1 = alloca %"class.std::_Rb_tree"*, align 4
  %2 = alloca %"struct.std::_Rb_tree_const_iterator", align 4
  %3 = alloca %"struct.std::_Rb_tree_const_iterator", align 4
  store %"class.std::_Rb_tree"* %this, %"class.std::_Rb_tree"** %1, align 4
  call void @llvm.dbg.declare(metadata !{%"class.std::_Rb_tree"** %1}, metadata !7363), !dbg !7364
  call void @llvm.dbg.declare(metadata !{%"struct.std::_Rb_tree_iterator"* %__first}, metadata !7365), !dbg !7366
  call void @llvm.dbg.declare(metadata !{%"struct.std::_Rb_tree_iterator"* %__last}, metadata !7367), !dbg !7368
  %4 = load %"class.std::_Rb_tree"** %1
  call void @_ZNSt23_Rb_tree_const_iteratorIPN10FruitClick5AppleEEC1ERKSt17_Rb_tree_iteratorIS2_E(%"struct.std::_Rb_tree_const_iterator"* %2, %"struct.std::_Rb_tree_iterator"* %__first), !dbg !7369
  call void @_ZNSt23_Rb_tree_const_iteratorIPN10FruitClick5AppleEEC1ERKSt17_Rb_tree_iteratorIS2_E(%"struct.std::_Rb_tree_const_iterator"* %3, %"struct.std::_Rb_tree_iterator"* %__last), !dbg !7369
  call void @_ZNSt8_Rb_treeIPN10FruitClick5AppleES2_St9_IdentityIS2_ESt4lessIS2_ESaIS2_EE12_M_erase_auxESt23_Rb_tree_const_iteratorIS2_ESA_(%"class.std::_Rb_tree"* %4, %"struct.std::_Rb_tree_const_iterator"* byval align 4 %2, %"struct.std::_Rb_tree_const_iterator"* byval align 4 %3), !dbg !7369
  ret void, !dbg !7371
}

declare void @llvm.memcpy.p0i8.p0i8.i32(i8* nocapture, i8* nocapture, i32, i32, i1) nounwind

define linkonce_odr void @_ZNSt8_Rb_treeIPN10FruitClick5AppleES2_St9_IdentityIS2_ESt4lessIS2_ESaIS2_EE12_M_erase_auxESt23_Rb_tree_const_iteratorIS2_ESA_(%"class.std::_Rb_tree"* %this, %"struct.std::_Rb_tree_const_iterator"* byval align 4 %__first, %"struct.std::_Rb_tree_const_iterator"* byval align 4 %__last) align 2 {
  %1 = alloca %"class.std::_Rb_tree"*, align 4
  %2 = alloca %"struct.std::_Rb_tree_const_iterator", align 4
  %3 = alloca %"struct.std::_Rb_tree_iterator", align 4
  %4 = alloca %"struct.std::_Rb_tree_const_iterator", align 4
  %5 = alloca %"struct.std::_Rb_tree_iterator", align 4
  %6 = alloca %"struct.std::_Rb_tree_const_iterator", align 4
  store %"class.std::_Rb_tree"* %this, %"class.std::_Rb_tree"** %1, align 4
  call void @llvm.dbg.declare(metadata !{%"class.std::_Rb_tree"** %1}, metadata !7372), !dbg !7373
  call void @llvm.dbg.declare(metadata !{%"struct.std::_Rb_tree_const_iterator"* %__first}, metadata !7374), !dbg !7375
  call void @llvm.dbg.declare(metadata !{%"struct.std::_Rb_tree_const_iterator"* %__last}, metadata !7376), !dbg !7377
  %7 = load %"class.std::_Rb_tree"** %1
  call void @_ZNSt8_Rb_treeIPN10FruitClick5AppleES2_St9_IdentityIS2_ESt4lessIS2_ESaIS2_EE5beginEv(%"struct.std::_Rb_tree_iterator"* sret %3, %"class.std::_Rb_tree"* %7), !dbg !7378
  call void @_ZNSt23_Rb_tree_const_iteratorIPN10FruitClick5AppleEEC1ERKSt17_Rb_tree_iteratorIS2_E(%"struct.std::_Rb_tree_const_iterator"* %2, %"struct.std::_Rb_tree_iterator"* %3), !dbg !7378
  %8 = call zeroext i1 @_ZNKSt23_Rb_tree_const_iteratorIPN10FruitClick5AppleEEeqERKS3_(%"struct.std::_Rb_tree_const_iterator"* %__first, %"struct.std::_Rb_tree_const_iterator"* %2), !dbg !7378
  br i1 %8, label %9, label %12, !dbg !7378

; <label>:9                                       ; preds = %0
  call void @_ZNSt8_Rb_treeIPN10FruitClick5AppleES2_St9_IdentityIS2_ESt4lessIS2_ESaIS2_EE3endEv(%"struct.std::_Rb_tree_iterator"* sret %5, %"class.std::_Rb_tree"* %7), !dbg !7380
  call void @_ZNSt23_Rb_tree_const_iteratorIPN10FruitClick5AppleEEC1ERKSt17_Rb_tree_iteratorIS2_E(%"struct.std::_Rb_tree_const_iterator"* %4, %"struct.std::_Rb_tree_iterator"* %5), !dbg !7380
  %10 = call zeroext i1 @_ZNKSt23_Rb_tree_const_iteratorIPN10FruitClick5AppleEEeqERKS3_(%"struct.std::_Rb_tree_const_iterator"* %__last, %"struct.std::_Rb_tree_const_iterator"* %4), !dbg !7380
  br i1 %10, label %11, label %12, !dbg !7380

; <label>:11                                      ; preds = %9
  call void @_ZNSt8_Rb_treeIPN10FruitClick5AppleES2_St9_IdentityIS2_ESt4lessIS2_ESaIS2_EE5clearEv(%"class.std::_Rb_tree"* %7), !dbg !7381
  br label %17, !dbg !7381

; <label>:12                                      ; preds = %9, %0
  br label %13, !dbg !7382

; <label>:13                                      ; preds = %15, %12
  %14 = call zeroext i1 @_ZNKSt23_Rb_tree_const_iteratorIPN10FruitClick5AppleEEneERKS3_(%"struct.std::_Rb_tree_const_iterator"* %__first, %"struct.std::_Rb_tree_const_iterator"* %__last), !dbg !7383
  br i1 %14, label %15, label %16, !dbg !7383

; <label>:15                                      ; preds = %13
  call void @_ZNSt23_Rb_tree_const_iteratorIPN10FruitClick5AppleEEppEi(%"struct.std::_Rb_tree_const_iterator"* sret %6, %"struct.std::_Rb_tree_const_iterator"* %__first, i32 0), !dbg !7384
  call void @_ZNSt8_Rb_treeIPN10FruitClick5AppleES2_St9_IdentityIS2_ESt4lessIS2_ESaIS2_EE5eraseESt23_Rb_tree_const_iteratorIS2_E(%"class.std::_Rb_tree"* %7, %"struct.std::_Rb_tree_const_iterator"* byval align 4 %6), !dbg !7384
  br label %13, !dbg !7384

; <label>:16                                      ; preds = %13
  br label %17

; <label>:17                                      ; preds = %16, %11
  ret void, !dbg !7385
}

define linkonce_odr void @_ZNSt23_Rb_tree_const_iteratorIPN10FruitClick5AppleEEC1ERKSt17_Rb_tree_iteratorIS2_E(%"struct.std::_Rb_tree_const_iterator"* %this, %"struct.std::_Rb_tree_iterator"* %__it) unnamed_addr align 2 {
  %1 = alloca %"struct.std::_Rb_tree_const_iterator"*, align 4
  %2 = alloca %"struct.std::_Rb_tree_iterator"*, align 4
  store %"struct.std::_Rb_tree_const_iterator"* %this, %"struct.std::_Rb_tree_const_iterator"** %1, align 4
  call void @llvm.dbg.declare(metadata !{%"struct.std::_Rb_tree_const_iterator"** %1}, metadata !7386), !dbg !7387
  store %"struct.std::_Rb_tree_iterator"* %__it, %"struct.std::_Rb_tree_iterator"** %2, align 4
  call void @llvm.dbg.declare(metadata !{%"struct.std::_Rb_tree_iterator"** %2}, metadata !7388), !dbg !7389
  %3 = load %"struct.std::_Rb_tree_const_iterator"** %1
  %4 = load %"struct.std::_Rb_tree_iterator"** %2, !dbg !7390
  call void @_ZNSt23_Rb_tree_const_iteratorIPN10FruitClick5AppleEEC2ERKSt17_Rb_tree_iteratorIS2_E(%"struct.std::_Rb_tree_const_iterator"* %3, %"struct.std::_Rb_tree_iterator"* %4), !dbg !7390
  ret void, !dbg !7390
}

define linkonce_odr void @_ZNSt23_Rb_tree_const_iteratorIPN10FruitClick5AppleEEC2ERKSt17_Rb_tree_iteratorIS2_E(%"struct.std::_Rb_tree_const_iterator"* %this, %"struct.std::_Rb_tree_iterator"* %__it) unnamed_addr nounwind align 2 {
  %1 = alloca %"struct.std::_Rb_tree_const_iterator"*, align 4
  %2 = alloca %"struct.std::_Rb_tree_iterator"*, align 4
  store %"struct.std::_Rb_tree_const_iterator"* %this, %"struct.std::_Rb_tree_const_iterator"** %1, align 4
  call void @llvm.dbg.declare(metadata !{%"struct.std::_Rb_tree_const_iterator"** %1}, metadata !7391), !dbg !7392
  store %"struct.std::_Rb_tree_iterator"* %__it, %"struct.std::_Rb_tree_iterator"** %2, align 4
  call void @llvm.dbg.declare(metadata !{%"struct.std::_Rb_tree_iterator"** %2}, metadata !7393), !dbg !7394
  %3 = load %"struct.std::_Rb_tree_const_iterator"** %1
  %4 = getelementptr inbounds %"struct.std::_Rb_tree_const_iterator"* %3, i32 0, i32 0, !dbg !7395
  %5 = load %"struct.std::_Rb_tree_iterator"** %2, !dbg !7395
  %6 = getelementptr inbounds %"struct.std::_Rb_tree_iterator"* %5, i32 0, i32 0, !dbg !7395
  %7 = load %"struct.std::_Rb_tree_node_base"** %6, align 4, !dbg !7395
  store %"struct.std::_Rb_tree_node_base"* %7, %"struct.std::_Rb_tree_node_base"** %4, align 4, !dbg !7395
  ret void, !dbg !7396
}

define linkonce_odr zeroext i1 @_ZNKSt23_Rb_tree_const_iteratorIPN10FruitClick5AppleEEeqERKS3_(%"struct.std::_Rb_tree_const_iterator"* %this, %"struct.std::_Rb_tree_const_iterator"* %__x) nounwind align 2 {
  %1 = alloca %"struct.std::_Rb_tree_const_iterator"*, align 4
  %2 = alloca %"struct.std::_Rb_tree_const_iterator"*, align 4
  store %"struct.std::_Rb_tree_const_iterator"* %this, %"struct.std::_Rb_tree_const_iterator"** %1, align 4
  call void @llvm.dbg.declare(metadata !{%"struct.std::_Rb_tree_const_iterator"** %1}, metadata !7398), !dbg !7399
  store %"struct.std::_Rb_tree_const_iterator"* %__x, %"struct.std::_Rb_tree_const_iterator"** %2, align 4
  call void @llvm.dbg.declare(metadata !{%"struct.std::_Rb_tree_const_iterator"** %2}, metadata !7400), !dbg !7401
  %3 = load %"struct.std::_Rb_tree_const_iterator"** %1
  %4 = getelementptr inbounds %"struct.std::_Rb_tree_const_iterator"* %3, i32 0, i32 0, !dbg !7402
  %5 = load %"struct.std::_Rb_tree_node_base"** %4, align 4, !dbg !7402
  %6 = load %"struct.std::_Rb_tree_const_iterator"** %2, !dbg !7402
  %7 = getelementptr inbounds %"struct.std::_Rb_tree_const_iterator"* %6, i32 0, i32 0, !dbg !7402
  %8 = load %"struct.std::_Rb_tree_node_base"** %7, align 4, !dbg !7402
  %9 = icmp eq %"struct.std::_Rb_tree_node_base"* %5, %8, !dbg !7402
  ret i1 %9, !dbg !7402
}

define linkonce_odr void @_ZNSt8_Rb_treeIPN10FruitClick5AppleES2_St9_IdentityIS2_ESt4lessIS2_ESaIS2_EE5beginEv(%"struct.std::_Rb_tree_iterator"* noalias sret %agg.result, %"class.std::_Rb_tree"* %this) align 2 {
  %1 = alloca %"class.std::_Rb_tree"*, align 4
  store %"class.std::_Rb_tree"* %this, %"class.std::_Rb_tree"** %1, align 4
  call void @llvm.dbg.declare(metadata !{%"class.std::_Rb_tree"** %1}, metadata !7404), !dbg !7405
  %2 = load %"class.std::_Rb_tree"** %1
  %3 = getelementptr inbounds %"class.std::_Rb_tree"* %2, i32 0, i32 0, !dbg !7406
  %4 = getelementptr inbounds %"struct.std::_Rb_tree<FruitClick::Apple *, FruitClick::Apple *, std::_Identity<FruitClick::Apple *>, std::less<FruitClick::Apple *>, std::allocator<FruitClick::Apple *> >::_Rb_tree_impl"* %3, i32 0, i32 1, !dbg !7406
  %5 = getelementptr inbounds %"struct.std::_Rb_tree_node_base"* %4, i32 0, i32 2, !dbg !7406
  %6 = load %"struct.std::_Rb_tree_node_base"** %5, align 4, !dbg !7406
  %7 = bitcast %"struct.std::_Rb_tree_node_base"* %6 to %"struct.std::_Rb_tree_node"*, !dbg !7406
  call void @_ZNSt17_Rb_tree_iteratorIPN10FruitClick5AppleEEC1EPSt13_Rb_tree_nodeIS2_E(%"struct.std::_Rb_tree_iterator"* %agg.result, %"struct.std::_Rb_tree_node"* %7), !dbg !7406
  ret void, !dbg !7406
}

define linkonce_odr void @_ZNSt8_Rb_treeIPN10FruitClick5AppleES2_St9_IdentityIS2_ESt4lessIS2_ESaIS2_EE3endEv(%"struct.std::_Rb_tree_iterator"* noalias sret %agg.result, %"class.std::_Rb_tree"* %this) align 2 {
  %1 = alloca %"class.std::_Rb_tree"*, align 4
  store %"class.std::_Rb_tree"* %this, %"class.std::_Rb_tree"** %1, align 4
  call void @llvm.dbg.declare(metadata !{%"class.std::_Rb_tree"** %1}, metadata !7408), !dbg !7409
  %2 = load %"class.std::_Rb_tree"** %1
  %3 = getelementptr inbounds %"class.std::_Rb_tree"* %2, i32 0, i32 0, !dbg !7410
  %4 = getelementptr inbounds %"struct.std::_Rb_tree<FruitClick::Apple *, FruitClick::Apple *, std::_Identity<FruitClick::Apple *>, std::less<FruitClick::Apple *>, std::allocator<FruitClick::Apple *> >::_Rb_tree_impl"* %3, i32 0, i32 1, !dbg !7410
  %5 = bitcast %"struct.std::_Rb_tree_node_base"* %4 to %"struct.std::_Rb_tree_node"*, !dbg !7410
  call void @_ZNSt17_Rb_tree_iteratorIPN10FruitClick5AppleEEC1EPSt13_Rb_tree_nodeIS2_E(%"struct.std::_Rb_tree_iterator"* %agg.result, %"struct.std::_Rb_tree_node"* %5), !dbg !7410
  ret void, !dbg !7410
}

define linkonce_odr void @_ZNSt8_Rb_treeIPN10FruitClick5AppleES2_St9_IdentityIS2_ESt4lessIS2_ESaIS2_EE5clearEv(%"class.std::_Rb_tree"* %this) align 2 {
  %1 = alloca %"class.std::_Rb_tree"*, align 4
  store %"class.std::_Rb_tree"* %this, %"class.std::_Rb_tree"** %1, align 4
  call void @llvm.dbg.declare(metadata !{%"class.std::_Rb_tree"** %1}, metadata !7412), !dbg !7413
  %2 = load %"class.std::_Rb_tree"** %1
  %3 = call %"struct.std::_Rb_tree_node"* @_ZNSt8_Rb_treeIPN10FruitClick5AppleES2_St9_IdentityIS2_ESt4lessIS2_ESaIS2_EE8_M_beginEv(%"class.std::_Rb_tree"* %2), !dbg !7414
  call void @_ZNSt8_Rb_treeIPN10FruitClick5AppleES2_St9_IdentityIS2_ESt4lessIS2_ESaIS2_EE8_M_eraseEPSt13_Rb_tree_nodeIS2_E(%"class.std::_Rb_tree"* %2, %"struct.std::_Rb_tree_node"* %3), !dbg !7414
  %4 = call %"struct.std::_Rb_tree_node"* @_ZNSt8_Rb_treeIPN10FruitClick5AppleES2_St9_IdentityIS2_ESt4lessIS2_ESaIS2_EE6_M_endEv(%"class.std::_Rb_tree"* %2), !dbg !7416
  %5 = bitcast %"struct.std::_Rb_tree_node"* %4 to %"struct.std::_Rb_tree_node_base"*, !dbg !7416
  %6 = call %"struct.std::_Rb_tree_node_base"** @_ZNSt8_Rb_treeIPN10FruitClick5AppleES2_St9_IdentityIS2_ESt4lessIS2_ESaIS2_EE11_M_leftmostEv(%"class.std::_Rb_tree"* %2), !dbg !7417
  store %"struct.std::_Rb_tree_node_base"* %5, %"struct.std::_Rb_tree_node_base"** %6, !dbg !7417
  %7 = call %"struct.std::_Rb_tree_node_base"** @_ZNSt8_Rb_treeIPN10FruitClick5AppleES2_St9_IdentityIS2_ESt4lessIS2_ESaIS2_EE7_M_rootEv(%"class.std::_Rb_tree"* %2), !dbg !7418
  store %"struct.std::_Rb_tree_node_base"* null, %"struct.std::_Rb_tree_node_base"** %7, !dbg !7418
  %8 = call %"struct.std::_Rb_tree_node"* @_ZNSt8_Rb_treeIPN10FruitClick5AppleES2_St9_IdentityIS2_ESt4lessIS2_ESaIS2_EE6_M_endEv(%"class.std::_Rb_tree"* %2), !dbg !7419
  %9 = bitcast %"struct.std::_Rb_tree_node"* %8 to %"struct.std::_Rb_tree_node_base"*, !dbg !7419
  %10 = call %"struct.std::_Rb_tree_node_base"** @_ZNSt8_Rb_treeIPN10FruitClick5AppleES2_St9_IdentityIS2_ESt4lessIS2_ESaIS2_EE12_M_rightmostEv(%"class.std::_Rb_tree"* %2), !dbg !7420
  store %"struct.std::_Rb_tree_node_base"* %9, %"struct.std::_Rb_tree_node_base"** %10, !dbg !7420
  %11 = getelementptr inbounds %"class.std::_Rb_tree"* %2, i32 0, i32 0, !dbg !7421
  %12 = getelementptr inbounds %"struct.std::_Rb_tree<FruitClick::Apple *, FruitClick::Apple *, std::_Identity<FruitClick::Apple *>, std::less<FruitClick::Apple *>, std::allocator<FruitClick::Apple *> >::_Rb_tree_impl"* %11, i32 0, i32 2, !dbg !7421
  store i32 0, i32* %12, align 4, !dbg !7421
  ret void, !dbg !7422
}

define linkonce_odr void @_ZNSt8_Rb_treeIPN10FruitClick5AppleES2_St9_IdentityIS2_ESt4lessIS2_ESaIS2_EE5eraseESt23_Rb_tree_const_iteratorIS2_E(%"class.std::_Rb_tree"* %this, %"struct.std::_Rb_tree_const_iterator"* byval align 4 %__position) align 2 {
  %1 = alloca %"class.std::_Rb_tree"*, align 4
  %2 = alloca %"struct.std::_Rb_tree_const_iterator", align 4
  store %"class.std::_Rb_tree"* %this, %"class.std::_Rb_tree"** %1, align 4
  call void @llvm.dbg.declare(metadata !{%"class.std::_Rb_tree"** %1}, metadata !7423), !dbg !7424
  call void @llvm.dbg.declare(metadata !{%"struct.std::_Rb_tree_const_iterator"* %__position}, metadata !7425), !dbg !7426
  %3 = load %"class.std::_Rb_tree"** %1
  %4 = bitcast %"struct.std::_Rb_tree_const_iterator"* %2 to i8*, !dbg !7427
  %5 = bitcast %"struct.std::_Rb_tree_const_iterator"* %__position to i8*, !dbg !7427
  call void @llvm.memcpy.p0i8.p0i8.i32(i8* %4, i8* %5, i32 4, i32 4, i1 false), !dbg !7427
  call void @_ZNSt8_Rb_treeIPN10FruitClick5AppleES2_St9_IdentityIS2_ESt4lessIS2_ESaIS2_EE12_M_erase_auxESt23_Rb_tree_const_iteratorIS2_E(%"class.std::_Rb_tree"* %3, %"struct.std::_Rb_tree_const_iterator"* byval align 4 %2), !dbg !7427
  ret void, !dbg !7429
}

define linkonce_odr void @_ZNSt23_Rb_tree_const_iteratorIPN10FruitClick5AppleEEppEi(%"struct.std::_Rb_tree_const_iterator"* noalias sret %agg.result, %"struct.std::_Rb_tree_const_iterator"* %this, i32) nounwind align 2 {
  %2 = alloca %"struct.std::_Rb_tree_const_iterator"*, align 4
  %3 = alloca i32, align 4
  store %"struct.std::_Rb_tree_const_iterator"* %this, %"struct.std::_Rb_tree_const_iterator"** %2, align 4
  call void @llvm.dbg.declare(metadata !{%"struct.std::_Rb_tree_const_iterator"** %2}, metadata !7430), !dbg !7431
  store i32 %0, i32* %3, align 4
  %4 = load %"struct.std::_Rb_tree_const_iterator"** %2
  call void @llvm.dbg.declare(metadata !{%"struct.std::_Rb_tree_const_iterator"* %agg.result}, metadata !7432), !dbg !7434
  %5 = bitcast %"struct.std::_Rb_tree_const_iterator"* %agg.result to i8*, !dbg !7435
  %6 = bitcast %"struct.std::_Rb_tree_const_iterator"* %4 to i8*, !dbg !7435
  call void @llvm.memcpy.p0i8.p0i8.i32(i8* %5, i8* %6, i32 4, i32 4, i1 false), !dbg !7435
  %7 = getelementptr inbounds %"struct.std::_Rb_tree_const_iterator"* %4, i32 0, i32 0, !dbg !7436
  %8 = load %"struct.std::_Rb_tree_node_base"** %7, align 4, !dbg !7436
  %9 = call %"struct.std::_Rb_tree_node_base"* @_ZSt18_Rb_tree_incrementPKSt18_Rb_tree_node_base(%"struct.std::_Rb_tree_node_base"* %8) nounwind readonly, !dbg !7436
  %10 = getelementptr inbounds %"struct.std::_Rb_tree_const_iterator"* %4, i32 0, i32 0, !dbg !7436
  store %"struct.std::_Rb_tree_node_base"* %9, %"struct.std::_Rb_tree_node_base"** %10, align 4, !dbg !7436
  ret void, !dbg !7437
}

declare %"struct.std::_Rb_tree_node_base"* @_ZSt18_Rb_tree_incrementPKSt18_Rb_tree_node_base(%"struct.std::_Rb_tree_node_base"*) nounwind readonly

define linkonce_odr void @_ZNSt8_Rb_treeIPN10FruitClick5AppleES2_St9_IdentityIS2_ESt4lessIS2_ESaIS2_EE12_M_erase_auxESt23_Rb_tree_const_iteratorIS2_E(%"class.std::_Rb_tree"* %this, %"struct.std::_Rb_tree_const_iterator"* byval align 4 %__position) align 2 {
  %1 = alloca %"class.std::_Rb_tree"*, align 4
  %__y = alloca %"struct.std::_Rb_tree_node"*, align 4
  store %"class.std::_Rb_tree"* %this, %"class.std::_Rb_tree"** %1, align 4
  call void @llvm.dbg.declare(metadata !{%"class.std::_Rb_tree"** %1}, metadata !7438), !dbg !7439
  call void @llvm.dbg.declare(metadata !{%"struct.std::_Rb_tree_const_iterator"* %__position}, metadata !7440), !dbg !7441
  %2 = load %"class.std::_Rb_tree"** %1
  call void @llvm.dbg.declare(metadata !{%"struct.std::_Rb_tree_node"** %__y}, metadata !7442), !dbg !7444
  %3 = getelementptr inbounds %"struct.std::_Rb_tree_const_iterator"* %__position, i32 0, i32 0, !dbg !7445
  %4 = load %"struct.std::_Rb_tree_node_base"** %3, align 4, !dbg !7445
  %5 = getelementptr inbounds %"class.std::_Rb_tree"* %2, i32 0, i32 0, !dbg !7445
  %6 = getelementptr inbounds %"struct.std::_Rb_tree<FruitClick::Apple *, FruitClick::Apple *, std::_Identity<FruitClick::Apple *>, std::less<FruitClick::Apple *>, std::allocator<FruitClick::Apple *> >::_Rb_tree_impl"* %5, i32 0, i32 1, !dbg !7445
  %7 = call %"struct.std::_Rb_tree_node_base"* @_ZSt28_Rb_tree_rebalance_for_erasePSt18_Rb_tree_node_baseRS_(%"struct.std::_Rb_tree_node_base"* %4, %"struct.std::_Rb_tree_node_base"* %6) nounwind, !dbg !7445
  %8 = bitcast %"struct.std::_Rb_tree_node_base"* %7 to %"struct.std::_Rb_tree_node"*, !dbg !7445
  store %"struct.std::_Rb_tree_node"* %8, %"struct.std::_Rb_tree_node"** %__y, align 4, !dbg !7445
  %9 = load %"struct.std::_Rb_tree_node"** %__y, align 4, !dbg !7446
  call void @_ZNSt8_Rb_treeIPN10FruitClick5AppleES2_St9_IdentityIS2_ESt4lessIS2_ESaIS2_EE15_M_destroy_nodeEPSt13_Rb_tree_nodeIS2_E(%"class.std::_Rb_tree"* %2, %"struct.std::_Rb_tree_node"* %9), !dbg !7446
  %10 = getelementptr inbounds %"class.std::_Rb_tree"* %2, i32 0, i32 0, !dbg !7447
  %11 = getelementptr inbounds %"struct.std::_Rb_tree<FruitClick::Apple *, FruitClick::Apple *, std::_Identity<FruitClick::Apple *>, std::less<FruitClick::Apple *>, std::allocator<FruitClick::Apple *> >::_Rb_tree_impl"* %10, i32 0, i32 2, !dbg !7447
  %12 = load i32* %11, align 4, !dbg !7447
  %13 = add i32 %12, -1, !dbg !7447
  store i32 %13, i32* %11, align 4, !dbg !7447
  ret void, !dbg !7448
}

declare %"struct.std::_Rb_tree_node_base"* @_ZSt28_Rb_tree_rebalance_for_erasePSt18_Rb_tree_node_baseRS_(%"struct.std::_Rb_tree_node_base"*, %"struct.std::_Rb_tree_node_base"*) nounwind

define linkonce_odr void @_ZNSt8_Rb_treeIPN10FruitClick5AppleES2_St9_IdentityIS2_ESt4lessIS2_ESaIS2_EE15_M_destroy_nodeEPSt13_Rb_tree_nodeIS2_E(%"class.std::_Rb_tree"* %this, %"struct.std::_Rb_tree_node"* %__p) align 2 {
  %1 = alloca %"class.std::_Rb_tree"*, align 4
  %2 = alloca %"struct.std::_Rb_tree_node"*, align 4
  %3 = alloca %"class.std::allocator.0", align 1
  %4 = alloca i8*
  %5 = alloca i32
  store %"class.std::_Rb_tree"* %this, %"class.std::_Rb_tree"** %1, align 4
  call void @llvm.dbg.declare(metadata !{%"class.std::_Rb_tree"** %1}, metadata !7449), !dbg !7450
  store %"struct.std::_Rb_tree_node"* %__p, %"struct.std::_Rb_tree_node"** %2, align 4
  call void @llvm.dbg.declare(metadata !{%"struct.std::_Rb_tree_node"** %2}, metadata !7451), !dbg !7452
  %6 = load %"class.std::_Rb_tree"** %1
  call void @_ZNKSt8_Rb_treeIPN10FruitClick5AppleES2_St9_IdentityIS2_ESt4lessIS2_ESaIS2_EE13get_allocatorEv(%"class.std::allocator.0"* sret %3, %"class.std::_Rb_tree"* %6), !dbg !7453
  %7 = bitcast %"class.std::allocator.0"* %3 to %"class.__gnu_cxx::new_allocator.1"*, !dbg !7453
  %8 = load %"struct.std::_Rb_tree_node"** %2, align 4, !dbg !7455
  %9 = getelementptr inbounds %"struct.std::_Rb_tree_node"* %8, i32 0, i32 1, !dbg !7455
  %10 = invoke %"class.FruitClick::Apple"** @_ZSt11__addressofIPN10FruitClick5AppleEEPT_RS3_(%"class.FruitClick::Apple"** %9)
          to label %11 unwind label %14, !dbg !7455

; <label>:11                                      ; preds = %0
  invoke void @_ZN9__gnu_cxx13new_allocatorIPN10FruitClick5AppleEE7destroyEPS3_(%"class.__gnu_cxx::new_allocator.1"* %7, %"class.FruitClick::Apple"** %10)
          to label %12 unwind label %14, !dbg !7455

; <label>:12                                      ; preds = %11
  call void @_ZNSaIPN10FruitClick5AppleEED1Ev(%"class.std::allocator.0"* %3) nounwind, !dbg !7455
  %13 = load %"struct.std::_Rb_tree_node"** %2, align 4, !dbg !7456
  call void @_ZNSt8_Rb_treeIPN10FruitClick5AppleES2_St9_IdentityIS2_ESt4lessIS2_ESaIS2_EE11_M_put_nodeEPSt13_Rb_tree_nodeIS2_E(%"class.std::_Rb_tree"* %6, %"struct.std::_Rb_tree_node"* %13), !dbg !7456
  ret void, !dbg !7457

; <label>:14                                      ; preds = %11, %0
  %15 = landingpad { i8*, i32 } personality i8* bitcast (i32 (...)* @__gxx_personality_v0 to i8*)
          cleanup, !dbg !7455
  %16 = extractvalue { i8*, i32 } %15, 0, !dbg !7455
  store i8* %16, i8** %4, !dbg !7455
  %17 = extractvalue { i8*, i32 } %15, 1, !dbg !7455
  store i32 %17, i32* %5, !dbg !7455
  call void @_ZNSaIPN10FruitClick5AppleEED1Ev(%"class.std::allocator.0"* %3) nounwind, !dbg !7455
  br label %18, !dbg !7455

; <label>:18                                      ; preds = %14
  %19 = load i8** %4, !dbg !7455
  %20 = load i8** %4, !dbg !7455
  %21 = load i32* %5, !dbg !7455
  %22 = insertvalue { i8*, i32 } undef, i8* %20, 0, !dbg !7455
  %23 = insertvalue { i8*, i32 } %22, i32 %21, 1, !dbg !7455
  resume { i8*, i32 } %23, !dbg !7455
}

define linkonce_odr void @_ZNKSt8_Rb_treeIPN10FruitClick5AppleES2_St9_IdentityIS2_ESt4lessIS2_ESaIS2_EE13get_allocatorEv(%"class.std::allocator.0"* noalias sret %agg.result, %"class.std::_Rb_tree"* %this) align 2 {
  %1 = alloca %"class.std::_Rb_tree"*, align 4
  store %"class.std::_Rb_tree"* %this, %"class.std::_Rb_tree"** %1, align 4
  call void @llvm.dbg.declare(metadata !{%"class.std::_Rb_tree"** %1}, metadata !7458), !dbg !7459
  %2 = load %"class.std::_Rb_tree"** %1
  %3 = call %"class.std::allocator"* @_ZNKSt8_Rb_treeIPN10FruitClick5AppleES2_St9_IdentityIS2_ESt4lessIS2_ESaIS2_EE21_M_get_Node_allocatorEv(%"class.std::_Rb_tree"* %2), !dbg !7460
  call void @_ZNSaIPN10FruitClick5AppleEEC1ISt13_Rb_tree_nodeIS1_EEERKSaIT_E(%"class.std::allocator.0"* %agg.result, %"class.std::allocator"* %3) nounwind, !dbg !7460
  ret void, !dbg !7460
}

define linkonce_odr %"class.FruitClick::Apple"** @_ZSt11__addressofIPN10FruitClick5AppleEEPT_RS3_(%"class.FruitClick::Apple"** %__r) nounwind inlinehint {
  %1 = alloca %"class.FruitClick::Apple"**, align 4
  store %"class.FruitClick::Apple"** %__r, %"class.FruitClick::Apple"*** %1, align 4
  call void @llvm.dbg.declare(metadata !{%"class.FruitClick::Apple"*** %1}, metadata !7462), !dbg !7463
  %2 = load %"class.FruitClick::Apple"*** %1, !dbg !7464
  %3 = bitcast %"class.FruitClick::Apple"** %2 to i8*, !dbg !7464
  %4 = bitcast i8* %3 to %"class.FruitClick::Apple"**, !dbg !7464
  ret %"class.FruitClick::Apple"** %4, !dbg !7464
}

define linkonce_odr void @_ZNSaIPN10FruitClick5AppleEED1Ev(%"class.std::allocator.0"* %this) unnamed_addr nounwind align 2 {
  %1 = alloca %"class.std::allocator.0"*, align 4
  store %"class.std::allocator.0"* %this, %"class.std::allocator.0"** %1, align 4
  call void @llvm.dbg.declare(metadata !{%"class.std::allocator.0"** %1}, metadata !7466), !dbg !7467
  %2 = load %"class.std::allocator.0"** %1
  call void @_ZNSaIPN10FruitClick5AppleEED2Ev(%"class.std::allocator.0"* %2) nounwind, !dbg !7468
  ret void, !dbg !7469
}

define linkonce_odr void @_ZNSt8_Rb_treeIPN10FruitClick5AppleES2_St9_IdentityIS2_ESt4lessIS2_ESaIS2_EE11_M_put_nodeEPSt13_Rb_tree_nodeIS2_E(%"class.std::_Rb_tree"* %this, %"struct.std::_Rb_tree_node"* %__p) align 2 {
  %1 = alloca %"class.std::_Rb_tree"*, align 4
  %2 = alloca %"struct.std::_Rb_tree_node"*, align 4
  store %"class.std::_Rb_tree"* %this, %"class.std::_Rb_tree"** %1, align 4
  call void @llvm.dbg.declare(metadata !{%"class.std::_Rb_tree"** %1}, metadata !7470), !dbg !7471
  store %"struct.std::_Rb_tree_node"* %__p, %"struct.std::_Rb_tree_node"** %2, align 4
  call void @llvm.dbg.declare(metadata !{%"struct.std::_Rb_tree_node"** %2}, metadata !7472), !dbg !7473
  %3 = load %"class.std::_Rb_tree"** %1
  %4 = getelementptr inbounds %"class.std::_Rb_tree"* %3, i32 0, i32 0, !dbg !7474
  %5 = bitcast %"struct.std::_Rb_tree<FruitClick::Apple *, FruitClick::Apple *, std::_Identity<FruitClick::Apple *>, std::less<FruitClick::Apple *>, std::allocator<FruitClick::Apple *> >::_Rb_tree_impl"* %4 to %"class.std::allocator"*, !dbg !7474
  %6 = bitcast %"class.std::allocator"* %5 to %"class.__gnu_cxx::new_allocator"*, !dbg !7474
  %7 = load %"struct.std::_Rb_tree_node"** %2, align 4, !dbg !7474
  call void @_ZN9__gnu_cxx13new_allocatorISt13_Rb_tree_nodeIPN10FruitClick5AppleEEE10deallocateEPS5_j(%"class.__gnu_cxx::new_allocator"* %6, %"struct.std::_Rb_tree_node"* %7, i32 1), !dbg !7474
  ret void, !dbg !7476
}

define linkonce_odr void @_ZN9__gnu_cxx13new_allocatorISt13_Rb_tree_nodeIPN10FruitClick5AppleEEE10deallocateEPS5_j(%"class.__gnu_cxx::new_allocator"* %this, %"struct.std::_Rb_tree_node"* %__p, i32) nounwind align 2 {
  %2 = alloca %"class.__gnu_cxx::new_allocator"*, align 4
  %3 = alloca %"struct.std::_Rb_tree_node"*, align 4
  %4 = alloca i32, align 4
  store %"class.__gnu_cxx::new_allocator"* %this, %"class.__gnu_cxx::new_allocator"** %2, align 4
  call void @llvm.dbg.declare(metadata !{%"class.__gnu_cxx::new_allocator"** %2}, metadata !7477), !dbg !7478
  store %"struct.std::_Rb_tree_node"* %__p, %"struct.std::_Rb_tree_node"** %3, align 4
  call void @llvm.dbg.declare(metadata !{%"struct.std::_Rb_tree_node"** %3}, metadata !7479), !dbg !7480
  store i32 %0, i32* %4, align 4
  %5 = load %"class.__gnu_cxx::new_allocator"** %2
  %6 = load %"struct.std::_Rb_tree_node"** %3, align 4, !dbg !7481
  %7 = bitcast %"struct.std::_Rb_tree_node"* %6 to i8*, !dbg !7481
  call void @_ZdlPv(i8* %7) nounwind, !dbg !7481
  ret void, !dbg !7483
}

define linkonce_odr void @_ZNSaIPN10FruitClick5AppleEED2Ev(%"class.std::allocator.0"* %this) unnamed_addr nounwind align 2 {
  %1 = alloca %"class.std::allocator.0"*, align 4
  store %"class.std::allocator.0"* %this, %"class.std::allocator.0"** %1, align 4
  call void @llvm.dbg.declare(metadata !{%"class.std::allocator.0"** %1}, metadata !7484), !dbg !7485
  %2 = load %"class.std::allocator.0"** %1
  %3 = bitcast %"class.std::allocator.0"* %2 to %"class.__gnu_cxx::new_allocator.1"*, !dbg !7486
  call void @_ZN9__gnu_cxx13new_allocatorIPN10FruitClick5AppleEED2Ev(%"class.__gnu_cxx::new_allocator.1"* %3) nounwind, !dbg !7486
  ret void, !dbg !7486
}

define linkonce_odr void @_ZN9__gnu_cxx13new_allocatorIPN10FruitClick5AppleEED2Ev(%"class.__gnu_cxx::new_allocator.1"* %this) unnamed_addr nounwind align 2 {
  %1 = alloca %"class.__gnu_cxx::new_allocator.1"*, align 4
  store %"class.__gnu_cxx::new_allocator.1"* %this, %"class.__gnu_cxx::new_allocator.1"** %1, align 4
  call void @llvm.dbg.declare(metadata !{%"class.__gnu_cxx::new_allocator.1"** %1}, metadata !7488), !dbg !7489
  %2 = load %"class.__gnu_cxx::new_allocator.1"** %1
  ret void, !dbg !7490
}

define linkonce_odr void @_ZNSaIPN10FruitClick5AppleEEC1ISt13_Rb_tree_nodeIS1_EEERKSaIT_E(%"class.std::allocator.0"* %this, %"class.std::allocator"*) unnamed_addr nounwind align 2 {
  %2 = alloca %"class.std::allocator.0"*, align 4
  %3 = alloca %"class.std::allocator"*, align 4
  store %"class.std::allocator.0"* %this, %"class.std::allocator.0"** %2, align 4
  call void @llvm.dbg.declare(metadata !{%"class.std::allocator.0"** %2}, metadata !7492), !dbg !7493
  store %"class.std::allocator"* %0, %"class.std::allocator"** %3, align 4
  %4 = load %"class.std::allocator.0"** %2
  %5 = load %"class.std::allocator"** %3, !dbg !7494
  call void @_ZNSaIPN10FruitClick5AppleEEC2ISt13_Rb_tree_nodeIS1_EEERKSaIT_E(%"class.std::allocator.0"* %4, %"class.std::allocator"* %5) nounwind, !dbg !7494
  ret void, !dbg !7494
}

define linkonce_odr %"class.std::allocator"* @_ZNKSt8_Rb_treeIPN10FruitClick5AppleES2_St9_IdentityIS2_ESt4lessIS2_ESaIS2_EE21_M_get_Node_allocatorEv(%"class.std::_Rb_tree"* %this) nounwind align 2 {
  %1 = alloca %"class.std::_Rb_tree"*, align 4
  store %"class.std::_Rb_tree"* %this, %"class.std::_Rb_tree"** %1, align 4
  call void @llvm.dbg.declare(metadata !{%"class.std::_Rb_tree"** %1}, metadata !7495), !dbg !7496
  %2 = load %"class.std::_Rb_tree"** %1
  %3 = getelementptr inbounds %"class.std::_Rb_tree"* %2, i32 0, i32 0, !dbg !7497
  %4 = bitcast %"struct.std::_Rb_tree<FruitClick::Apple *, FruitClick::Apple *, std::_Identity<FruitClick::Apple *>, std::less<FruitClick::Apple *>, std::allocator<FruitClick::Apple *> >::_Rb_tree_impl"* %3 to %"class.std::allocator"*, !dbg !7497
  ret %"class.std::allocator"* %4, !dbg !7497
}

define linkonce_odr void @_ZNSaIPN10FruitClick5AppleEEC2ISt13_Rb_tree_nodeIS1_EEERKSaIT_E(%"class.std::allocator.0"* %this, %"class.std::allocator"*) unnamed_addr nounwind align 2 {
  %2 = alloca %"class.std::allocator.0"*, align 4
  %3 = alloca %"class.std::allocator"*, align 4
  store %"class.std::allocator.0"* %this, %"class.std::allocator.0"** %2, align 4
  call void @llvm.dbg.declare(metadata !{%"class.std::allocator.0"** %2}, metadata !7499), !dbg !7500
  store %"class.std::allocator"* %0, %"class.std::allocator"** %3, align 4
  %4 = load %"class.std::allocator.0"** %2
  %5 = bitcast %"class.std::allocator.0"* %4 to %"class.__gnu_cxx::new_allocator.1"*, !dbg !7501
  call void @_ZN9__gnu_cxx13new_allocatorIPN10FruitClick5AppleEEC2Ev(%"class.__gnu_cxx::new_allocator.1"* %5) nounwind, !dbg !7501
  ret void, !dbg !7502
}

define linkonce_odr void @_ZN9__gnu_cxx13new_allocatorIPN10FruitClick5AppleEEC2Ev(%"class.__gnu_cxx::new_allocator.1"* %this) unnamed_addr nounwind align 2 {
  %1 = alloca %"class.__gnu_cxx::new_allocator.1"*, align 4
  store %"class.__gnu_cxx::new_allocator.1"* %this, %"class.__gnu_cxx::new_allocator.1"** %1, align 4
  call void @llvm.dbg.declare(metadata !{%"class.__gnu_cxx::new_allocator.1"** %1}, metadata !7504), !dbg !7505
  %2 = load %"class.__gnu_cxx::new_allocator.1"** %1
  ret void, !dbg !7506
}

define linkonce_odr void @_ZNSt8_Rb_treeIPN10FruitClick5AppleES2_St9_IdentityIS2_ESt4lessIS2_ESaIS2_EE8_M_eraseEPSt13_Rb_tree_nodeIS2_E(%"class.std::_Rb_tree"* %this, %"struct.std::_Rb_tree_node"* %__x) align 2 {
  %1 = alloca %"class.std::_Rb_tree"*, align 4
  %2 = alloca %"struct.std::_Rb_tree_node"*, align 4
  %__y = alloca %"struct.std::_Rb_tree_node"*, align 4
  store %"class.std::_Rb_tree"* %this, %"class.std::_Rb_tree"** %1, align 4
  call void @llvm.dbg.declare(metadata !{%"class.std::_Rb_tree"** %1}, metadata !7508), !dbg !7509
  store %"struct.std::_Rb_tree_node"* %__x, %"struct.std::_Rb_tree_node"** %2, align 4
  call void @llvm.dbg.declare(metadata !{%"struct.std::_Rb_tree_node"** %2}, metadata !7510), !dbg !7511
  %3 = load %"class.std::_Rb_tree"** %1
  br label %4, !dbg !7512

; <label>:4                                       ; preds = %7, %0
  %5 = load %"struct.std::_Rb_tree_node"** %2, align 4, !dbg !7512
  %6 = icmp ne %"struct.std::_Rb_tree_node"* %5, null, !dbg !7512
  br i1 %6, label %7, label %16, !dbg !7512

; <label>:7                                       ; preds = %4
  %8 = load %"struct.std::_Rb_tree_node"** %2, align 4, !dbg !7514
  %9 = bitcast %"struct.std::_Rb_tree_node"* %8 to %"struct.std::_Rb_tree_node_base"*, !dbg !7514
  %10 = call %"struct.std::_Rb_tree_node"* @_ZNSt8_Rb_treeIPN10FruitClick5AppleES2_St9_IdentityIS2_ESt4lessIS2_ESaIS2_EE8_S_rightEPSt18_Rb_tree_node_base(%"struct.std::_Rb_tree_node_base"* %9), !dbg !7514
  call void @_ZNSt8_Rb_treeIPN10FruitClick5AppleES2_St9_IdentityIS2_ESt4lessIS2_ESaIS2_EE8_M_eraseEPSt13_Rb_tree_nodeIS2_E(%"class.std::_Rb_tree"* %3, %"struct.std::_Rb_tree_node"* %10), !dbg !7514
  call void @llvm.dbg.declare(metadata !{%"struct.std::_Rb_tree_node"** %__y}, metadata !7516), !dbg !7517
  %11 = load %"struct.std::_Rb_tree_node"** %2, align 4, !dbg !7518
  %12 = bitcast %"struct.std::_Rb_tree_node"* %11 to %"struct.std::_Rb_tree_node_base"*, !dbg !7518
  %13 = call %"struct.std::_Rb_tree_node"* @_ZNSt8_Rb_treeIPN10FruitClick5AppleES2_St9_IdentityIS2_ESt4lessIS2_ESaIS2_EE7_S_leftEPSt18_Rb_tree_node_base(%"struct.std::_Rb_tree_node_base"* %12), !dbg !7518
  store %"struct.std::_Rb_tree_node"* %13, %"struct.std::_Rb_tree_node"** %__y, align 4, !dbg !7518
  %14 = load %"struct.std::_Rb_tree_node"** %2, align 4, !dbg !7519
  call void @_ZNSt8_Rb_treeIPN10FruitClick5AppleES2_St9_IdentityIS2_ESt4lessIS2_ESaIS2_EE15_M_destroy_nodeEPSt13_Rb_tree_nodeIS2_E(%"class.std::_Rb_tree"* %3, %"struct.std::_Rb_tree_node"* %14), !dbg !7519
  %15 = load %"struct.std::_Rb_tree_node"** %__y, align 4, !dbg !7520
  store %"struct.std::_Rb_tree_node"* %15, %"struct.std::_Rb_tree_node"** %2, align 4, !dbg !7520
  br label %4, !dbg !7521

; <label>:16                                      ; preds = %4
  ret void, !dbg !7522
}

define linkonce_odr %"struct.std::_Rb_tree_node"* @_ZNSt8_Rb_treeIPN10FruitClick5AppleES2_St9_IdentityIS2_ESt4lessIS2_ESaIS2_EE8_M_beginEv(%"class.std::_Rb_tree"* %this) nounwind align 2 {
  %1 = alloca %"class.std::_Rb_tree"*, align 4
  store %"class.std::_Rb_tree"* %this, %"class.std::_Rb_tree"** %1, align 4
  call void @llvm.dbg.declare(metadata !{%"class.std::_Rb_tree"** %1}, metadata !7523), !dbg !7524
  %2 = load %"class.std::_Rb_tree"** %1
  %3 = getelementptr inbounds %"class.std::_Rb_tree"* %2, i32 0, i32 0, !dbg !7525
  %4 = getelementptr inbounds %"struct.std::_Rb_tree<FruitClick::Apple *, FruitClick::Apple *, std::_Identity<FruitClick::Apple *>, std::less<FruitClick::Apple *>, std::allocator<FruitClick::Apple *> >::_Rb_tree_impl"* %3, i32 0, i32 1, !dbg !7525
  %5 = getelementptr inbounds %"struct.std::_Rb_tree_node_base"* %4, i32 0, i32 1, !dbg !7525
  %6 = load %"struct.std::_Rb_tree_node_base"** %5, align 4, !dbg !7525
  %7 = bitcast %"struct.std::_Rb_tree_node_base"* %6 to %"struct.std::_Rb_tree_node"*, !dbg !7525
  ret %"struct.std::_Rb_tree_node"* %7, !dbg !7525
}

define linkonce_odr %"struct.std::_Rb_tree_node"* @_ZNSt8_Rb_treeIPN10FruitClick5AppleES2_St9_IdentityIS2_ESt4lessIS2_ESaIS2_EE6_M_endEv(%"class.std::_Rb_tree"* %this) nounwind align 2 {
  %1 = alloca %"class.std::_Rb_tree"*, align 4
  store %"class.std::_Rb_tree"* %this, %"class.std::_Rb_tree"** %1, align 4
  call void @llvm.dbg.declare(metadata !{%"class.std::_Rb_tree"** %1}, metadata !7527), !dbg !7528
  %2 = load %"class.std::_Rb_tree"** %1
  %3 = getelementptr inbounds %"class.std::_Rb_tree"* %2, i32 0, i32 0, !dbg !7529
  %4 = getelementptr inbounds %"struct.std::_Rb_tree<FruitClick::Apple *, FruitClick::Apple *, std::_Identity<FruitClick::Apple *>, std::less<FruitClick::Apple *>, std::allocator<FruitClick::Apple *> >::_Rb_tree_impl"* %3, i32 0, i32 1, !dbg !7529
  %5 = bitcast %"struct.std::_Rb_tree_node_base"* %4 to %"struct.std::_Rb_tree_node"*, !dbg !7529
  ret %"struct.std::_Rb_tree_node"* %5, !dbg !7529
}

define linkonce_odr %"struct.std::_Rb_tree_node_base"** @_ZNSt8_Rb_treeIPN10FruitClick5AppleES2_St9_IdentityIS2_ESt4lessIS2_ESaIS2_EE11_M_leftmostEv(%"class.std::_Rb_tree"* %this) nounwind align 2 {
  %1 = alloca %"class.std::_Rb_tree"*, align 4
  store %"class.std::_Rb_tree"* %this, %"class.std::_Rb_tree"** %1, align 4
  call void @llvm.dbg.declare(metadata !{%"class.std::_Rb_tree"** %1}, metadata !7531), !dbg !7532
  %2 = load %"class.std::_Rb_tree"** %1
  %3 = getelementptr inbounds %"class.std::_Rb_tree"* %2, i32 0, i32 0, !dbg !7533
  %4 = getelementptr inbounds %"struct.std::_Rb_tree<FruitClick::Apple *, FruitClick::Apple *, std::_Identity<FruitClick::Apple *>, std::less<FruitClick::Apple *>, std::allocator<FruitClick::Apple *> >::_Rb_tree_impl"* %3, i32 0, i32 1, !dbg !7533
  %5 = getelementptr inbounds %"struct.std::_Rb_tree_node_base"* %4, i32 0, i32 2, !dbg !7533
  ret %"struct.std::_Rb_tree_node_base"** %5, !dbg !7533
}

define linkonce_odr %"struct.std::_Rb_tree_node_base"** @_ZNSt8_Rb_treeIPN10FruitClick5AppleES2_St9_IdentityIS2_ESt4lessIS2_ESaIS2_EE7_M_rootEv(%"class.std::_Rb_tree"* %this) nounwind align 2 {
  %1 = alloca %"class.std::_Rb_tree"*, align 4
  store %"class.std::_Rb_tree"* %this, %"class.std::_Rb_tree"** %1, align 4
  call void @llvm.dbg.declare(metadata !{%"class.std::_Rb_tree"** %1}, metadata !7535), !dbg !7536
  %2 = load %"class.std::_Rb_tree"** %1
  %3 = getelementptr inbounds %"class.std::_Rb_tree"* %2, i32 0, i32 0, !dbg !7537
  %4 = getelementptr inbounds %"struct.std::_Rb_tree<FruitClick::Apple *, FruitClick::Apple *, std::_Identity<FruitClick::Apple *>, std::less<FruitClick::Apple *>, std::allocator<FruitClick::Apple *> >::_Rb_tree_impl"* %3, i32 0, i32 1, !dbg !7537
  %5 = getelementptr inbounds %"struct.std::_Rb_tree_node_base"* %4, i32 0, i32 1, !dbg !7537
  ret %"struct.std::_Rb_tree_node_base"** %5, !dbg !7537
}

define linkonce_odr %"struct.std::_Rb_tree_node_base"** @_ZNSt8_Rb_treeIPN10FruitClick5AppleES2_St9_IdentityIS2_ESt4lessIS2_ESaIS2_EE12_M_rightmostEv(%"class.std::_Rb_tree"* %this) nounwind align 2 {
  %1 = alloca %"class.std::_Rb_tree"*, align 4
  store %"class.std::_Rb_tree"* %this, %"class.std::_Rb_tree"** %1, align 4
  call void @llvm.dbg.declare(metadata !{%"class.std::_Rb_tree"** %1}, metadata !7539), !dbg !7540
  %2 = load %"class.std::_Rb_tree"** %1
  %3 = getelementptr inbounds %"class.std::_Rb_tree"* %2, i32 0, i32 0, !dbg !7541
  %4 = getelementptr inbounds %"struct.std::_Rb_tree<FruitClick::Apple *, FruitClick::Apple *, std::_Identity<FruitClick::Apple *>, std::less<FruitClick::Apple *>, std::allocator<FruitClick::Apple *> >::_Rb_tree_impl"* %3, i32 0, i32 1, !dbg !7541
  %5 = getelementptr inbounds %"struct.std::_Rb_tree_node_base"* %4, i32 0, i32 3, !dbg !7541
  ret %"struct.std::_Rb_tree_node_base"** %5, !dbg !7541
}

define linkonce_odr %"struct.std::_Rb_tree_node"* @_ZNSt8_Rb_treeIPN10FruitClick5AppleES2_St9_IdentityIS2_ESt4lessIS2_ESaIS2_EE8_S_rightEPSt18_Rb_tree_node_base(%"struct.std::_Rb_tree_node_base"* %__x) nounwind align 2 {
  %1 = alloca %"struct.std::_Rb_tree_node_base"*, align 4
  store %"struct.std::_Rb_tree_node_base"* %__x, %"struct.std::_Rb_tree_node_base"** %1, align 4
  call void @llvm.dbg.declare(metadata !{%"struct.std::_Rb_tree_node_base"** %1}, metadata !7543), !dbg !7544
  %2 = load %"struct.std::_Rb_tree_node_base"** %1, align 4, !dbg !7545
  %3 = getelementptr inbounds %"struct.std::_Rb_tree_node_base"* %2, i32 0, i32 3, !dbg !7545
  %4 = load %"struct.std::_Rb_tree_node_base"** %3, align 4, !dbg !7545
  %5 = bitcast %"struct.std::_Rb_tree_node_base"* %4 to %"struct.std::_Rb_tree_node"*, !dbg !7545
  ret %"struct.std::_Rb_tree_node"* %5, !dbg !7545
}

define linkonce_odr %"struct.std::_Rb_tree_node"* @_ZNSt8_Rb_treeIPN10FruitClick5AppleES2_St9_IdentityIS2_ESt4lessIS2_ESaIS2_EE7_S_leftEPSt18_Rb_tree_node_base(%"struct.std::_Rb_tree_node_base"* %__x) nounwind align 2 {
  %1 = alloca %"struct.std::_Rb_tree_node_base"*, align 4
  store %"struct.std::_Rb_tree_node_base"* %__x, %"struct.std::_Rb_tree_node_base"** %1, align 4
  call void @llvm.dbg.declare(metadata !{%"struct.std::_Rb_tree_node_base"** %1}, metadata !7547), !dbg !7548
  %2 = load %"struct.std::_Rb_tree_node_base"** %1, align 4, !dbg !7549
  %3 = getelementptr inbounds %"struct.std::_Rb_tree_node_base"* %2, i32 0, i32 2, !dbg !7549
  %4 = load %"struct.std::_Rb_tree_node_base"** %3, align 4, !dbg !7549
  %5 = bitcast %"struct.std::_Rb_tree_node_base"* %4 to %"struct.std::_Rb_tree_node"*, !dbg !7549
  ret %"struct.std::_Rb_tree_node"* %5, !dbg !7549
}

define linkonce_odr void @_ZNSt17_Rb_tree_iteratorIPN10FruitClick5AppleEEC1EPSt13_Rb_tree_nodeIS2_E(%"struct.std::_Rb_tree_iterator"* %this, %"struct.std::_Rb_tree_node"* %__x) unnamed_addr align 2 {
  %1 = alloca %"struct.std::_Rb_tree_iterator"*, align 4
  %2 = alloca %"struct.std::_Rb_tree_node"*, align 4
  store %"struct.std::_Rb_tree_iterator"* %this, %"struct.std::_Rb_tree_iterator"** %1, align 4
  call void @llvm.dbg.declare(metadata !{%"struct.std::_Rb_tree_iterator"** %1}, metadata !7551), !dbg !7552
  store %"struct.std::_Rb_tree_node"* %__x, %"struct.std::_Rb_tree_node"** %2, align 4
  call void @llvm.dbg.declare(metadata !{%"struct.std::_Rb_tree_node"** %2}, metadata !7553), !dbg !7554
  %3 = load %"struct.std::_Rb_tree_iterator"** %1
  %4 = load %"struct.std::_Rb_tree_node"** %2, align 4, !dbg !7555
  call void @_ZNSt17_Rb_tree_iteratorIPN10FruitClick5AppleEEC2EPSt13_Rb_tree_nodeIS2_E(%"struct.std::_Rb_tree_iterator"* %3, %"struct.std::_Rb_tree_node"* %4), !dbg !7555
  ret void, !dbg !7555
}

define linkonce_odr void @_ZNSt17_Rb_tree_iteratorIPN10FruitClick5AppleEEC2EPSt13_Rb_tree_nodeIS2_E(%"struct.std::_Rb_tree_iterator"* %this, %"struct.std::_Rb_tree_node"* %__x) unnamed_addr nounwind align 2 {
  %1 = alloca %"struct.std::_Rb_tree_iterator"*, align 4
  %2 = alloca %"struct.std::_Rb_tree_node"*, align 4
  store %"struct.std::_Rb_tree_iterator"* %this, %"struct.std::_Rb_tree_iterator"** %1, align 4
  call void @llvm.dbg.declare(metadata !{%"struct.std::_Rb_tree_iterator"** %1}, metadata !7556), !dbg !7557
  store %"struct.std::_Rb_tree_node"* %__x, %"struct.std::_Rb_tree_node"** %2, align 4
  call void @llvm.dbg.declare(metadata !{%"struct.std::_Rb_tree_node"** %2}, metadata !7558), !dbg !7559
  %3 = load %"struct.std::_Rb_tree_iterator"** %1
  %4 = getelementptr inbounds %"struct.std::_Rb_tree_iterator"* %3, i32 0, i32 0, !dbg !7560
  %5 = load %"struct.std::_Rb_tree_node"** %2, align 4, !dbg !7560
  %6 = bitcast %"struct.std::_Rb_tree_node"* %5 to %"struct.std::_Rb_tree_node_base"*, !dbg !7560
  store %"struct.std::_Rb_tree_node_base"* %6, %"struct.std::_Rb_tree_node_base"** %4, align 4, !dbg !7560
  ret void, !dbg !7561
}

define linkonce_odr zeroext i1 @_ZNKSt4lessIPN10FruitClick5AppleEEclERKS2_S5_(%"struct.std::less"* %this, %"class.FruitClick::Apple"** %__x, %"class.FruitClick::Apple"** %__y) nounwind align 2 {
  %1 = alloca %"struct.std::less"*, align 4
  %2 = alloca %"class.FruitClick::Apple"**, align 4
  %3 = alloca %"class.FruitClick::Apple"**, align 4
  store %"struct.std::less"* %this, %"struct.std::less"** %1, align 4
  call void @llvm.dbg.declare(metadata !{%"struct.std::less"** %1}, metadata !7563), !dbg !7564
  store %"class.FruitClick::Apple"** %__x, %"class.FruitClick::Apple"*** %2, align 4
  call void @llvm.dbg.declare(metadata !{%"class.FruitClick::Apple"*** %2}, metadata !7565), !dbg !7566
  store %"class.FruitClick::Apple"** %__y, %"class.FruitClick::Apple"*** %3, align 4
  call void @llvm.dbg.declare(metadata !{%"class.FruitClick::Apple"*** %3}, metadata !7567), !dbg !7568
  %4 = load %"struct.std::less"** %1
  %5 = load %"class.FruitClick::Apple"*** %2, !dbg !7569
  %6 = load %"class.FruitClick::Apple"** %5, align 4, !dbg !7569
  %7 = load %"class.FruitClick::Apple"*** %3, !dbg !7569
  %8 = load %"class.FruitClick::Apple"** %7, align 4, !dbg !7569
  %9 = icmp ult %"class.FruitClick::Apple"* %6, %8, !dbg !7569
  ret i1 %9, !dbg !7569
}

define linkonce_odr %"class.FruitClick::Apple"** @_ZNSt8_Rb_treeIPN10FruitClick5AppleES2_St9_IdentityIS2_ESt4lessIS2_ESaIS2_EE6_S_keyEPKSt13_Rb_tree_nodeIS2_E(%"struct.std::_Rb_tree_node"* %__x) align 2 {
  %1 = alloca %"struct.std::_Rb_tree_node"*, align 4
  %2 = alloca %"struct.std::_Identity", align 1
  store %"struct.std::_Rb_tree_node"* %__x, %"struct.std::_Rb_tree_node"** %1, align 4
  call void @llvm.dbg.declare(metadata !{%"struct.std::_Rb_tree_node"** %1}, metadata !7571), !dbg !7572
  %3 = load %"struct.std::_Rb_tree_node"** %1, align 4, !dbg !7573
  %4 = call %"class.FruitClick::Apple"** @_ZNSt8_Rb_treeIPN10FruitClick5AppleES2_St9_IdentityIS2_ESt4lessIS2_ESaIS2_EE8_S_valueEPKSt13_Rb_tree_nodeIS2_E(%"struct.std::_Rb_tree_node"* %3), !dbg !7573
  %5 = call %"class.FruitClick::Apple"** @_ZNKSt9_IdentityIPN10FruitClick5AppleEEclERKS2_(%"struct.std::_Identity"* %2, %"class.FruitClick::Apple"** %4), !dbg !7573
  ret %"class.FruitClick::Apple"** %5, !dbg !7573
}

define linkonce_odr void @_ZNSt4pairISt17_Rb_tree_iteratorIPN10FruitClick5AppleEES4_EC1ERKS4_S7_(%"struct.std::pair.6"* %this, %"struct.std::_Rb_tree_iterator"* %__a, %"struct.std::_Rb_tree_iterator"* %__b) unnamed_addr align 2 {
  %1 = alloca %"struct.std::pair.6"*, align 4
  %2 = alloca %"struct.std::_Rb_tree_iterator"*, align 4
  %3 = alloca %"struct.std::_Rb_tree_iterator"*, align 4
  store %"struct.std::pair.6"* %this, %"struct.std::pair.6"** %1, align 4
  call void @llvm.dbg.declare(metadata !{%"struct.std::pair.6"** %1}, metadata !7575), !dbg !7576
  store %"struct.std::_Rb_tree_iterator"* %__a, %"struct.std::_Rb_tree_iterator"** %2, align 4
  call void @llvm.dbg.declare(metadata !{%"struct.std::_Rb_tree_iterator"** %2}, metadata !7577), !dbg !7578
  store %"struct.std::_Rb_tree_iterator"* %__b, %"struct.std::_Rb_tree_iterator"** %3, align 4
  call void @llvm.dbg.declare(metadata !{%"struct.std::_Rb_tree_iterator"** %3}, metadata !7579), !dbg !7580
  %4 = load %"struct.std::pair.6"** %1
  %5 = load %"struct.std::_Rb_tree_iterator"** %2, !dbg !7581
  %6 = load %"struct.std::_Rb_tree_iterator"** %3, !dbg !7581
  call void @_ZNSt4pairISt17_Rb_tree_iteratorIPN10FruitClick5AppleEES4_EC2ERKS4_S7_(%"struct.std::pair.6"* %4, %"struct.std::_Rb_tree_iterator"* %5, %"struct.std::_Rb_tree_iterator"* %6), !dbg !7581
  ret void, !dbg !7581
}

define linkonce_odr void @_ZNSt8_Rb_treeIPN10FruitClick5AppleES2_St9_IdentityIS2_ESt4lessIS2_ESaIS2_EE14_M_lower_boundEPSt13_Rb_tree_nodeIS2_ESB_RKS2_(%"struct.std::_Rb_tree_iterator"* noalias sret %agg.result, %"class.std::_Rb_tree"* %this, %"struct.std::_Rb_tree_node"* %__x, %"struct.std::_Rb_tree_node"* %__y, %"class.FruitClick::Apple"** %__k) align 2 {
  %1 = alloca %"class.std::_Rb_tree"*, align 4
  %2 = alloca %"struct.std::_Rb_tree_node"*, align 4
  %3 = alloca %"struct.std::_Rb_tree_node"*, align 4
  %4 = alloca %"class.FruitClick::Apple"**, align 4
  store %"class.std::_Rb_tree"* %this, %"class.std::_Rb_tree"** %1, align 4
  call void @llvm.dbg.declare(metadata !{%"class.std::_Rb_tree"** %1}, metadata !7582), !dbg !7583
  store %"struct.std::_Rb_tree_node"* %__x, %"struct.std::_Rb_tree_node"** %2, align 4
  call void @llvm.dbg.declare(metadata !{%"struct.std::_Rb_tree_node"** %2}, metadata !7584), !dbg !7585
  store %"struct.std::_Rb_tree_node"* %__y, %"struct.std::_Rb_tree_node"** %3, align 4
  call void @llvm.dbg.declare(metadata !{%"struct.std::_Rb_tree_node"** %3}, metadata !7586), !dbg !7587
  store %"class.FruitClick::Apple"** %__k, %"class.FruitClick::Apple"*** %4, align 4
  call void @llvm.dbg.declare(metadata !{%"class.FruitClick::Apple"*** %4}, metadata !7588), !dbg !7589
  %5 = load %"class.std::_Rb_tree"** %1
  br label %6, !dbg !7590

; <label>:6                                       ; preds = %25, %0
  %7 = load %"struct.std::_Rb_tree_node"** %2, align 4, !dbg !7590
  %8 = icmp ne %"struct.std::_Rb_tree_node"* %7, null, !dbg !7590
  br i1 %8, label %9, label %26, !dbg !7590

; <label>:9                                       ; preds = %6
  %10 = getelementptr inbounds %"class.std::_Rb_tree"* %5, i32 0, i32 0, !dbg !7592
  %11 = getelementptr inbounds %"struct.std::_Rb_tree<FruitClick::Apple *, FruitClick::Apple *, std::_Identity<FruitClick::Apple *>, std::less<FruitClick::Apple *>, std::allocator<FruitClick::Apple *> >::_Rb_tree_impl"* %10, i32 0, i32 0, !dbg !7592
  %12 = load %"struct.std::_Rb_tree_node"** %2, align 4, !dbg !7593
  %13 = call %"class.FruitClick::Apple"** @_ZNSt8_Rb_treeIPN10FruitClick5AppleES2_St9_IdentityIS2_ESt4lessIS2_ESaIS2_EE6_S_keyEPKSt13_Rb_tree_nodeIS2_E(%"struct.std::_Rb_tree_node"* %12), !dbg !7593
  %14 = load %"class.FruitClick::Apple"*** %4, !dbg !7593
  %15 = call zeroext i1 @_ZNKSt4lessIPN10FruitClick5AppleEEclERKS2_S5_(%"struct.std::less"* %11, %"class.FruitClick::Apple"** %13, %"class.FruitClick::Apple"** %14), !dbg !7593
  br i1 %15, label %21, label %16, !dbg !7593

; <label>:16                                      ; preds = %9
  %17 = load %"struct.std::_Rb_tree_node"** %2, align 4, !dbg !7594
  store %"struct.std::_Rb_tree_node"* %17, %"struct.std::_Rb_tree_node"** %3, align 4, !dbg !7594
  %18 = load %"struct.std::_Rb_tree_node"** %2, align 4, !dbg !7595
  %19 = bitcast %"struct.std::_Rb_tree_node"* %18 to %"struct.std::_Rb_tree_node_base"*, !dbg !7595
  %20 = call %"struct.std::_Rb_tree_node"* @_ZNSt8_Rb_treeIPN10FruitClick5AppleES2_St9_IdentityIS2_ESt4lessIS2_ESaIS2_EE7_S_leftEPSt18_Rb_tree_node_base(%"struct.std::_Rb_tree_node_base"* %19), !dbg !7595
  store %"struct.std::_Rb_tree_node"* %20, %"struct.std::_Rb_tree_node"** %2, align 4, !dbg !7595
  br label %25, !dbg !7595

; <label>:21                                      ; preds = %9
  %22 = load %"struct.std::_Rb_tree_node"** %2, align 4, !dbg !7596
  %23 = bitcast %"struct.std::_Rb_tree_node"* %22 to %"struct.std::_Rb_tree_node_base"*, !dbg !7596
  %24 = call %"struct.std::_Rb_tree_node"* @_ZNSt8_Rb_treeIPN10FruitClick5AppleES2_St9_IdentityIS2_ESt4lessIS2_ESaIS2_EE8_S_rightEPSt18_Rb_tree_node_base(%"struct.std::_Rb_tree_node_base"* %23), !dbg !7596
  store %"struct.std::_Rb_tree_node"* %24, %"struct.std::_Rb_tree_node"** %2, align 4, !dbg !7596
  br label %25

; <label>:25                                      ; preds = %21, %16
  br label %6

; <label>:26                                      ; preds = %6
  %27 = load %"struct.std::_Rb_tree_node"** %3, align 4, !dbg !7597
  call void @_ZNSt17_Rb_tree_iteratorIPN10FruitClick5AppleEEC1EPSt13_Rb_tree_nodeIS2_E(%"struct.std::_Rb_tree_iterator"* %agg.result, %"struct.std::_Rb_tree_node"* %27), !dbg !7597
  ret void, !dbg !7597
}

define linkonce_odr void @_ZNSt8_Rb_treeIPN10FruitClick5AppleES2_St9_IdentityIS2_ESt4lessIS2_ESaIS2_EE14_M_upper_boundEPSt13_Rb_tree_nodeIS2_ESB_RKS2_(%"struct.std::_Rb_tree_iterator"* noalias sret %agg.result, %"class.std::_Rb_tree"* %this, %"struct.std::_Rb_tree_node"* %__x, %"struct.std::_Rb_tree_node"* %__y, %"class.FruitClick::Apple"** %__k) align 2 {
  %1 = alloca %"class.std::_Rb_tree"*, align 4
  %2 = alloca %"struct.std::_Rb_tree_node"*, align 4
  %3 = alloca %"struct.std::_Rb_tree_node"*, align 4
  %4 = alloca %"class.FruitClick::Apple"**, align 4
  store %"class.std::_Rb_tree"* %this, %"class.std::_Rb_tree"** %1, align 4
  call void @llvm.dbg.declare(metadata !{%"class.std::_Rb_tree"** %1}, metadata !7598), !dbg !7599
  store %"struct.std::_Rb_tree_node"* %__x, %"struct.std::_Rb_tree_node"** %2, align 4
  call void @llvm.dbg.declare(metadata !{%"struct.std::_Rb_tree_node"** %2}, metadata !7600), !dbg !7601
  store %"struct.std::_Rb_tree_node"* %__y, %"struct.std::_Rb_tree_node"** %3, align 4
  call void @llvm.dbg.declare(metadata !{%"struct.std::_Rb_tree_node"** %3}, metadata !7602), !dbg !7603
  store %"class.FruitClick::Apple"** %__k, %"class.FruitClick::Apple"*** %4, align 4
  call void @llvm.dbg.declare(metadata !{%"class.FruitClick::Apple"*** %4}, metadata !7604), !dbg !7605
  %5 = load %"class.std::_Rb_tree"** %1
  br label %6, !dbg !7606

; <label>:6                                       ; preds = %25, %0
  %7 = load %"struct.std::_Rb_tree_node"** %2, align 4, !dbg !7606
  %8 = icmp ne %"struct.std::_Rb_tree_node"* %7, null, !dbg !7606
  br i1 %8, label %9, label %26, !dbg !7606

; <label>:9                                       ; preds = %6
  %10 = getelementptr inbounds %"class.std::_Rb_tree"* %5, i32 0, i32 0, !dbg !7608
  %11 = getelementptr inbounds %"struct.std::_Rb_tree<FruitClick::Apple *, FruitClick::Apple *, std::_Identity<FruitClick::Apple *>, std::less<FruitClick::Apple *>, std::allocator<FruitClick::Apple *> >::_Rb_tree_impl"* %10, i32 0, i32 0, !dbg !7608
  %12 = load %"class.FruitClick::Apple"*** %4, !dbg !7608
  %13 = load %"struct.std::_Rb_tree_node"** %2, align 4, !dbg !7609
  %14 = call %"class.FruitClick::Apple"** @_ZNSt8_Rb_treeIPN10FruitClick5AppleES2_St9_IdentityIS2_ESt4lessIS2_ESaIS2_EE6_S_keyEPKSt13_Rb_tree_nodeIS2_E(%"struct.std::_Rb_tree_node"* %13), !dbg !7609
  %15 = call zeroext i1 @_ZNKSt4lessIPN10FruitClick5AppleEEclERKS2_S5_(%"struct.std::less"* %11, %"class.FruitClick::Apple"** %12, %"class.FruitClick::Apple"** %14), !dbg !7609
  br i1 %15, label %16, label %21, !dbg !7609

; <label>:16                                      ; preds = %9
  %17 = load %"struct.std::_Rb_tree_node"** %2, align 4, !dbg !7610
  store %"struct.std::_Rb_tree_node"* %17, %"struct.std::_Rb_tree_node"** %3, align 4, !dbg !7610
  %18 = load %"struct.std::_Rb_tree_node"** %2, align 4, !dbg !7611
  %19 = bitcast %"struct.std::_Rb_tree_node"* %18 to %"struct.std::_Rb_tree_node_base"*, !dbg !7611
  %20 = call %"struct.std::_Rb_tree_node"* @_ZNSt8_Rb_treeIPN10FruitClick5AppleES2_St9_IdentityIS2_ESt4lessIS2_ESaIS2_EE7_S_leftEPSt18_Rb_tree_node_base(%"struct.std::_Rb_tree_node_base"* %19), !dbg !7611
  store %"struct.std::_Rb_tree_node"* %20, %"struct.std::_Rb_tree_node"** %2, align 4, !dbg !7611
  br label %25, !dbg !7611

; <label>:21                                      ; preds = %9
  %22 = load %"struct.std::_Rb_tree_node"** %2, align 4, !dbg !7612
  %23 = bitcast %"struct.std::_Rb_tree_node"* %22 to %"struct.std::_Rb_tree_node_base"*, !dbg !7612
  %24 = call %"struct.std::_Rb_tree_node"* @_ZNSt8_Rb_treeIPN10FruitClick5AppleES2_St9_IdentityIS2_ESt4lessIS2_ESaIS2_EE8_S_rightEPSt18_Rb_tree_node_base(%"struct.std::_Rb_tree_node_base"* %23), !dbg !7612
  store %"struct.std::_Rb_tree_node"* %24, %"struct.std::_Rb_tree_node"** %2, align 4, !dbg !7612
  br label %25

; <label>:25                                      ; preds = %21, %16
  br label %6

; <label>:26                                      ; preds = %6
  %27 = load %"struct.std::_Rb_tree_node"** %3, align 4, !dbg !7613
