; ModuleID = 'nacl_platform.cpp'
target datalayout = "e-p:32:32:32-i1:8:8-i8:8:8-i16:16:16-i32:32:32-i64:32:64-f32:32:32-f64:32:64-v64:64:64-v128:128:128-a0:0:64-f80:32:32-n8:16:32-S128"
target triple = "i386-pc-linux-gnu"

%class.NaclPlatform = type { %"class.pp::Instance", %"class.FruitClick::Platform", %"class.FruitClick::Application" }
%"class.pp::Instance" = type { i32 (...)**, i32, %"class.std::map" }
%"class.std::map" = type { %"class.std::_Rb_tree" }
%"class.std::_Rb_tree" = type { %"struct.std::_Rb_tree<std::basic_string<char>, std::pair<const std::basic_string<char>, void *>, std::_Select1st<std::pair<const std::basic_string<char>, void *> >, std::less<std::basic_string<char> >, std::allocator<std::pair<const std::basic_string<char>, void *> > >::_Rb_tree_impl" }
%"struct.std::_Rb_tree<std::basic_string<char>, std::pair<const std::basic_string<char>, void *>, std::_Select1st<std::pair<const std::basic_string<char>, void *> >, std::less<std::basic_string<char> >, std::allocator<std::pair<const std::basic_string<char>, void *> > >::_Rb_tree_impl" = type { %"struct.std::less", %"struct.std::_Rb_tree_node_base", i32 }
%"struct.std::less" = type { i8 }
%"struct.std::_Rb_tree_node_base" = type { i32, %"struct.std::_Rb_tree_node_base"*, %"struct.std::_Rb_tree_node_base"*, %"struct.std::_Rb_tree_node_base"* }
%"class.FruitClick::Platform" = type { i32 (...)** }
%"class.FruitClick::Application" = type { %class.b2ContactListener, %class.b2QueryCallback, %class.b2World, i32, i32, %"class.std::set", %"class.std::vector", i32, i32, %"class.FruitClick::Grass", %"class.FruitClick::Bound", %"class.FruitClick::Bound" }
%class.b2ContactListener = type { i32 (...)** }
%class.b2QueryCallback = type { i32 (...)** }
%class.b2World = type { %class.b2BlockAllocator, %class.b2StackAllocator, i32, %class.b2ContactManager, %class.b2Body*, %class.b2Joint*, i32, i32, %struct.b2Vec2, i8, %class.b2DestructionListener*, %class.b2Draw*, float, i8, i8, i8, i8, %struct.b2Profile }
%class.b2BlockAllocator = type { %struct.b2Chunk*, i32, i32, [14 x %struct.b2Block*] }
%struct.b2Chunk = type opaque
%struct.b2Block = type opaque
%class.b2StackAllocator = type { [102400 x i8], i32, i32, i32, [32 x %struct.b2StackEntry], i32 }
%struct.b2StackEntry = type { i8*, i32, i8 }
%class.b2ContactManager = type { %class.b2BroadPhase, %class.b2Contact*, i32, %class.b2ContactFilter*, %class.b2ContactListener*, %class.b2BlockAllocator* }
%class.b2BroadPhase = type { %class.b2DynamicTree, i32, i32*, i32, i32, %struct.b2Pair*, i32, i32, i32 }
%class.b2DynamicTree = type { i32, %struct.b2TreeNode*, i32, i32, i32, i32, i32 }
%struct.b2TreeNode = type { %struct.b2AABB, i8*, %union.anon, i32, i32, i32 }
%struct.b2AABB = type { %struct.b2Vec2, %struct.b2Vec2 }
%struct.b2Vec2 = type { float, float }
%union.anon = type { i32 }
%struct.b2Pair = type { i32, i32, i32 }
%class.b2Contact = type { i32 (...)**, i32, %class.b2Contact*, %class.b2Contact*, %struct.b2ContactEdge, %struct.b2ContactEdge, %class.b2Fixture*, %class.b2Fixture*, i32, i32, %struct.b2Manifold, i32, float, float, float }
%struct.b2ContactEdge = type { %class.b2Body*, %class.b2Contact*, %struct.b2ContactEdge*, %struct.b2ContactEdge* }
%class.b2Body = type { i32, i16, i32, %struct.b2Transform, %struct.b2Sweep, %struct.b2Vec2, float, %struct.b2Vec2, float, %class.b2World*, %class.b2Body*, %class.b2Body*, %class.b2Fixture*, i32, %struct.b2JointEdge*, %struct.b2ContactEdge*, float, float, float, float, float, float, float, float, i8* }
%struct.b2Transform = type { %struct.b2Vec2, %struct.b2Rot }
%struct.b2Rot = type { float, float }
%struct.b2Sweep = type { %struct.b2Vec2, %struct.b2Vec2, %struct.b2Vec2, float, float, float }
%class.b2Fixture = type { float, %class.b2Fixture*, %class.b2Body*, %class.b2Shape*, float, float, %struct.b2FixtureProxy*, i32, %struct.b2Filter, i8, i8* }
%class.b2Shape = type { i32 (...)**, i32, float }
%struct.b2FixtureProxy = type { %struct.b2AABB, %class.b2Fixture*, i32, i32 }
%struct.b2Filter = type { i16, i16, i16 }
%struct.b2JointEdge = type { %class.b2Body*, %class.b2Joint*, %struct.b2JointEdge*, %struct.b2JointEdge* }
%class.b2Joint = type { i32 (...)**, i32, %class.b2Joint*, %class.b2Joint*, %struct.b2JointEdge, %struct.b2JointEdge, %class.b2Body*, %class.b2Body*, i32, i8, i8, i8* }
%struct.b2Manifold = type { [2 x %struct.b2ManifoldPoint], %struct.b2Vec2, %struct.b2Vec2, i32, i32 }
%struct.b2ManifoldPoint = type { %struct.b2Vec2, float, float, %union.b2ContactID }
%union.b2ContactID = type { i32 }
%class.b2ContactFilter = type { i32 (...)** }
%class.b2DestructionListener = type { i32 (...)** }
%class.b2Draw = type { i32 (...)**, i32 }
%struct.b2Profile = type { float, float, float, float, float, float, float, float }
%"class.std::set" = type { %"class.std::_Rb_tree.0" }
%"class.std::_Rb_tree.0" = type { %"struct.std::_Rb_tree<FruitClick::Apple *, FruitClick::Apple *, std::_Identity<FruitClick::Apple *>, std::less<FruitClick::Apple *>, std::allocator<FruitClick::Apple *> >::_Rb_tree_impl" }
%"struct.std::_Rb_tree<FruitClick::Apple *, FruitClick::Apple *, std::_Identity<FruitClick::Apple *>, std::less<FruitClick::Apple *>, std::allocator<FruitClick::Apple *> >::_Rb_tree_impl" = type { %"struct.std::less.4", %"struct.std::_Rb_tree_node_base", i32 }
%"struct.std::less.4" = type { i8 }
%"class.std::vector" = type { %"struct.std::_Vector_base" }
%"struct.std::_Vector_base" = type { %"struct.std::_Vector_base<FruitClick::Apple *, std::allocator<FruitClick::Apple *> >::_Vector_impl" }
%"struct.std::_Vector_base<FruitClick::Apple *, std::allocator<FruitClick::Apple *> >::_Vector_impl" = type { %"class.FruitClick::Apple"**, %"class.FruitClick::Apple"**, %"class.FruitClick::Apple"** }
%"class.FruitClick::Apple" = type { %"class.FruitClick::B2DObject" }
%"class.FruitClick::B2DObject" = type { i32 (...)**, %class.b2World*, %class.b2Body* }
%"class.FruitClick::Grass" = type { %"class.FruitClick::B2DObject" }
%"class.FruitClick::Bound" = type { %"class.FruitClick::B2DObject" }
%"class.pp::Var" = type { i32 (...)**, %struct.PP_Var, i8 }
%struct.PP_Var = type { i32, i32, %union.PP_VarValue }
%union.PP_VarValue = type { double }
%"class.std::basic_stringstream" = type { %"class.std::basic_iostream.base", %"class.std::basic_stringbuf", %"class.std::basic_ios" }
%"class.std::basic_iostream.base" = type { %"class.std::basic_istream.base", %"class.std::basic_ostream.base" }
%"class.std::basic_istream.base" = type { i32 (...)**, i32 }
%"class.std::basic_ostream.base" = type { i32 (...)** }
%"class.std::basic_stringbuf" = type { %"class.std::basic_streambuf", i32, %"class.std::basic_string" }
%"class.std::basic_streambuf" = type { i32 (...)**, i8*, i8*, i8*, i8*, i8*, i8*, %"class.std::locale" }
%"class.std::locale" = type { %"class.std::locale::_Impl"* }
%"class.std::locale::_Impl" = type { i32, %"class.std::locale::facet"**, i32, %"class.std::locale::facet"**, i8** }
%"class.std::locale::facet" = type { i32 (...)**, i32 }
%"class.std::basic_string" = type { %"struct.std::basic_string<char, std::char_traits<char>, std::allocator<char> >::_Alloc_hider" }
%"struct.std::basic_string<char, std::char_traits<char>, std::allocator<char> >::_Alloc_hider" = type { i8* }
%"class.std::basic_ios" = type { %"class.std::ios_base", %"class.std::basic_ostream"*, i8, i8, %"class.std::basic_streambuf"*, %"class.std::ctype"*, %"class.std::num_put"*, %"class.std::num_get"* }
%"class.std::ios_base" = type { i32 (...)**, i32, i32, i32, i32, i32, %"struct.std::ios_base::_Callback_list"*, %"struct.std::ios_base::_Words", [8 x %"struct.std::ios_base::_Words"], i32, %"struct.std::ios_base::_Words"*, %"class.std::locale" }
%"struct.std::ios_base::_Callback_list" = type { %"struct.std::ios_base::_Callback_list"*, void (i32, %"class.std::ios_base"*, i32)*, i32, i32 }
%"struct.std::ios_base::_Words" = type { i8*, i32 }
%"class.std::basic_ostream" = type { i32 (...)**, %"class.std::basic_ios" }
%"class.std::ctype" = type { %"class.std::locale::facet", %struct.__locale_struct*, i8, i32*, i32*, i16*, i8, [256 x i8], [256 x i8], i8 }
%struct.__locale_struct = type { [13 x %struct.__locale_data*], i16*, i32*, i32*, [13 x i8*] }
%struct.__locale_data = type opaque
%"class.std::num_put" = type { %"class.std::locale::facet" }
%"class.std::num_get" = type { %"class.std::locale::facet" }
%"class.std::basic_istream" = type { i32 (...)**, i32, %"class.std::basic_ios" }
%"class.std::allocator.9" = type { i8 }
%class.FruitclickModule = type { %"class.pp::Module" }
%"class.pp::Module" = type { i32 (...)**, %"class.std::map.12", i32, i8* (i8*)*, %"class.pp::Core"*, %"class.std::map.19" }
%"class.std::map.12" = type { %"class.std::_Rb_tree.13" }
%"class.std::_Rb_tree.13" = type { %"struct.std::_Rb_tree<int, std::pair<const int, pp::Instance *>, std::_Select1st<std::pair<const int, pp::Instance *> >, std::less<int>, std::allocator<std::pair<const int, pp::Instance *> > >::_Rb_tree_impl" }
%"struct.std::_Rb_tree<int, std::pair<const int, pp::Instance *>, std::_Select1st<std::pair<const int, pp::Instance *> >, std::less<int>, std::allocator<std::pair<const int, pp::Instance *> > >::_Rb_tree_impl" = type { %"struct.std::less.17", %"struct.std::_Rb_tree_node_base", i32 }
%"struct.std::less.17" = type { i8 }
%"class.pp::Core" = type { %struct.PPB_Core_1_0* }
%struct.PPB_Core_1_0 = type { void (i32)*, void (i32)*, double ()*, double ()*, void (i32, %struct.PP_CompletionCallback*, i32)*, i32 ()* }
%struct.PP_CompletionCallback = type { void (i8*, i32)*, i8*, i32 }
%"class.std::map.19" = type { %"class.std::_Rb_tree.20" }
%"class.std::_Rb_tree.20" = type { %"struct.std::_Rb_tree<std::basic_string<char>, std::pair<const std::basic_string<char>, const void *>, std::_Select1st<std::pair<const std::basic_string<char>, const void *> >, std::less<std::basic_string<char> >, std::allocator<std::pair<const std::basic_string<char>, const void *> > >::_Rb_tree_impl" }
%"struct.std::_Rb_tree<std::basic_string<char>, std::pair<const std::basic_string<char>, const void *>, std::_Select1st<std::pair<const std::basic_string<char>, const void *> >, std::less<std::basic_string<char> >, std::allocator<std::pair<const std::basic_string<char>, const void *> > >::_Rb_tree_impl" = type { %"struct.std::less", %"struct.std::_Rb_tree_node_base", i32 }
%"class.pp::View" = type { %"class.pp::Resource" }
%"class.pp::Resource" = type { i32 (...)**, i32 }
%"class.pp::Rect" = type { %struct.PP_Rect }
%struct.PP_Rect = type { %struct.PP_Point, %struct.PP_Size }
%struct.PP_Point = type { i32, i32 }
%struct.PP_Size = type { i32, i32 }
%"class.pp::InputEvent" = type opaque
%"class.pp::URLLoader" = type opaque

@.str = private unnamed_addr constant [2 x i8] c"|\00", align 1
@sep = global i8* getelementptr inbounds ([2 x i8]* @.str, i32 0, i32 0), align 4
@_ZTV12NaclPlatform = unnamed_addr constant [23 x i8*] [i8* null, i8* bitcast ({ i8*, i8*, i32, i32, i8*, i32, i8*, i32 }* @_ZTI12NaclPlatform to i8*), i8* bitcast (void (%class.NaclPlatform*)* @_ZN12NaclPlatformD1Ev to i8*), i8* bitcast (void (%class.NaclPlatform*)* @_ZN12NaclPlatformD0Ev to i8*), i8* bitcast (i1 (%"class.pp::Instance"*, i32, i8**, i8**)* @_ZN2pp8Instance4InitEjPPKcS3_ to i8*), i8* bitcast (void (%"class.pp::Instance"*, %"class.pp::View"*)* @_ZN2pp8Instance13DidChangeViewERKNS_4ViewE to i8*), i8* bitcast (void (%"class.pp::Instance"*, %"class.pp::Rect"*, %"class.pp::Rect"*)* @_ZN2pp8Instance13DidChangeViewERKNS_4RectES3_ to i8*), i8* bitcast (void (%"class.pp::Instance"*, i1)* @_ZN2pp8Instance14DidChangeFocusEb to i8*), i8* bitcast (i1 (%"class.pp::Instance"*, %"class.pp::InputEvent"*)* @_ZN2pp8Instance16HandleInputEventERKNS_10InputEventE to i8*), i8* bitcast (i1 (%"class.pp::Instance"*, %"class.pp::URLLoader"*)* @_ZN2pp8Instance18HandleDocumentLoadERKNS_9URLLoaderE to i8*), i8* bitcast (void (%class.NaclPlatform*, %"class.pp::Var"*)* @_ZN12NaclPlatform13HandleMessageERKN2pp3VarE to i8*), i8* bitcast (void (%class.NaclPlatform*, i32, float, float, float)* @_ZN12NaclPlatform8drawImplEN10FruitClick8Platform7TextureEfff to i8*), i8* bitcast (void (%class.NaclPlatform*, i8*, float, float)* @_ZN12NaclPlatform12drawTextImplEPKcff to i8*), i8* bitcast (void (%class.NaclPlatform*, i32)* @_ZN12NaclPlatform13playSoundImplEN10FruitClick8Platform5SoundE to i8*), i8* bitcast (void (%class.NaclPlatform*, i8*)* @_ZN12NaclPlatform7logImplEPKc to i8*), i8* inttoptr (i32 -32 to i8*), i8* bitcast ({ i8*, i8*, i32, i32, i8*, i32, i8*, i32 }* @_ZTI12NaclPlatform to i8*), i8* bitcast (void (%"class.FruitClick::Platform"*)* @_ZN10FruitClick8Platform13drawBeginImplEv to i8*), i8* bitcast (void (%"class.FruitClick::Platform"*)* @_ZN10FruitClick8Platform11drawEndImplEv to i8*), i8* bitcast (void (%class.NaclPlatform*, i32, float, float, float)* @_ZThn32_N12NaclPlatform8drawImplEN10FruitClick8Platform7TextureEfff to i8*), i8* bitcast (void (%class.NaclPlatform*, i8*, float, float)* @_ZThn32_N12NaclPlatform12drawTextImplEPKcff to i8*), i8* bitcast (void (%class.NaclPlatform*, i32)* @_ZThn32_N12NaclPlatform13playSoundImplEN10FruitClick8Platform5SoundE to i8*), i8* bitcast (void (%class.NaclPlatform*, i8*)* @_ZThn32_N12NaclPlatform7logImplEPKc to i8*)]
@.str1 = private unnamed_addr constant [7 x i8] c"render\00", align 1
@.str2 = private unnamed_addr constant [6 x i8] c"touch\00", align 1
@.str3 = private unnamed_addr constant [5 x i8] c"draw\00", align 1
@.str4 = private unnamed_addr constant [9 x i8] c"drawText\00", align 1
@.str5 = private unnamed_addr constant [10 x i8] c"playSound\00", align 1
@.str6 = private unnamed_addr constant [3 x i8] c": \00", align 1
@.str7 = private unnamed_addr constant [4 x i8] c"log\00", align 1
@_ZTVN10__cxxabiv121__vmi_class_type_infoE = external global i8*
@_ZTS12NaclPlatform = constant [15 x i8] c"12NaclPlatform\00"
@_ZTIN2pp8InstanceE = external constant i8*
@_ZTVN10__cxxabiv117__class_type_infoE = external global i8*
@_ZTSN10FruitClick8PlatformE = linkonce_odr constant [24 x i8] c"N10FruitClick8PlatformE\00"
@_ZTIN10FruitClick8PlatformE = linkonce_odr unnamed_addr constant { i8*, i8* } { i8* bitcast (i8** getelementptr inbounds (i8** @_ZTVN10__cxxabiv117__class_type_infoE, i32 2) to i8*), i8* getelementptr inbounds ([24 x i8]* @_ZTSN10FruitClick8PlatformE, i32 0, i32 0) }
@_ZTI12NaclPlatform = unnamed_addr constant { i8*, i8*, i32, i32, i8*, i32, i8*, i32 } { i8* bitcast (i8** getelementptr inbounds (i8** @_ZTVN10__cxxabiv121__vmi_class_type_infoE, i32 2) to i8*), i8* getelementptr inbounds ([15 x i8]* @_ZTS12NaclPlatform, i32 0, i32 0), i32 0, i32 2, i8* bitcast (i8** @_ZTIN2pp8InstanceE to i8*), i32 2, i8* bitcast ({ i8*, i8* }* @_ZTIN10FruitClick8PlatformE to i8*), i32 8194 }
@_ZTV16FruitclickModule = unnamed_addr constant [6 x i8*] [i8* null, i8* bitcast ({ i8*, i8*, i8* }* @_ZTI16FruitclickModule to i8*), i8* bitcast (void (%class.FruitclickModule*)* @_ZN16FruitclickModuleD1Ev to i8*), i8* bitcast (void (%class.FruitclickModule*)* @_ZN16FruitclickModuleD0Ev to i8*), i8* bitcast (i1 (%"class.pp::Module"*)* @_ZN2pp6Module4InitEv to i8*), i8* bitcast (%"class.pp::Instance"* (%class.FruitclickModule*, i32)* @_ZN16FruitclickModule14CreateInstanceEi to i8*)]
@_ZTVN10__cxxabiv120__si_class_type_infoE = external global i8*
@_ZTS16FruitclickModule = constant [19 x i8] c"16FruitclickModule\00"
@_ZTIN2pp6ModuleE = external constant i8*
@_ZTI16FruitclickModule = unnamed_addr constant { i8*, i8*, i8* } { i8* bitcast (i8** getelementptr inbounds (i8** @_ZTVN10__cxxabiv120__si_class_type_infoE, i32 2) to i8*), i8* getelementptr inbounds ([19 x i8]* @_ZTS16FruitclickModule, i32 0, i32 0), i8* bitcast (i8** @_ZTIN2pp6ModuleE to i8*) }
@_ZTVN10FruitClick8PlatformE = linkonce_odr unnamed_addr constant [8 x i8*] [i8* null, i8* bitcast ({ i8*, i8* }* @_ZTIN10FruitClick8PlatformE to i8*), i8* bitcast (void (%"class.FruitClick::Platform"*)* @_ZN10FruitClick8Platform13drawBeginImplEv to i8*), i8* bitcast (void (%"class.FruitClick::Platform"*)* @_ZN10FruitClick8Platform11drawEndImplEv to i8*), i8* bitcast (void ()* @__cxa_pure_virtual to i8*), i8* bitcast (void ()* @__cxa_pure_virtual to i8*), i8* bitcast (void ()* @__cxa_pure_virtual to i8*), i8* bitcast (void ()* @__cxa_pure_virtual to i8*)]

@_ZN12NaclPlatformC1Ei = alias void (%class.NaclPlatform*, i32)* @_ZN12NaclPlatformC2Ei

define void @_ZN12NaclPlatformC2Ei(%class.NaclPlatform* %this, i32 %instance) unnamed_addr align 2 {
  %1 = alloca %class.NaclPlatform*, align 4
  %2 = alloca i32, align 4
  %3 = alloca i8*
  %4 = alloca i32
  store %class.NaclPlatform* %this, %class.NaclPlatform** %1, align 4
  call void @llvm.dbg.declare(metadata !{%class.NaclPlatform** %1}, metadata !9853), !dbg !9854
  store i32 %instance, i32* %2, align 4
  call void @llvm.dbg.declare(metadata !{i32* %2}, metadata !9855), !dbg !9856
  %5 = load %class.NaclPlatform** %1
  %6 = bitcast %class.NaclPlatform* %5 to %"class.pp::Instance"*, !dbg !9857
  %7 = load i32* %2, align 4, !dbg !9857
  call void @_ZN2pp8InstanceC2Ei(%"class.pp::Instance"* %6, i32 %7), !dbg !9857
  %8 = bitcast %class.NaclPlatform* %5 to i8*, !dbg !9857
  %9 = getelementptr inbounds i8* %8, i64 32, !dbg !9857
  %10 = bitcast i8* %9 to %"class.FruitClick::Platform"*, !dbg !9857
  call void @_ZN10FruitClick8PlatformC2Ev(%"class.FruitClick::Platform"* %10) nounwind, !dbg !9857
  %11 = bitcast %class.NaclPlatform* %5 to i8***, !dbg !9857
  store i8** getelementptr inbounds ([23 x i8*]* @_ZTV12NaclPlatform, i64 0, i64 2), i8*** %11, !dbg !9857
  %12 = bitcast %class.NaclPlatform* %5 to i8*, !dbg !9857
  %13 = getelementptr i8* %12, i32 32, !dbg !9857
  %14 = bitcast i8* %13 to i8***, !dbg !9857
  store i8** getelementptr inbounds ([23 x i8*]* @_ZTV12NaclPlatform, i64 0, i64 17), i8*** %14, !dbg !9857
  %15 = getelementptr inbounds %class.NaclPlatform* %5, i32 0, i32 2, !dbg !9857
  invoke void @_ZN10FruitClick11ApplicationC1Ev(%"class.FruitClick::Application"* %15)
          to label %16 unwind label %21, !dbg !9857

; <label>:16                                      ; preds = %0
  %17 = bitcast %class.NaclPlatform* %5 to i8*, !dbg !9858
  %18 = getelementptr i8* %17, i32 32, !dbg !9858
  %19 = bitcast i8* %18 to %"class.FruitClick::Platform"*, !dbg !9858
  invoke void @_ZN10FruitClick8Platform3setEPS0_(%"class.FruitClick::Platform"* %19)
          to label %20 unwind label %25, !dbg !9858

; <label>:20                                      ; preds = %16
  ret void, !dbg !9860

; <label>:21                                      ; preds = %0
  %22 = landingpad { i8*, i32 } personality i8* bitcast (i32 (...)* @__gxx_personality_v0 to i8*)
          cleanup, !dbg !9857
  %23 = extractvalue { i8*, i32 } %22, 0, !dbg !9857
  store i8* %23, i8** %3, !dbg !9857
  %24 = extractvalue { i8*, i32 } %22, 1, !dbg !9857
  store i32 %24, i32* %4, !dbg !9857
  br label %31, !dbg !9857

; <label>:25                                      ; preds = %16
  %26 = landingpad { i8*, i32 } personality i8* bitcast (i32 (...)* @__gxx_personality_v0 to i8*)
          cleanup, !dbg !9858
  %27 = extractvalue { i8*, i32 } %26, 0, !dbg !9858
  store i8* %27, i8** %3, !dbg !9858
  %28 = extractvalue { i8*, i32 } %26, 1, !dbg !9858
  store i32 %28, i32* %4, !dbg !9858
  %29 = getelementptr inbounds %class.NaclPlatform* %5, i32 0, i32 2, !dbg !9860
  invoke void @_ZN10FruitClick11ApplicationD1Ev(%"class.FruitClick::Application"* %29)
          to label %30 unwind label %40, !dbg !9860

; <label>:30                                      ; preds = %25
  br label %31, !dbg !9860

; <label>:31                                      ; preds = %30, %21
  %32 = bitcast %class.NaclPlatform* %5 to %"class.pp::Instance"*, !dbg !9860
  invoke void @_ZN2pp8InstanceD2Ev(%"class.pp::Instance"* %32)
          to label %33 unwind label %40, !dbg !9860

; <label>:33                                      ; preds = %31
  br label %34, !dbg !9860

; <label>:34                                      ; preds = %33
  %35 = load i8** %3, !dbg !9860
  %36 = load i8** %3, !dbg !9860
  %37 = load i32* %4, !dbg !9860
  %38 = insertvalue { i8*, i32 } undef, i8* %36, 0, !dbg !9860
  %39 = insertvalue { i8*, i32 } %38, i32 %37, 1, !dbg !9860
  resume { i8*, i32 } %39, !dbg !9860

; <label>:40                                      ; preds = %31, %25
  %41 = landingpad { i8*, i32 } personality i8* bitcast (i32 (...)* @__gxx_personality_v0 to i8*)
          catch i8* null, !dbg !9860
  call void @_ZSt9terminatev() noreturn nounwind, !dbg !9860
  unreachable, !dbg !9860
}

declare void @llvm.dbg.declare(metadata, metadata) nounwind readnone

declare void @_ZN2pp8InstanceC2Ei(%"class.pp::Instance"*, i32)

define linkonce_odr void @_ZN10FruitClick8PlatformC2Ev(%"class.FruitClick::Platform"* %this) unnamed_addr nounwind inlinehint align 2 {
  %1 = alloca %"class.FruitClick::Platform"*, align 4
  store %"class.FruitClick::Platform"* %this, %"class.FruitClick::Platform"** %1, align 4
  call void @llvm.dbg.declare(metadata !{%"class.FruitClick::Platform"** %1}, metadata !9861), !dbg !9862
  %2 = load %"class.FruitClick::Platform"** %1
  %3 = bitcast %"class.FruitClick::Platform"* %2 to i8***, !dbg !9862
  store i8** getelementptr inbounds ([8 x i8*]* @_ZTVN10FruitClick8PlatformE, i64 0, i64 2), i8*** %3, !dbg !9862
  ret void, !dbg !9863
}

declare void @_ZN10FruitClick11ApplicationC1Ev(%"class.FruitClick::Application"*)

declare i32 @__gxx_personality_v0(...)

declare void @_ZN10FruitClick8Platform3setEPS0_(%"class.FruitClick::Platform"*)

declare void @_ZN10FruitClick11ApplicationD1Ev(%"class.FruitClick::Application"*)

declare void @_ZSt9terminatev()

declare void @_ZN2pp8InstanceD2Ev(%"class.pp::Instance"*)

define void @_ZN12NaclPlatform13HandleMessageERKN2pp3VarE(%class.NaclPlatform* %this, %"class.pp::Var"* %var) align 2 {
  %1 = alloca %class.NaclPlatform*, align 4
  %2 = alloca %"class.pp::Var"*, align 4
  %stream = alloca %"class.std::basic_stringstream", align 4
  %3 = alloca %"class.std::basic_string", align 4
  %4 = alloca i8*
  %5 = alloca i32
  %type = alloca %"class.std::basic_string", align 4
  %x = alloca i32, align 4
  %y = alloca i32, align 4
  store %class.NaclPlatform* %this, %class.NaclPlatform** %1, align 4
  call void @llvm.dbg.declare(metadata !{%class.NaclPlatform** %1}, metadata !9865), !dbg !9866
  store %"class.pp::Var"* %var, %"class.pp::Var"** %2, align 4
  call void @llvm.dbg.declare(metadata !{%"class.pp::Var"** %2}, metadata !9867), !dbg !9868
  %6 = load %class.NaclPlatform** %1
  %7 = load %"class.pp::Var"** %2, !dbg !9869
  %8 = call zeroext i1 @_ZNK2pp3Var9is_stringEv(%"class.pp::Var"* %7), !dbg !9869
  br i1 %8, label %10, label %9, !dbg !9869

; <label>:9                                       ; preds = %0
  br label %55, !dbg !9871

; <label>:10                                      ; preds = %0
  call void @llvm.dbg.declare(metadata !{%"class.std::basic_stringstream"* %stream}, metadata !9872), !dbg !11042
  %11 = load %"class.pp::Var"** %2, !dbg !11043
  call void @_ZNK2pp3Var8AsStringEv(%"class.std::basic_string"* sret %3, %"class.pp::Var"* %11), !dbg !11043
  %12 = invoke i32 @_ZStorSt13_Ios_OpenmodeS_(i32 16, i32 8)
          to label %13 unwind label %24, !dbg !11043

; <label>:13                                      ; preds = %10
  invoke void @_ZNSt18basic_stringstreamIcSt11char_traitsIcESaIcEEC1ERKSsSt13_Ios_Openmode(%"class.std::basic_stringstream"* %stream, %"class.std::basic_string"* %3, i32 %12)
          to label %14 unwind label %24, !dbg !11043

; <label>:14                                      ; preds = %13
  call void @_ZNSsD1Ev(%"class.std::basic_string"* %3), !dbg !11043
  call void @llvm.dbg.declare(metadata !{%"class.std::basic_string"* %type}, metadata !11044), !dbg !11045
  invoke void @_ZNSsC1Ev(%"class.std::basic_string"* %type)
          to label %15 unwind label %29, !dbg !11046

; <label>:15                                      ; preds = %14
  %16 = bitcast %"class.std::basic_stringstream"* %stream to %"class.std::basic_istream"*, !dbg !11047
  %17 = invoke %"class.std::basic_istream"* @_ZStrsIcSt11char_traitsIcESaIcEERSt13basic_istreamIT_T0_ES7_RSbIS4_S5_T1_E(%"class.std::basic_istream"* %16, %"class.std::basic_string"* %type)
          to label %18 unwind label %33, !dbg !11047

; <label>:18                                      ; preds = %15
  %19 = invoke zeroext i1 @_ZSteqIcSt11char_traitsIcESaIcEEbRKSbIT_T0_T1_EPKS3_(%"class.std::basic_string"* %type, i8* getelementptr inbounds ([7 x i8]* @.str1, i32 0, i32 0))
          to label %20 unwind label %33, !dbg !11048

; <label>:20                                      ; preds = %18
  br i1 %19, label %21, label %37, !dbg !11048

; <label>:21                                      ; preds = %20
  %22 = getelementptr inbounds %class.NaclPlatform* %6, i32 0, i32 2, !dbg !11049
  invoke void @_ZN10FruitClick11Application6renderEv(%"class.FruitClick::Application"* %22)
          to label %23 unwind label %33, !dbg !11049

; <label>:23                                      ; preds = %21
  br label %53, !dbg !11051

; <label>:24                                      ; preds = %13, %10
  %25 = landingpad { i8*, i32 } personality i8* bitcast (i32 (...)* @__gxx_personality_v0 to i8*)
          cleanup, !dbg !11043
  %26 = extractvalue { i8*, i32 } %25, 0, !dbg !11043
  store i8* %26, i8** %4, !dbg !11043
  %27 = extractvalue { i8*, i32 } %25, 1, !dbg !11043
  store i32 %27, i32* %5, !dbg !11043
  invoke void @_ZNSsD1Ev(%"class.std::basic_string"* %3)
          to label %28 unwind label %65, !dbg !11043

; <label>:28                                      ; preds = %24
  br label %59, !dbg !11043

; <label>:29                                      ; preds = %53, %14
  %30 = landingpad { i8*, i32 } personality i8* bitcast (i32 (...)* @__gxx_personality_v0 to i8*)
          cleanup, !dbg !11046
  %31 = extractvalue { i8*, i32 } %30, 0, !dbg !11046
  store i8* %31, i8** %4, !dbg !11046
  %32 = extractvalue { i8*, i32 } %30, 1, !dbg !11046
  store i32 %32, i32* %5, !dbg !11046
  br label %57, !dbg !11046

; <label>:33                                      ; preds = %45, %43, %40, %37, %21, %18, %15
  %34 = landingpad { i8*, i32 } personality i8* bitcast (i32 (...)* @__gxx_personality_v0 to i8*)
          cleanup, !dbg !11047
  %35 = extractvalue { i8*, i32 } %34, 0, !dbg !11047
  store i8* %35, i8** %4, !dbg !11047
  %36 = extractvalue { i8*, i32 } %34, 1, !dbg !11047
  store i32 %36, i32* %5, !dbg !11047
  invoke void @_ZNSsD1Ev(%"class.std::basic_string"* %type)
          to label %56 unwind label %65, !dbg !11052

; <label>:37                                      ; preds = %20
  %38 = invoke zeroext i1 @_ZSteqIcSt11char_traitsIcESaIcEEbRKSbIT_T0_T1_EPKS3_(%"class.std::basic_string"* %type, i8* getelementptr inbounds ([6 x i8]* @.str2, i32 0, i32 0))
          to label %39 unwind label %33, !dbg !11053

; <label>:39                                      ; preds = %37
  br i1 %38, label %40, label %52, !dbg !11053

; <label>:40                                      ; preds = %39
  call void @llvm.dbg.declare(metadata !{i32* %x}, metadata !11054), !dbg !11056
  call void @llvm.dbg.declare(metadata !{i32* %y}, metadata !11057), !dbg !11058
  %41 = bitcast %"class.std::basic_stringstream"* %stream to %"class.std::basic_istream"*, !dbg !11059
  %42 = invoke %"class.std::basic_istream"* @_ZNSirsERi(%"class.std::basic_istream"* %41, i32* %x)
          to label %43 unwind label %33, !dbg !11059

; <label>:43                                      ; preds = %40
  %44 = invoke %"class.std::basic_istream"* @_ZNSirsERi(%"class.std::basic_istream"* %42, i32* %y)
          to label %45 unwind label %33, !dbg !11059

; <label>:45                                      ; preds = %43
  %46 = getelementptr inbounds %class.NaclPlatform* %6, i32 0, i32 2, !dbg !11060
  %47 = load i32* %x, align 4, !dbg !11060
  %48 = sitofp i32 %47 to float, !dbg !11060
  %49 = load i32* %y, align 4, !dbg !11060
  %50 = sitofp i32 %49 to float, !dbg !11060
  invoke void @_ZN10FruitClick11Application5touchEff(%"class.FruitClick::Application"* %46, float %48, float %50)
          to label %51 unwind label %33, !dbg !11060

; <label>:51                                      ; preds = %45
  br label %52, !dbg !11061

; <label>:52                                      ; preds = %51, %39
  br label %53

; <label>:53                                      ; preds = %52, %23
  invoke void @_ZNSsD1Ev(%"class.std::basic_string"* %type)
          to label %54 unwind label %29, !dbg !11052

; <label>:54                                      ; preds = %53
  call void @_ZNSt18basic_stringstreamIcSt11char_traitsIcESaIcEED1Ev(%"class.std::basic_stringstream"* %stream), !dbg !11052
  br label %55, !dbg !11052

; <label>:55                                      ; preds = %54, %9
  ret void, !dbg !11052

; <label>:56                                      ; preds = %33
  br label %57, !dbg !11052

; <label>:57                                      ; preds = %56, %29
  invoke void @_ZNSt18basic_stringstreamIcSt11char_traitsIcESaIcEED1Ev(%"class.std::basic_stringstream"* %stream)
          to label %58 unwind label %65, !dbg !11052

; <label>:58                                      ; preds = %57
  br label %59, !dbg !11052

; <label>:59                                      ; preds = %58, %28
  %60 = load i8** %4, !dbg !11043
  %61 = load i8** %4, !dbg !11043
  %62 = load i32* %5, !dbg !11043
  %63 = insertvalue { i8*, i32 } undef, i8* %61, 0, !dbg !11043
  %64 = insertvalue { i8*, i32 } %63, i32 %62, 1, !dbg !11043
  resume { i8*, i32 } %64, !dbg !11043

; <label>:65                                      ; preds = %57, %33, %24
  %66 = landingpad { i8*, i32 } personality i8* bitcast (i32 (...)* @__gxx_personality_v0 to i8*)
          catch i8* null, !dbg !11043
  call void @_ZSt9terminatev() noreturn nounwind, !dbg !11043
  unreachable, !dbg !11043
}

define linkonce_odr zeroext i1 @_ZNK2pp3Var9is_stringEv(%"class.pp::Var"* %this) nounwind align 2 {
  %1 = alloca %"class.pp::Var"*, align 4
  store %"class.pp::Var"* %this, %"class.pp::Var"** %1, align 4
  call void @llvm.dbg.declare(metadata !{%"class.pp::Var"** %1}, metadata !11062), !dbg !11063
  %2 = load %"class.pp::Var"** %1
  %3 = getelementptr inbounds %"class.pp::Var"* %2, i32 0, i32 1, !dbg !11064
  %4 = getelementptr inbounds %struct.PP_Var* %3, i32 0, i32 0, !dbg !11064
  %5 = load i32* %4, align 4, !dbg !11064
  %6 = icmp eq i32 %5, 5, !dbg !11064
  ret i1 %6, !dbg !11064
}

declare void @_ZNSt18basic_stringstreamIcSt11char_traitsIcESaIcEEC1ERKSsSt13_Ios_Openmode(%"class.std::basic_stringstream"*, %"class.std::basic_string"*, i32)

declare void @_ZNK2pp3Var8AsStringEv(%"class.std::basic_string"* sret, %"class.pp::Var"*)

define linkonce_odr i32 @_ZStorSt13_Ios_OpenmodeS_(i32 %__a, i32 %__b) nounwind inlinehint {
  %1 = alloca i32, align 4
  %2 = alloca i32, align 4
  store i32 %__a, i32* %1, align 4
  call void @llvm.dbg.declare(metadata !{i32* %1}, metadata !11066), !dbg !11067
  store i32 %__b, i32* %2, align 4
  call void @llvm.dbg.declare(metadata !{i32* %2}, metadata !11068), !dbg !11069
  %3 = load i32* %1, align 4, !dbg !11070
  %4 = load i32* %2, align 4, !dbg !11070
  %5 = or i32 %3, %4, !dbg !11070
  ret i32 %5, !dbg !11070
}

declare void @_ZNSsD1Ev(%"class.std::basic_string"*)

declare void @_ZNSsC1Ev(%"class.std::basic_string"*)

declare %"class.std::basic_istream"* @_ZStrsIcSt11char_traitsIcESaIcEERSt13basic_istreamIT_T0_ES7_RSbIS4_S5_T1_E(%"class.std::basic_istream"*, %"class.std::basic_string"*)

define linkonce_odr zeroext i1 @_ZSteqIcSt11char_traitsIcESaIcEEbRKSbIT_T0_T1_EPKS3_(%"class.std::basic_string"* %__lhs, i8* %__rhs) inlinehint {
  %1 = alloca %"class.std::basic_string"*, align 4
  %2 = alloca i8*, align 4
  store %"class.std::basic_string"* %__lhs, %"class.std::basic_string"** %1, align 4
  call void @llvm.dbg.declare(metadata !{%"class.std::basic_string"** %1}, metadata !11072), !dbg !11073
  store i8* %__rhs, i8** %2, align 4
  call void @llvm.dbg.declare(metadata !{i8** %2}, metadata !11074), !dbg !11075
  %3 = load %"class.std::basic_string"** %1, !dbg !11076
  %4 = load i8** %2, align 4, !dbg !11076
  %5 = call i32 @_ZNKSs7compareEPKc(%"class.std::basic_string"* %3, i8* %4), !dbg !11076
  %6 = icmp eq i32 %5, 0, !dbg !11076
  ret i1 %6, !dbg !11076
}

declare void @_ZN10FruitClick11Application6renderEv(%"class.FruitClick::Application"*)

declare %"class.std::basic_istream"* @_ZNSirsERi(%"class.std::basic_istream"*, i32*)

declare void @_ZN10FruitClick11Application5touchEff(%"class.FruitClick::Application"*, float, float)

declare void @_ZNSt18basic_stringstreamIcSt11char_traitsIcESaIcEED1Ev(%"class.std::basic_stringstream"*)

define void @_ZN12NaclPlatform8drawImplEN10FruitClick8Platform7TextureEfff(%class.NaclPlatform* %this, i32 %id, float %x, float %y, float %angle) align 2 {
  %1 = alloca %class.NaclPlatform*, align 4
  %2 = alloca i32, align 4
  %3 = alloca float, align 4
  %4 = alloca float, align 4
  %5 = alloca float, align 4
  %stream = alloca %"class.std::basic_stringstream", align 4
  %6 = alloca i8*
  %7 = alloca i32
  %8 = alloca %"class.pp::Var", align 4
  %9 = alloca %"class.std::basic_string", align 4
  store %class.NaclPlatform* %this, %class.NaclPlatform** %1, align 4
  call void @llvm.dbg.declare(metadata !{%class.NaclPlatform** %1}, metadata !11078), !dbg !11079
  store i32 %id, i32* %2, align 4
  call void @llvm.dbg.declare(metadata !{i32* %2}, metadata !11080), !dbg !11081
  store float %x, float* %3, align 4
  call void @llvm.dbg.declare(metadata !{float* %3}, metadata !11082), !dbg !11083
  store float %y, float* %4, align 4
  call void @llvm.dbg.declare(metadata !{float* %4}, metadata !11084), !dbg !11085
  store float %angle, float* %5, align 4
  call void @llvm.dbg.declare(metadata !{float* %5}, metadata !11086), !dbg !11087
  %10 = load %class.NaclPlatform** %1
  call void @llvm.dbg.declare(metadata !{%"class.std::basic_stringstream"* %stream}, metadata !11088), !dbg !11090
  %11 = call i32 @_ZStorSt13_Ios_OpenmodeS_(i32 16, i32 8), !dbg !11091
  call void @_ZNSt18basic_stringstreamIcSt11char_traitsIcESaIcEEC1ESt13_Ios_Openmode(%"class.std::basic_stringstream"* %stream, i32 %11), !dbg !11091
  %12 = bitcast %"class.std::basic_stringstream"* %stream to i8*, !dbg !11092
  %13 = getelementptr i8* %12, i32 8, !dbg !11092
  %14 = bitcast i8* %13 to %"class.std::basic_ostream"*, !dbg !11092
  %15 = invoke %"class.std::basic_ostream"* @_ZStlsISt11char_traitsIcEERSt13basic_ostreamIcT_ES5_PKc(%"class.std::basic_ostream"* %14, i8* getelementptr inbounds ([5 x i8]* @.str3, i32 0, i32 0))
          to label %16 unwind label %47, !dbg !11092

; <label>:16                                      ; preds = %0
  %17 = load i8** @sep, align 4, !dbg !11092
  %18 = invoke %"class.std::basic_ostream"* @_ZStlsISt11char_traitsIcEERSt13basic_ostreamIcT_ES5_PKc(%"class.std::basic_ostream"* %15, i8* %17)
          to label %19 unwind label %47, !dbg !11092

; <label>:19                                      ; preds = %16
  %20 = load i32* %2, align 4, !dbg !11092
  %21 = invoke %"class.std::basic_ostream"* @_ZNSolsEi(%"class.std::basic_ostream"* %18, i32 %20)
          to label %22 unwind label %47, !dbg !11092

; <label>:22                                      ; preds = %19
  %23 = load i8** @sep, align 4, !dbg !11092
  %24 = invoke %"class.std::basic_ostream"* @_ZStlsISt11char_traitsIcEERSt13basic_ostreamIcT_ES5_PKc(%"class.std::basic_ostream"* %21, i8* %23)
          to label %25 unwind label %47, !dbg !11092

; <label>:25                                      ; preds = %22
  %26 = load float* %3, align 4, !dbg !11092
  %27 = invoke %"class.std::basic_ostream"* @_ZNSolsEf(%"class.std::basic_ostream"* %24, float %26)
          to label %28 unwind label %47, !dbg !11092

; <label>:28                                      ; preds = %25
  %29 = load i8** @sep, align 4, !dbg !11092
  %30 = invoke %"class.std::basic_ostream"* @_ZStlsISt11char_traitsIcEERSt13basic_ostreamIcT_ES5_PKc(%"class.std::basic_ostream"* %27, i8* %29)
          to label %31 unwind label %47, !dbg !11092

; <label>:31                                      ; preds = %28
  %32 = load float* %4, align 4, !dbg !11092
  %33 = invoke %"class.std::basic_ostream"* @_ZNSolsEf(%"class.std::basic_ostream"* %30, float %32)
          to label %34 unwind label %47, !dbg !11092

; <label>:34                                      ; preds = %31
  %35 = load i8** @sep, align 4, !dbg !11092
  %36 = invoke %"class.std::basic_ostream"* @_ZStlsISt11char_traitsIcEERSt13basic_ostreamIcT_ES5_PKc(%"class.std::basic_ostream"* %33, i8* %35)
          to label %37 unwind label %47, !dbg !11092

; <label>:37                                      ; preds = %34
  %38 = load float* %5, align 4, !dbg !11092
  %39 = invoke %"class.std::basic_ostream"* @_ZNSolsEf(%"class.std::basic_ostream"* %36, float %38)
          to label %40 unwind label %47, !dbg !11092

; <label>:40                                      ; preds = %37
  %41 = bitcast %class.NaclPlatform* %10 to %"class.pp::Instance"*, !dbg !11093
  invoke void @_ZNKSt18basic_stringstreamIcSt11char_traitsIcESaIcEE3strEv(%"class.std::basic_string"* sret %9, %"class.std::basic_stringstream"* %stream)
          to label %42 unwind label %47, !dbg !11094

; <label>:42                                      ; preds = %40
  invoke void @_ZN2pp3VarC1ERKSs(%"class.pp::Var"* %8, %"class.std::basic_string"* %9)
          to label %43 unwind label %51, !dbg !11094

; <label>:43                                      ; preds = %42
  invoke void @_ZN2pp8Instance11PostMessageERKNS_3VarE(%"class.pp::Instance"* %41, %"class.pp::Var"* %8)
          to label %44 unwind label %55, !dbg !11094

; <label>:44                                      ; preds = %43
  invoke void @_ZN2pp3VarD1Ev(%"class.pp::Var"* %8)
          to label %45 unwind label %51, !dbg !11094

; <label>:45                                      ; preds = %44
  invoke void @_ZNSsD1Ev(%"class.std::basic_string"* %9)
          to label %46 unwind label %47, !dbg !11094

; <label>:46                                      ; preds = %45
  call void @_ZNSt18basic_stringstreamIcSt11char_traitsIcESaIcEED1Ev(%"class.std::basic_stringstream"* %stream), !dbg !11095
  ret void, !dbg !11095

; <label>:47                                      ; preds = %45, %40, %37, %34, %31, %28, %25, %22, %19, %16, %0
  %48 = landingpad { i8*, i32 } personality i8* bitcast (i32 (...)* @__gxx_personality_v0 to i8*)
          cleanup, !dbg !11092
  %49 = extractvalue { i8*, i32 } %48, 0, !dbg !11092
  store i8* %49, i8** %6, !dbg !11092
  %50 = extractvalue { i8*, i32 } %48, 1, !dbg !11092
  store i32 %50, i32* %7, !dbg !11092
  br label %62, !dbg !11092

; <label>:51                                      ; preds = %44, %42
  %52 = landingpad { i8*, i32 } personality i8* bitcast (i32 (...)* @__gxx_personality_v0 to i8*)
          cleanup, !dbg !11094
  %53 = extractvalue { i8*, i32 } %52, 0, !dbg !11094
  store i8* %53, i8** %6, !dbg !11094
  %54 = extractvalue { i8*, i32 } %52, 1, !dbg !11094
  store i32 %54, i32* %7, !dbg !11094
  br label %60, !dbg !11094

; <label>:55                                      ; preds = %43
  %56 = landingpad { i8*, i32 } personality i8* bitcast (i32 (...)* @__gxx_personality_v0 to i8*)
          cleanup, !dbg !11094
  %57 = extractvalue { i8*, i32 } %56, 0, !dbg !11094
  store i8* %57, i8** %6, !dbg !11094
  %58 = extractvalue { i8*, i32 } %56, 1, !dbg !11094
  store i32 %58, i32* %7, !dbg !11094
  invoke void @_ZN2pp3VarD1Ev(%"class.pp::Var"* %8)
          to label %59 unwind label %70, !dbg !11094

; <label>:59                                      ; preds = %55
  br label %60, !dbg !11094

; <label>:60                                      ; preds = %59, %51
  invoke void @_ZNSsD1Ev(%"class.std::basic_string"* %9)
          to label %61 unwind label %70, !dbg !11094

; <label>:61                                      ; preds = %60
  br label %62, !dbg !11094

; <label>:62                                      ; preds = %61, %47
  invoke void @_ZNSt18basic_stringstreamIcSt11char_traitsIcESaIcEED1Ev(%"class.std::basic_stringstream"* %stream)
          to label %63 unwind label %70, !dbg !11095

; <label>:63                                      ; preds = %62
  br label %64, !dbg !11095

; <label>:64                                      ; preds = %63
  %65 = load i8** %6, !dbg !11095
  %66 = load i8** %6, !dbg !11095
  %67 = load i32* %7, !dbg !11095
  %68 = insertvalue { i8*, i32 } undef, i8* %66, 0, !dbg !11095
  %69 = insertvalue { i8*, i32 } %68, i32 %67, 1, !dbg !11095
  resume { i8*, i32 } %69, !dbg !11095

; <label>:70                                      ; preds = %62, %60, %55
  %71 = landingpad { i8*, i32 } personality i8* bitcast (i32 (...)* @__gxx_personality_v0 to i8*)
          catch i8* null, !dbg !11094
  call void @_ZSt9terminatev() noreturn nounwind, !dbg !11094
  unreachable, !dbg !11094
}

declare void @_ZNSt18basic_stringstreamIcSt11char_traitsIcESaIcEEC1ESt13_Ios_Openmode(%"class.std::basic_stringstream"*, i32)

declare %"class.std::basic_ostream"* @_ZStlsISt11char_traitsIcEERSt13basic_ostreamIcT_ES5_PKc(%"class.std::basic_ostream"*, i8*)

declare %"class.std::basic_ostream"* @_ZNSolsEi(%"class.std::basic_ostream"*, i32)

declare %"class.std::basic_ostream"* @_ZNSolsEf(%"class.std::basic_ostream"*, float)

declare void @_ZN2pp8Instance11PostMessageERKNS_3VarE(%"class.pp::Instance"*, %"class.pp::Var"*)

declare void @_ZN2pp3VarC1ERKSs(%"class.pp::Var"*, %"class.std::basic_string"*)

declare void @_ZNKSt18basic_stringstreamIcSt11char_traitsIcESaIcEE3strEv(%"class.std::basic_string"* sret, %"class.std::basic_stringstream"*)

declare void @_ZN2pp3VarD1Ev(%"class.pp::Var"*)

define void @_ZThn32_N12NaclPlatform8drawImplEN10FruitClick8Platform7TextureEfff(%class.NaclPlatform* %this, i32 %id, float %x, float %y, float %angle) {
  %1 = alloca %class.NaclPlatform*, align 4
  %2 = alloca i32, align 4
  %3 = alloca float, align 4
  %4 = alloca float, align 4
  %5 = alloca float, align 4
  store %class.NaclPlatform* %this, %class.NaclPlatform** %1, align 4
  store i32 %id, i32* %2, align 4
  store float %x, float* %3, align 4
  store float %y, float* %4, align 4
  store float %angle, float* %5, align 4
  %6 = load %class.NaclPlatform** %1
  %7 = bitcast %class.NaclPlatform* %6 to i8*
  %8 = getelementptr inbounds i8* %7, i64 -32
  %9 = bitcast i8* %8 to %class.NaclPlatform*
  %10 = load i32* %2, align 4
  %11 = load float* %3, align 4
  %12 = load float* %4, align 4
  %13 = load float* %5, align 4
  call void @_ZN12NaclPlatform8drawImplEN10FruitClick8Platform7TextureEfff(%class.NaclPlatform* %9, i32 %10, float %11, float %12, float %13)
  ret void
}

define void @_ZN12NaclPlatform12drawTextImplEPKcff(%class.NaclPlatform* %this, i8* %text, float %x, float %y) align 2 {
  %1 = alloca %class.NaclPlatform*, align 4
  %2 = alloca i8*, align 4
  %3 = alloca float, align 4
  %4 = alloca float, align 4
  %stream = alloca %"class.std::basic_stringstream", align 4
  %5 = alloca i8*
  %6 = alloca i32
  %7 = alloca %"class.pp::Var", align 4
  %8 = alloca %"class.std::basic_string", align 4
  store %class.NaclPlatform* %this, %class.NaclPlatform** %1, align 4
  call void @llvm.dbg.declare(metadata !{%class.NaclPlatform** %1}, metadata !11096), !dbg !11097
  store i8* %text, i8** %2, align 4
  call void @llvm.dbg.declare(metadata !{i8** %2}, metadata !11098), !dbg !11099
  store float %x, float* %3, align 4
  call void @llvm.dbg.declare(metadata !{float* %3}, metadata !11100), !dbg !11101
  store float %y, float* %4, align 4
  call void @llvm.dbg.declare(metadata !{float* %4}, metadata !11102), !dbg !11103
  %9 = load %class.NaclPlatform** %1
  call void @llvm.dbg.declare(metadata !{%"class.std::basic_stringstream"* %stream}, metadata !11104), !dbg !11106
  %10 = call i32 @_ZStorSt13_Ios_OpenmodeS_(i32 16, i32 8), !dbg !11107
  call void @_ZNSt18basic_stringstreamIcSt11char_traitsIcESaIcEEC1ESt13_Ios_Openmode(%"class.std::basic_stringstream"* %stream, i32 %10), !dbg !11107
  %11 = bitcast %"class.std::basic_stringstream"* %stream to i8*, !dbg !11108
  %12 = getelementptr i8* %11, i32 8, !dbg !11108
  %13 = bitcast i8* %12 to %"class.std::basic_ostream"*, !dbg !11108
  %14 = invoke %"class.std::basic_ostream"* @_ZStlsISt11char_traitsIcEERSt13basic_ostreamIcT_ES5_PKc(%"class.std::basic_ostream"* %13, i8* getelementptr inbounds ([9 x i8]* @.str4, i32 0, i32 0))
          to label %15 unwind label %40, !dbg !11108

; <label>:15                                      ; preds = %0
  %16 = load i8** @sep, align 4, !dbg !11108
  %17 = invoke %"class.std::basic_ostream"* @_ZStlsISt11char_traitsIcEERSt13basic_ostreamIcT_ES5_PKc(%"class.std::basic_ostream"* %14, i8* %16)
          to label %18 unwind label %40, !dbg !11108

; <label>:18                                      ; preds = %15
  %19 = load i8** %2, align 4, !dbg !11108
  %20 = invoke %"class.std::basic_ostream"* @_ZStlsISt11char_traitsIcEERSt13basic_ostreamIcT_ES5_PKc(%"class.std::basic_ostream"* %17, i8* %19)
          to label %21 unwind label %40, !dbg !11108

; <label>:21                                      ; preds = %18
  %22 = load i8** @sep, align 4, !dbg !11108
  %23 = invoke %"class.std::basic_ostream"* @_ZStlsISt11char_traitsIcEERSt13basic_ostreamIcT_ES5_PKc(%"class.std::basic_ostream"* %20, i8* %22)
          to label %24 unwind label %40, !dbg !11108

; <label>:24                                      ; preds = %21
  %25 = load float* %3, align 4, !dbg !11108
  %26 = invoke %"class.std::basic_ostream"* @_ZNSolsEf(%"class.std::basic_ostream"* %23, float %25)
          to label %27 unwind label %40, !dbg !11108

; <label>:27                                      ; preds = %24
  %28 = load i8** @sep, align 4, !dbg !11108
  %29 = invoke %"class.std::basic_ostream"* @_ZStlsISt11char_traitsIcEERSt13basic_ostreamIcT_ES5_PKc(%"class.std::basic_ostream"* %26, i8* %28)
          to label %30 unwind label %40, !dbg !11108

; <label>:30                                      ; preds = %27
  %31 = load float* %4, align 4, !dbg !11108
  %32 = invoke %"class.std::basic_ostream"* @_ZNSolsEf(%"class.std::basic_ostream"* %29, float %31)
          to label %33 unwind label %40, !dbg !11108

; <label>:33                                      ; preds = %30
  %34 = bitcast %class.NaclPlatform* %9 to %"class.pp::Instance"*, !dbg !11109
  invoke void @_ZNKSt18basic_stringstreamIcSt11char_traitsIcESaIcEE3strEv(%"class.std::basic_string"* sret %8, %"class.std::basic_stringstream"* %stream)
          to label %35 unwind label %40, !dbg !11110

; <label>:35                                      ; preds = %33
  invoke void @_ZN2pp3VarC1ERKSs(%"class.pp::Var"* %7, %"class.std::basic_string"* %8)
          to label %36 unwind label %44, !dbg !11110

; <label>:36                                      ; preds = %35
  invoke void @_ZN2pp8Instance11PostMessageERKNS_3VarE(%"class.pp::Instance"* %34, %"class.pp::Var"* %7)
          to label %37 unwind label %48, !dbg !11110

; <label>:37                                      ; preds = %36
  invoke void @_ZN2pp3VarD1Ev(%"class.pp::Var"* %7)
          to label %38 unwind label %44, !dbg !11110

; <label>:38                                      ; preds = %37
  invoke void @_ZNSsD1Ev(%"class.std::basic_string"* %8)
          to label %39 unwind label %40, !dbg !11110

; <label>:39                                      ; preds = %38
  call void @_ZNSt18basic_stringstreamIcSt11char_traitsIcESaIcEED1Ev(%"class.std::basic_stringstream"* %stream), !dbg !11111
  ret void, !dbg !11111

; <label>:40                                      ; preds = %38, %33, %30, %27, %24, %21, %18, %15, %0
  %41 = landingpad { i8*, i32 } personality i8* bitcast (i32 (...)* @__gxx_personality_v0 to i8*)
          cleanup, !dbg !11108
  %42 = extractvalue { i8*, i32 } %41, 0, !dbg !11108
  store i8* %42, i8** %5, !dbg !11108
  %43 = extractvalue { i8*, i32 } %41, 1, !dbg !11108
  store i32 %43, i32* %6, !dbg !11108
  br label %55, !dbg !11108

; <label>:44                                      ; preds = %37, %35
  %45 = landingpad { i8*, i32 } personality i8* bitcast (i32 (...)* @__gxx_personality_v0 to i8*)
          cleanup, !dbg !11110
  %46 = extractvalue { i8*, i32 } %45, 0, !dbg !11110
  store i8* %46, i8** %5, !dbg !11110
  %47 = extractvalue { i8*, i32 } %45, 1, !dbg !11110
  store i32 %47, i32* %6, !dbg !11110
  br label %53, !dbg !11110

; <label>:48                                      ; preds = %36
  %49 = landingpad { i8*, i32 } personality i8* bitcast (i32 (...)* @__gxx_personality_v0 to i8*)
          cleanup, !dbg !11110
  %50 = extractvalue { i8*, i32 } %49, 0, !dbg !11110
  store i8* %50, i8** %5, !dbg !11110
  %51 = extractvalue { i8*, i32 } %49, 1, !dbg !11110
  store i32 %51, i32* %6, !dbg !11110
  invoke void @_ZN2pp3VarD1Ev(%"class.pp::Var"* %7)
          to label %52 unwind label %63, !dbg !11110

; <label>:52                                      ; preds = %48
  br label %53, !dbg !11110

; <label>:53                                      ; preds = %52, %44
  invoke void @_ZNSsD1Ev(%"class.std::basic_string"* %8)
          to label %54 unwind label %63, !dbg !11110

; <label>:54                                      ; preds = %53
  br label %55, !dbg !11110

; <label>:55                                      ; preds = %54, %40
  invoke void @_ZNSt18basic_stringstreamIcSt11char_traitsIcESaIcEED1Ev(%"class.std::basic_stringstream"* %stream)
          to label %56 unwind label %63, !dbg !11111

; <label>:56                                      ; preds = %55
  br label %57, !dbg !11111

; <label>:57                                      ; preds = %56
  %58 = load i8** %5, !dbg !11111
  %59 = load i8** %5, !dbg !11111
  %60 = load i32* %6, !dbg !11111
  %61 = insertvalue { i8*, i32 } undef, i8* %59, 0, !dbg !11111
  %62 = insertvalue { i8*, i32 } %61, i32 %60, 1, !dbg !11111
  resume { i8*, i32 } %62, !dbg !11111

; <label>:63                                      ; preds = %55, %53, %48
  %64 = landingpad { i8*, i32 } personality i8* bitcast (i32 (...)* @__gxx_personality_v0 to i8*)
          catch i8* null, !dbg !11110
  call void @_ZSt9terminatev() noreturn nounwind, !dbg !11110
  unreachable, !dbg !11110
}

define void @_ZThn32_N12NaclPlatform12drawTextImplEPKcff(%class.NaclPlatform* %this, i8* %text, float %x, float %y) {
  %1 = alloca %class.NaclPlatform*, align 4
  %2 = alloca i8*, align 4
  %3 = alloca float, align 4
  %4 = alloca float, align 4
  store %class.NaclPlatform* %this, %class.NaclPlatform** %1, align 4
  store i8* %text, i8** %2, align 4
  store float %x, float* %3, align 4
  store float %y, float* %4, align 4
  %5 = load %class.NaclPlatform** %1
  %6 = bitcast %class.NaclPlatform* %5 to i8*
  %7 = getelementptr inbounds i8* %6, i64 -32
  %8 = bitcast i8* %7 to %class.NaclPlatform*
  %9 = load i8** %2, align 4
  %10 = load float* %3, align 4
  %11 = load float* %4, align 4
  call void @_ZN12NaclPlatform12drawTextImplEPKcff(%class.NaclPlatform* %8, i8* %9, float %10, float %11)
  ret void
}

define void @_ZN12NaclPlatform13playSoundImplEN10FruitClick8Platform5SoundE(%class.NaclPlatform* %this, i32 %id) align 2 {
  %1 = alloca %class.NaclPlatform*, align 4
  %2 = alloca i32, align 4
  %stream = alloca %"class.std::basic_stringstream", align 4
  %3 = alloca i8*
  %4 = alloca i32
  %5 = alloca %"class.pp::Var", align 4
  %6 = alloca %"class.std::basic_string", align 4
  store %class.NaclPlatform* %this, %class.NaclPlatform** %1, align 4
  call void @llvm.dbg.declare(metadata !{%class.NaclPlatform** %1}, metadata !11112), !dbg !11113
  store i32 %id, i32* %2, align 4
  call void @llvm.dbg.declare(metadata !{i32* %2}, metadata !11114), !dbg !11115
  %7 = load %class.NaclPlatform** %1
  call void @llvm.dbg.declare(metadata !{%"class.std::basic_stringstream"* %stream}, metadata !11116), !dbg !11118
  %8 = call i32 @_ZStorSt13_Ios_OpenmodeS_(i32 16, i32 8), !dbg !11119
  call void @_ZNSt18basic_stringstreamIcSt11char_traitsIcESaIcEEC1ESt13_Ios_Openmode(%"class.std::basic_stringstream"* %stream, i32 %8), !dbg !11119
  %9 = bitcast %"class.std::basic_stringstream"* %stream to i8*, !dbg !11120
  %10 = getelementptr i8* %9, i32 8, !dbg !11120
  %11 = bitcast i8* %10 to %"class.std::basic_ostream"*, !dbg !11120
  %12 = invoke %"class.std::basic_ostream"* @_ZStlsISt11char_traitsIcEERSt13basic_ostreamIcT_ES5_PKc(%"class.std::basic_ostream"* %11, i8* getelementptr inbounds ([10 x i8]* @.str5, i32 0, i32 0))
          to label %13 unwind label %26, !dbg !11120

; <label>:13                                      ; preds = %0
  %14 = load i8** @sep, align 4, !dbg !11120
  %15 = invoke %"class.std::basic_ostream"* @_ZStlsISt11char_traitsIcEERSt13basic_ostreamIcT_ES5_PKc(%"class.std::basic_ostream"* %12, i8* %14)
          to label %16 unwind label %26, !dbg !11120

; <label>:16                                      ; preds = %13
  %17 = load i32* %2, align 4, !dbg !11120
  %18 = invoke %"class.std::basic_ostream"* @_ZNSolsEi(%"class.std::basic_ostream"* %15, i32 %17)
          to label %19 unwind label %26, !dbg !11120

; <label>:19                                      ; preds = %16
  %20 = bitcast %class.NaclPlatform* %7 to %"class.pp::Instance"*, !dbg !11121
  invoke void @_ZNKSt18basic_stringstreamIcSt11char_traitsIcESaIcEE3strEv(%"class.std::basic_string"* sret %6, %"class.std::basic_stringstream"* %stream)
          to label %21 unwind label %26, !dbg !11122

; <label>:21                                      ; preds = %19
  invoke void @_ZN2pp3VarC1ERKSs(%"class.pp::Var"* %5, %"class.std::basic_string"* %6)
          to label %22 unwind label %30, !dbg !11122

; <label>:22                                      ; preds = %21
  invoke void @_ZN2pp8Instance11PostMessageERKNS_3VarE(%"class.pp::Instance"* %20, %"class.pp::Var"* %5)
          to label %23 unwind label %34, !dbg !11122

; <label>:23                                      ; preds = %22
  invoke void @_ZN2pp3VarD1Ev(%"class.pp::Var"* %5)
          to label %24 unwind label %30, !dbg !11122

; <label>:24                                      ; preds = %23
  invoke void @_ZNSsD1Ev(%"class.std::basic_string"* %6)
          to label %25 unwind label %26, !dbg !11122

; <label>:25                                      ; preds = %24
  call void @_ZNSt18basic_stringstreamIcSt11char_traitsIcESaIcEED1Ev(%"class.std::basic_stringstream"* %stream), !dbg !11123
  ret void, !dbg !11123

; <label>:26                                      ; preds = %24, %19, %16, %13, %0
  %27 = landingpad { i8*, i32 } personality i8* bitcast (i32 (...)* @__gxx_personality_v0 to i8*)
          cleanup, !dbg !11120
  %28 = extractvalue { i8*, i32 } %27, 0, !dbg !11120
  store i8* %28, i8** %3, !dbg !11120
  %29 = extractvalue { i8*, i32 } %27, 1, !dbg !11120
  store i32 %29, i32* %4, !dbg !11120
  br label %41, !dbg !11120

; <label>:30                                      ; preds = %23, %21
  %31 = landingpad { i8*, i32 } personality i8* bitcast (i32 (...)* @__gxx_personality_v0 to i8*)
          cleanup, !dbg !11122
  %32 = extractvalue { i8*, i32 } %31, 0, !dbg !11122
  store i8* %32, i8** %3, !dbg !11122
  %33 = extractvalue { i8*, i32 } %31, 1, !dbg !11122
  store i32 %33, i32* %4, !dbg !11122
  br label %39, !dbg !11122

; <label>:34                                      ; preds = %22
  %35 = landingpad { i8*, i32 } personality i8* bitcast (i32 (...)* @__gxx_personality_v0 to i8*)
          cleanup, !dbg !11122
  %36 = extractvalue { i8*, i32 } %35, 0, !dbg !11122
  store i8* %36, i8** %3, !dbg !11122
  %37 = extractvalue { i8*, i32 } %35, 1, !dbg !11122
  store i32 %37, i32* %4, !dbg !11122
  invoke void @_ZN2pp3VarD1Ev(%"class.pp::Var"* %5)
          to label %38 unwind label %49, !dbg !11122

; <label>:38                                      ; preds = %34
  br label %39, !dbg !11122

; <label>:39                                      ; preds = %38, %30
  invoke void @_ZNSsD1Ev(%"class.std::basic_string"* %6)
          to label %40 unwind label %49, !dbg !11122

; <label>:40                                      ; preds = %39
  br label %41, !dbg !11122

; <label>:41                                      ; preds = %40, %26
  invoke void @_ZNSt18basic_stringstreamIcSt11char_traitsIcESaIcEED1Ev(%"class.std::basic_stringstream"* %stream)
          to label %42 unwind label %49, !dbg !11123

; <label>:42                                      ; preds = %41
  br label %43, !dbg !11123

; <label>:43                                      ; preds = %42
  %44 = load i8** %3, !dbg !11123
  %45 = load i8** %3, !dbg !11123
  %46 = load i32* %4, !dbg !11123
  %47 = insertvalue { i8*, i32 } undef, i8* %45, 0, !dbg !11123
  %48 = insertvalue { i8*, i32 } %47, i32 %46, 1, !dbg !11123
  resume { i8*, i32 } %48, !dbg !11123

; <label>:49                                      ; preds = %41, %39, %34
  %50 = landingpad { i8*, i32 } personality i8* bitcast (i32 (...)* @__gxx_personality_v0 to i8*)
          catch i8* null, !dbg !11122
  call void @_ZSt9terminatev() noreturn nounwind, !dbg !11122
  unreachable, !dbg !11122
}

define void @_ZThn32_N12NaclPlatform13playSoundImplEN10FruitClick8Platform5SoundE(%class.NaclPlatform* %this, i32 %id) {
  %1 = alloca %class.NaclPlatform*, align 4
  %2 = alloca i32, align 4
  store %class.NaclPlatform* %this, %class.NaclPlatform** %1, align 4
  store i32 %id, i32* %2, align 4
  %3 = load %class.NaclPlatform** %1
  %4 = bitcast %class.NaclPlatform* %3 to i8*
  %5 = getelementptr inbounds i8* %4, i64 -32
  %6 = bitcast i8* %5 to %class.NaclPlatform*
  %7 = load i32* %2, align 4
  call void @_ZN12NaclPlatform13playSoundImplEN10FruitClick8Platform5SoundE(%class.NaclPlatform* %6, i32 %7)
  ret void
}

define void @_ZN12NaclPlatform7logImplEPKc(%class.NaclPlatform* %this, i8* %text) align 2 {
  %1 = alloca %class.NaclPlatform*, align 4
  %2 = alloca i8*, align 4
  %currTime = alloca i32, align 4
  %message = alloca %"class.std::basic_string", align 4
  %3 = alloca %"class.std::allocator.9", align 1
  %4 = alloca i8*
  %5 = alloca i32
  %stream = alloca %"class.std::basic_stringstream", align 4
  %6 = alloca %"class.pp::Var", align 4
  %7 = alloca %"class.std::basic_string", align 4
  store %class.NaclPlatform* %this, %class.NaclPlatform** %1, align 4
  call void @llvm.dbg.declare(metadata !{%class.NaclPlatform** %1}, metadata !11124), !dbg !11125
  store i8* %text, i8** %2, align 4
  call void @llvm.dbg.declare(metadata !{i8** %2}, metadata !11126), !dbg !11127
  %8 = load %class.NaclPlatform** %1
  call void @llvm.dbg.declare(metadata !{i32* %currTime}, metadata !11128), !dbg !11132
  %9 = call i32 @time(i32* null) nounwind, !dbg !11133
  store i32 %9, i32* %currTime, align 4, !dbg !11133
  call void @llvm.dbg.declare(metadata !{%"class.std::basic_string"* %message}, metadata !11134), !dbg !11135
  %10 = call i8* @ctime(i32* %currTime) nounwind, !dbg !11136
  call void @_ZNSaIcEC1Ev(%"class.std::allocator.9"* %3) nounwind, !dbg !11136
  invoke void @_ZNSsC1EPKcRKSaIcE(%"class.std::basic_string"* %message, i8* %10, %"class.std::allocator.9"* %3)
          to label %11 unwind label %37, !dbg !11136

; <label>:11                                      ; preds = %0
  call void @_ZNSaIcED1Ev(%"class.std::allocator.9"* %3) nounwind, !dbg !11136
  %12 = invoke %"class.std::basic_string"* @_ZNSspLEPKc(%"class.std::basic_string"* %message, i8* getelementptr inbounds ([3 x i8]* @.str6, i32 0, i32 0))
          to label %13 unwind label %41, !dbg !11137

; <label>:13                                      ; preds = %11
  %14 = load i8** %2, align 4, !dbg !11138
  %15 = invoke %"class.std::basic_string"* @_ZNSspLEPKc(%"class.std::basic_string"* %message, i8* %14)
          to label %16 unwind label %41, !dbg !11138

; <label>:16                                      ; preds = %13
  call void @llvm.dbg.declare(metadata !{%"class.std::basic_stringstream"* %stream}, metadata !11139), !dbg !11140
  %17 = invoke i32 @_ZStorSt13_Ios_OpenmodeS_(i32 16, i32 8)
          to label %18 unwind label %41, !dbg !11141

; <label>:18                                      ; preds = %16
  invoke void @_ZNSt18basic_stringstreamIcSt11char_traitsIcESaIcEEC1ESt13_Ios_Openmode(%"class.std::basic_stringstream"* %stream, i32 %17)
          to label %19 unwind label %41, !dbg !11141

; <label>:19                                      ; preds = %18
  %20 = bitcast %"class.std::basic_stringstream"* %stream to i8*, !dbg !11142
  %21 = getelementptr i8* %20, i32 8, !dbg !11142
  %22 = bitcast i8* %21 to %"class.std::basic_ostream"*, !dbg !11142
  %23 = invoke %"class.std::basic_ostream"* @_ZStlsISt11char_traitsIcEERSt13basic_ostreamIcT_ES5_PKc(%"class.std::basic_ostream"* %22, i8* getelementptr inbounds ([4 x i8]* @.str7, i32 0, i32 0))
          to label %24 unwind label %45, !dbg !11142

; <label>:24                                      ; preds = %19
  %25 = load i8** @sep, align 4, !dbg !11142
  %26 = invoke %"class.std::basic_ostream"* @_ZStlsISt11char_traitsIcEERSt13basic_ostreamIcT_ES5_PKc(%"class.std::basic_ostream"* %23, i8* %25)
          to label %27 unwind label %45, !dbg !11142

; <label>:27                                      ; preds = %24
  %28 = invoke %"class.std::basic_ostream"* @_ZStlsIcSt11char_traitsIcESaIcEERSt13basic_ostreamIT_T0_ES7_RKSbIS4_S5_T1_E(%"class.std::basic_ostream"* %26, %"class.std::basic_string"* %message)
          to label %29 unwind label %45, !dbg !11142

; <label>:29                                      ; preds = %27
  %30 = bitcast %class.NaclPlatform* %8 to %"class.pp::Instance"*, !dbg !11143
  invoke void @_ZNKSt18basic_stringstreamIcSt11char_traitsIcESaIcEE3strEv(%"class.std::basic_string"* sret %7, %"class.std::basic_stringstream"* %stream)
          to label %31 unwind label %45, !dbg !11144

; <label>:31                                      ; preds = %29
  invoke void @_ZN2pp3VarC1ERKSs(%"class.pp::Var"* %6, %"class.std::basic_string"* %7)
          to label %32 unwind label %49, !dbg !11144

; <label>:32                                      ; preds = %31
  invoke void @_ZN2pp8Instance11PostMessageERKNS_3VarE(%"class.pp::Instance"* %30, %"class.pp::Var"* %6)
          to label %33 unwind label %53, !dbg !11144

; <label>:33                                      ; preds = %32
  invoke void @_ZN2pp3VarD1Ev(%"class.pp::Var"* %6)
          to label %34 unwind label %49, !dbg !11144

; <label>:34                                      ; preds = %33
  invoke void @_ZNSsD1Ev(%"class.std::basic_string"* %7)
          to label %35 unwind label %45, !dbg !11144

; <label>:35                                      ; preds = %34
  invoke void @_ZNSt18basic_stringstreamIcSt11char_traitsIcESaIcEED1Ev(%"class.std::basic_stringstream"* %stream)
          to label %36 unwind label %41, !dbg !11145

; <label>:36                                      ; preds = %35
  call void @_ZNSsD1Ev(%"class.std::basic_string"* %message), !dbg !11145
  ret void, !dbg !11145

; <label>:37                                      ; preds = %0
  %38 = landingpad { i8*, i32 } personality i8* bitcast (i32 (...)* @__gxx_personality_v0 to i8*)
          cleanup, !dbg !11136
  %39 = extractvalue { i8*, i32 } %38, 0, !dbg !11136
  store i8* %39, i8** %4, !dbg !11136
  %40 = extractvalue { i8*, i32 } %38, 1, !dbg !11136
  store i32 %40, i32* %5, !dbg !11136
  call void @_ZNSaIcED1Ev(%"class.std::allocator.9"* %3) nounwind, !dbg !11136
  br label %64, !dbg !11136

; <label>:41                                      ; preds = %35, %18, %16, %13, %11
  %42 = landingpad { i8*, i32 } personality i8* bitcast (i32 (...)* @__gxx_personality_v0 to i8*)
          cleanup, !dbg !11137
  %43 = extractvalue { i8*, i32 } %42, 0, !dbg !11137
  store i8* %43, i8** %4, !dbg !11137
  %44 = extractvalue { i8*, i32 } %42, 1, !dbg !11137
  store i32 %44, i32* %5, !dbg !11137
  br label %62, !dbg !11137

; <label>:45                                      ; preds = %34, %29, %27, %24, %19
  %46 = landingpad { i8*, i32 } personality i8* bitcast (i32 (...)* @__gxx_personality_v0 to i8*)
          cleanup, !dbg !11142
  %47 = extractvalue { i8*, i32 } %46, 0, !dbg !11142
  store i8* %47, i8** %4, !dbg !11142
  %48 = extractvalue { i8*, i32 } %46, 1, !dbg !11142
  store i32 %48, i32* %5, !dbg !11142
  br label %60, !dbg !11142

; <label>:49                                      ; preds = %33, %31
  %50 = landingpad { i8*, i32 } personality i8* bitcast (i32 (...)* @__gxx_personality_v0 to i8*)
          cleanup, !dbg !11144
  %51 = extractvalue { i8*, i32 } %50, 0, !dbg !11144
  store i8* %51, i8** %4, !dbg !11144
  %52 = extractvalue { i8*, i32 } %50, 1, !dbg !11144
  store i32 %52, i32* %5, !dbg !11144
  br label %58, !dbg !11144

; <label>:53                                      ; preds = %32
  %54 = landingpad { i8*, i32 } personality i8* bitcast (i32 (...)* @__gxx_personality_v0 to i8*)
          cleanup, !dbg !11144
  %55 = extractvalue { i8*, i32 } %54, 0, !dbg !11144
  store i8* %55, i8** %4, !dbg !11144
  %56 = extractvalue { i8*, i32 } %54, 1, !dbg !11144
  store i32 %56, i32* %5, !dbg !11144
  invoke void @_ZN2pp3VarD1Ev(%"class.pp::Var"* %6)
          to label %57 unwind label %70, !dbg !11144

; <label>:57                                      ; preds = %53
  br label %58, !dbg !11144

; <label>:58                                      ; preds = %57, %49
  invoke void @_ZNSsD1Ev(%"class.std::basic_string"* %7)
          to label %59 unwind label %70, !dbg !11144

; <label>:59                                      ; preds = %58
  br label %60, !dbg !11144

; <label>:60                                      ; preds = %59, %45
  invoke void @_ZNSt18basic_stringstreamIcSt11char_traitsIcESaIcEED1Ev(%"class.std::basic_stringstream"* %stream)
          to label %61 unwind label %70, !dbg !11145

; <label>:61                                      ; preds = %60
  br label %62, !dbg !11145

; <label>:62                                      ; preds = %61, %41
  invoke void @_ZNSsD1Ev(%"class.std::basic_string"* %message)
          to label %63 unwind label %70, !dbg !11145

; <label>:63                                      ; preds = %62
  br label %64, !dbg !11145

; <label>:64                                      ; preds = %63, %37
  %65 = load i8** %4, !dbg !11136
  %66 = load i8** %4, !dbg !11136
  %67 = load i32* %5, !dbg !11136
  %68 = insertvalue { i8*, i32 } undef, i8* %66, 0, !dbg !11136
  %69 = insertvalue { i8*, i32 } %68, i32 %67, 1, !dbg !11136
  resume { i8*, i32 } %69, !dbg !11136

; <label>:70                                      ; preds = %62, %60, %58, %53
  %71 = landingpad { i8*, i32 } personality i8* bitcast (i32 (...)* @__gxx_personality_v0 to i8*)
          catch i8* null, !dbg !11144
  call void @_ZSt9terminatev() noreturn nounwind, !dbg !11144
  unreachable, !dbg !11144
}

declare i32 @time(i32*) nounwind

declare void @_ZNSsC1EPKcRKSaIcE(%"class.std::basic_string"*, i8*, %"class.std::allocator.9"*)

declare i8* @ctime(i32*) nounwind

declare void @_ZNSaIcEC1Ev(%"class.std::allocator.9"*) nounwind

declare void @_ZNSaIcED1Ev(%"class.std::allocator.9"*) nounwind

declare %"class.std::basic_string"* @_ZNSspLEPKc(%"class.std::basic_string"*, i8*)

declare %"class.std::basic_ostream"* @_ZStlsIcSt11char_traitsIcESaIcEERSt13basic_ostreamIT_T0_ES7_RKSbIS4_S5_T1_E(%"class.std::basic_ostream"*, %"class.std::basic_string"*)

define void @_ZThn32_N12NaclPlatform7logImplEPKc(%class.NaclPlatform* %this, i8* %text) {
  %1 = alloca %class.NaclPlatform*, align 4
  %2 = alloca i8*, align 4
  store %class.NaclPlatform* %this, %class.NaclPlatform** %1, align 4
  store i8* %text, i8** %2, align 4
  %3 = load %class.NaclPlatform** %1
  %4 = bitcast %class.NaclPlatform* %3 to i8*
  %5 = getelementptr inbounds i8* %4, i64 -32
  %6 = bitcast i8* %5 to %class.NaclPlatform*
  %7 = load i8** %2, align 4
  call void @_ZN12NaclPlatform7logImplEPKc(%class.NaclPlatform* %6, i8* %7)
  ret void
}

define %"class.pp::Instance"* @_ZN16FruitclickModule14CreateInstanceEi(%class.FruitclickModule* %this, i32 %instance) align 2 {
  %1 = alloca %class.FruitclickModule*, align 4
  %2 = alloca i32, align 4
  %3 = alloca i8*
  %4 = alloca i32
  store %class.FruitclickModule* %this, %class.FruitclickModule** %1, align 4
  call void @llvm.dbg.declare(metadata !{%class.FruitclickModule** %1}, metadata !11146), !dbg !11147
  store i32 %instance, i32* %2, align 4
  call void @llvm.dbg.declare(metadata !{i32* %2}, metadata !11148), !dbg !11149
  %5 = load %class.FruitclickModule** %1
  %6 = call noalias i8* @_Znwj(i32 103160), !dbg !11150
  %7 = bitcast i8* %6 to %class.NaclPlatform*, !dbg !11150
  %8 = load i32* %2, align 4, !dbg !11150
  invoke void @_ZN12NaclPlatformC1Ei(%class.NaclPlatform* %7, i32 %8)
          to label %9 unwind label %11, !dbg !11150

; <label>:9                                       ; preds = %0
  %10 = bitcast %class.NaclPlatform* %7 to %"class.pp::Instance"*, !dbg !11150
  ret %"class.pp::Instance"* %10, !dbg !11150

; <label>:11                                      ; preds = %0
  %12 = landingpad { i8*, i32 } personality i8* bitcast (i32 (...)* @__gxx_personality_v0 to i8*)
          cleanup, !dbg !11150
  %13 = extractvalue { i8*, i32 } %12, 0, !dbg !11150
  store i8* %13, i8** %3, !dbg !11150
  %14 = extractvalue { i8*, i32 } %12, 1, !dbg !11150
  store i32 %14, i32* %4, !dbg !11150
  call void @_ZdlPv(i8* %6) nounwind, !dbg !11150
  br label %15, !dbg !11150

; <label>:15                                      ; preds = %11
  %16 = load i8** %3, !dbg !11150
  %17 = load i8** %3, !dbg !11150
  %18 = load i32* %4, !dbg !11150
  %19 = insertvalue { i8*, i32 } undef, i8* %17, 0, !dbg !11150
  %20 = insertvalue { i8*, i32 } %19, i32 %18, 1, !dbg !11150
  resume { i8*, i32 } %20, !dbg !11150
}

declare noalias i8* @_Znwj(i32)

declare void @_ZdlPv(i8*) nounwind

define %"class.pp::Module"* @_ZN2pp12CreateModuleEv() {
  %1 = alloca i8*
  %2 = alloca i32
  %3 = call noalias i8* @_Znwj(i32 64), !dbg !11152
  %4 = bitcast i8* %3 to %class.FruitclickModule*, !dbg !11152
  %5 = bitcast %class.FruitclickModule* %4 to i8*, !dbg !11152
  call void @llvm.memset.p0i8.i32(i8* %5, i8 0, i32 64, i32 4, i1 false), !dbg !11152
  invoke void @_ZN16FruitclickModuleC1Ev(%class.FruitclickModule* %4)
          to label %6 unwind label %8, !dbg !11152

; <label>:6                                       ; preds = %0
  %7 = bitcast %class.FruitclickModule* %4 to %"class.pp::Module"*, !dbg !11152
  ret %"class.pp::Module"* %7, !dbg !11152

; <label>:8                                       ; preds = %0
  %9 = landingpad { i8*, i32 } personality i8* bitcast (i32 (...)* @__gxx_personality_v0 to i8*)
          cleanup, !dbg !11152
  %10 = extractvalue { i8*, i32 } %9, 0, !dbg !11152
  store i8* %10, i8** %1, !dbg !11152
  %11 = extractvalue { i8*, i32 } %9, 1, !dbg !11152
  store i32 %11, i32* %2, !dbg !11152
  call void @_ZdlPv(i8* %3) nounwind, !dbg !11152
  br label %12, !dbg !11152

; <label>:12                                      ; preds = %8
  %13 = load i8** %1, !dbg !11152
  %14 = load i8** %1, !dbg !11152
  %15 = load i32* %2, !dbg !11152
  %16 = insertvalue { i8*, i32 } undef, i8* %14, 0, !dbg !11152
  %17 = insertvalue { i8*, i32 } %16, i32 %15, 1, !dbg !11152
  resume { i8*, i32 } %17, !dbg !11152
}

declare void @llvm.memset.p0i8.i32(i8* nocapture, i8, i32, i32, i1) nounwind

define linkonce_odr void @_ZN16FruitclickModuleC1Ev(%class.FruitclickModule* %this) unnamed_addr inlinehint align 2 {
  %1 = alloca %class.FruitclickModule*, align 4
  store %class.FruitclickModule* %this, %class.FruitclickModule** %1, align 4
  call void @llvm.dbg.declare(metadata !{%class.FruitclickModule** %1}, metadata !11154), !dbg !11155
  %2 = load %class.FruitclickModule** %1
  call void @_ZN16FruitclickModuleC2Ev(%class.FruitclickModule* %2), !dbg !11155
  ret void, !dbg !11155
}

define linkonce_odr void @_ZN12NaclPlatformD1Ev(%class.NaclPlatform* %this) unnamed_addr inlinehint align 2 {
  %1 = alloca %class.NaclPlatform*, align 4
  store %class.NaclPlatform* %this, %class.NaclPlatform** %1, align 4
  call void @llvm.dbg.declare(metadata !{%class.NaclPlatform** %1}, metadata !11156), !dbg !11157
  %2 = load %class.NaclPlatform** %1
  call void @_ZN12NaclPlatformD2Ev(%class.NaclPlatform* %2), !dbg !11157
  ret void, !dbg !11157
}

define linkonce_odr void @_ZN12NaclPlatformD0Ev(%class.NaclPlatform* %this) unnamed_addr inlinehint align 2 {
  %1 = alloca %class.NaclPlatform*, align 4
  %2 = alloca i8*
  %3 = alloca i32
  store %class.NaclPlatform* %this, %class.NaclPlatform** %1, align 4
  call void @llvm.dbg.declare(metadata !{%class.NaclPlatform** %1}, metadata !11158), !dbg !11159
  %4 = load %class.NaclPlatform** %1
  invoke void @_ZN12NaclPlatformD1Ev(%class.NaclPlatform* %4)
          to label %5 unwind label %7, !dbg !11159

; <label>:5                                       ; preds = %0
  %6 = bitcast %class.NaclPlatform* %4 to i8*, !dbg !11159
  call void @_ZdlPv(i8* %6) nounwind, !dbg !11159
  ret void, !dbg !11159

; <label>:7                                       ; preds = %0
  %8 = landingpad { i8*, i32 } personality i8* bitcast (i32 (...)* @__gxx_personality_v0 to i8*)
          cleanup, !dbg !11159
  %9 = extractvalue { i8*, i32 } %8, 0, !dbg !11159
  store i8* %9, i8** %2, !dbg !11159
  %10 = extractvalue { i8*, i32 } %8, 1, !dbg !11159
  store i32 %10, i32* %3, !dbg !11159
  %11 = bitcast %class.NaclPlatform* %4 to i8*, !dbg !11159
  call void @_ZdlPv(i8* %11) nounwind, !dbg !11159
  br label %12, !dbg !11159

; <label>:12                                      ; preds = %7
  %13 = load i8** %2, !dbg !11159
  %14 = load i8** %2, !dbg !11159
  %15 = load i32* %3, !dbg !11159
  %16 = insertvalue { i8*, i32 } undef, i8* %14, 0, !dbg !11159
  %17 = insertvalue { i8*, i32 } %16, i32 %15, 1, !dbg !11159
  resume { i8*, i32 } %17, !dbg !11159
}

declare zeroext i1 @_ZN2pp8Instance4InitEjPPKcS3_(%"class.pp::Instance"*, i32, i8**, i8**)

declare void @_ZN2pp8Instance13DidChangeViewERKNS_4ViewE(%"class.pp::Instance"*, %"class.pp::View"*)

declare void @_ZN2pp8Instance13DidChangeViewERKNS_4RectES3_(%"class.pp::Instance"*, %"class.pp::Rect"*, %"class.pp::Rect"*)

declare void @_ZN2pp8Instance14DidChangeFocusEb(%"class.pp::Instance"*, i1 zeroext)

declare zeroext i1 @_ZN2pp8Instance16HandleInputEventERKNS_10InputEventE(%"class.pp::Instance"*, %"class.pp::InputEvent"*)

declare zeroext i1 @_ZN2pp8Instance18HandleDocumentLoadERKNS_9URLLoaderE(%"class.pp::Instance"*, %"class.pp::URLLoader"*)

define linkonce_odr void @_ZN10FruitClick8Platform13drawBeginImplEv(%"class.FruitClick::Platform"* %this) nounwind align 2 {
  %1 = alloca %"class.FruitClick::Platform"*, align 4
  store %"class.FruitClick::Platform"* %this, %"class.FruitClick::Platform"** %1, align 4
  call void @llvm.dbg.declare(metadata !{%"class.FruitClick::Platform"** %1}, metadata !11160), !dbg !11161
  %2 = load %"class.FruitClick::Platform"** %1
  ret void, !dbg !11162
}

define linkonce_odr void @_ZN10FruitClick8Platform11drawEndImplEv(%"class.FruitClick::Platform"* %this) nounwind align 2 {
  %1 = alloca %"class.FruitClick::Platform"*, align 4
  store %"class.FruitClick::Platform"* %this, %"class.FruitClick::Platform"** %1, align 4
  call void @llvm.dbg.declare(metadata !{%"class.FruitClick::Platform"** %1}, metadata !11164), !dbg !11165
  %2 = load %"class.FruitClick::Platform"** %1
  ret void, !dbg !11166
}

define linkonce_odr void @_ZN16FruitclickModuleD1Ev(%class.FruitclickModule* %this) unnamed_addr inlinehint align 2 {
  %1 = alloca %class.FruitclickModule*, align 4
  store %class.FruitclickModule* %this, %class.FruitclickModule** %1, align 4
  call void @llvm.dbg.declare(metadata !{%class.FruitclickModule** %1}, metadata !11168), !dbg !11169
  %2 = load %class.FruitclickModule** %1
  call void @_ZN16FruitclickModuleD2Ev(%class.FruitclickModule* %2), !dbg !11169
  ret void, !dbg !11169
}

define linkonce_odr void @_ZN16FruitclickModuleD0Ev(%class.FruitclickModule* %this) unnamed_addr inlinehint align 2 {
  %1 = alloca %class.FruitclickModule*, align 4
  %2 = alloca i8*
  %3 = alloca i32
  store %class.FruitclickModule* %this, %class.FruitclickModule** %1, align 4
  call void @llvm.dbg.declare(metadata !{%class.FruitclickModule** %1}, metadata !11170), !dbg !11171
  %4 = load %class.FruitclickModule** %1
  invoke void @_ZN16FruitclickModuleD1Ev(%class.FruitclickModule* %4)
          to label %5 unwind label %7, !dbg !11171

; <label>:5                                       ; preds = %0
  %6 = bitcast %class.FruitclickModule* %4 to i8*, !dbg !11171
  call void @_ZdlPv(i8* %6) nounwind, !dbg !11171
  ret void, !dbg !11171

; <label>:7                                       ; preds = %0
  %8 = landingpad { i8*, i32 } personality i8* bitcast (i32 (...)* @__gxx_personality_v0 to i8*)
          cleanup, !dbg !11171
  %9 = extractvalue { i8*, i32 } %8, 0, !dbg !11171
  store i8* %9, i8** %2, !dbg !11171
  %10 = extractvalue { i8*, i32 } %8, 1, !dbg !11171
  store i32 %10, i32* %3, !dbg !11171
  %11 = bitcast %class.FruitclickModule* %4 to i8*, !dbg !11171
  call void @_ZdlPv(i8* %11) nounwind, !dbg !11171
  br label %12, !dbg !11171

; <label>:12                                      ; preds = %7
  %13 = load i8** %2, !dbg !11171
  %14 = load i8** %2, !dbg !11171
  %15 = load i32* %3, !dbg !11171
  %16 = insertvalue { i8*, i32 } undef, i8* %14, 0, !dbg !11171
  %17 = insertvalue { i8*, i32 } %16, i32 %15, 1, !dbg !11171
  resume { i8*, i32 } %17, !dbg !11171
}

declare zeroext i1 @_ZN2pp6Module4InitEv(%"class.pp::Module"*)

declare i32 @_ZNKSs7compareEPKc(%"class.std::basic_string"*, i8*)

define linkonce_odr void @_ZN16FruitclickModuleD2Ev(%class.FruitclickModule* %this) unnamed_addr inlinehint align 2 {
  %1 = alloca %class.FruitclickModule*, align 4
  store %class.FruitclickModule* %this, %class.FruitclickModule** %1, align 4
  call void @llvm.dbg.declare(metadata !{%class.FruitclickModule** %1}, metadata !11172), !dbg !11173
  %2 = load %class.FruitclickModule** %1
  %3 = bitcast %class.FruitclickModule* %2 to %"class.pp::Module"*, !dbg !11174
  call void @_ZN2pp6ModuleD2Ev(%"class.pp::Module"* %3), !dbg !11174
  ret void, !dbg !11174
}

declare void @_ZN2pp6ModuleD2Ev(%"class.pp::Module"*)

define linkonce_odr void @_ZN12NaclPlatformD2Ev(%class.NaclPlatform* %this) unnamed_addr inlinehint align 2 {
  %1 = alloca %class.NaclPlatform*, align 4
  %2 = alloca i8*
  %3 = alloca i32
  store %class.NaclPlatform* %this, %class.NaclPlatform** %1, align 4
  call void @llvm.dbg.declare(metadata !{%class.NaclPlatform** %1}, metadata !11176), !dbg !11177
  %4 = load %class.NaclPlatform** %1
  %5 = bitcast %class.NaclPlatform* %4 to i8***, !dbg !11177
  store i8** getelementptr inbounds ([23 x i8*]* @_ZTV12NaclPlatform, i64 0, i64 2), i8*** %5, !dbg !11177
  %6 = bitcast %class.NaclPlatform* %4 to i8*, !dbg !11177
  %7 = getelementptr i8* %6, i32 32, !dbg !11177
  %8 = bitcast i8* %7 to i8***, !dbg !11177
  store i8** getelementptr inbounds ([23 x i8*]* @_ZTV12NaclPlatform, i64 0, i64 17), i8*** %8, !dbg !11177
  %9 = getelementptr inbounds %class.NaclPlatform* %4, i32 0, i32 2, !dbg !11178
  invoke void @_ZN10FruitClick11ApplicationD1Ev(%"class.FruitClick::Application"* %9)
          to label %10 unwind label %12, !dbg !11178

; <label>:10                                      ; preds = %0
  %11 = bitcast %class.NaclPlatform* %4 to %"class.pp::Instance"*, !dbg !11178
  call void @_ZN2pp8InstanceD2Ev(%"class.pp::Instance"* %11), !dbg !11178
  ret void, !dbg !11178

; <label>:12                                      ; preds = %0
  %13 = landingpad { i8*, i32 } personality i8* bitcast (i32 (...)* @__gxx_personality_v0 to i8*)
          cleanup, !dbg !11178
  %14 = extractvalue { i8*, i32 } %13, 0, !dbg !11178
  store i8* %14, i8** %2, !dbg !11178
  %15 = extractvalue { i8*, i32 } %13, 1, !dbg !11178
  store i32 %15, i32* %3, !dbg !11178
  %16 = bitcast %class.NaclPlatform* %4 to %"class.pp::Instance"*, !dbg !11178
  invoke void @_ZN2pp8InstanceD2Ev(%"class.pp::Instance"* %16)
          to label %17 unwind label %24, !dbg !11178

; <label>:17                                      ; preds = %12
  br label %18, !dbg !11178

; <label>:18                                      ; preds = %17
  %19 = load i8** %2, !dbg !11178
  %20 = load i8** %2, !dbg !11178
  %21 = load i32* %3, !dbg !11178
  %22 = insertvalue { i8*, i32 } undef, i8* %20, 0, !dbg !11178
  %23 = insertvalue { i8*, i32 } %22, i32 %21, 1, !dbg !11178
  resume { i8*, i32 } %23, !dbg !11178

; <label>:24                                      ; preds = %12
  %25 = landingpad { i8*, i32 } personality i8* bitcast (i32 (...)* @__gxx_personality_v0 to i8*)
          catch i8* null, !dbg !11178
  call void @_ZSt9terminatev() noreturn nounwind, !dbg !11178
  unreachable, !dbg !11178
}

define linkonce_odr void @_ZN16FruitclickModuleC2Ev(%class.FruitclickModule* %this) unnamed_addr inlinehint align 2 {
  %1 = alloca %class.FruitclickModule*, align 4
  store %class.FruitclickModule* %this, %class.FruitclickModule** %1, align 4
  call void @llvm.dbg.declare(metadata !{%class.FruitclickModule** %1}, metadata !11180), !dbg !11181
  %2 = load %class.FruitclickModule** %1
  %3 = bitcast %class.FruitclickModule* %2 to %"class.pp::Module"*, !dbg !11181
  call void @_ZN2pp6ModuleC2Ev(%"class.pp::Module"* %3), !dbg !11181
  %4 = bitcast %class.FruitclickModule* %2 to i8***, !dbg !11181
  store i8** getelementptr inbounds ([6 x i8*]* @_ZTV16FruitclickModule, i64 0, i64 2), i8*** %4, !dbg !11181
  ret void, !dbg !11182
}

declare void @_ZN2pp6ModuleC2Ev(%"class.pp::Module"*)

declare void @__cxa_pure_virtual()

!llvm.dbg.cu = !{!0}

!0 = metadata !{i32 720913, i32 0, i32 4, metadata !"nacl_platform.cpp", metadata !"/home/bxl/nacl-app/fruit-click-read-only/fruitclick-nacl", metadata !"clang version 3.0 (tags/RELEASE_30/final 167235)", i1 true, i1 false, metadata !"", i32 0, metadata !1, metadata !1883, metadata !1885, metadata !9645} ; [ DW_TAG_compile_unit ]
!1 = metadata !{metadata !2}
!2 = metadata !{metadata !3, metadata !9, metadata !14, metadata !27, metadata !32, metadata !68, metadata !120, metadata !126, metadata !452, metadata !466, metadata !472, metadata !526, metadata !549, metadata !556, metadata !565, metadata !571, metadata !14}
!3 = metadata !{i32 720900, metadata !4, metadata !"_Rb_tree_color", metadata !5, i32 88, i64 32, i64 32, i32 0, i32 0, i32 0, metadata !6, i32 0, i32 0} ; [ DW_TAG_enumeration_type ]
!4 = metadata !{i32 720953, null, metadata !"std", metadata !5, i32 68} ; [ DW_TAG_namespace ]
!5 = metadata !{i32 720937, metadata !"/usr/lib/gcc/i686-linux-gnu/4.6/../../../../include/c++/4.6/bits/stl_tree.h", metadata !"/home/bxl/nacl-app/fruit-click-read-only/fruitclick-nacl", null} ; [ DW_TAG_file_type ]
!6 = metadata !{metadata !7, metadata !8}
!7 = metadata !{i32 720936, metadata !"_S_red", i64 0} ; [ DW_TAG_enumerator ]
!8 = metadata !{i32 720936, metadata !"_S_black", i64 1} ; [ DW_TAG_enumerator ]
!9 = metadata !{i32 720900, metadata !10, metadata !"PassRef", metadata !11, i32 17, i64 32, i64 32, i32 0, i32 0, i32 0, metadata !12, i32 0, i32 0} ; [ DW_TAG_enumeration_type ]
!10 = metadata !{i32 720953, null, metadata !"pp", metadata !11, i32 11} ; [ DW_TAG_namespace ]
!11 = metadata !{i32 720937, metadata !"/home/bxl/ppapi-new/ppapi/cpp/pass_ref.h", metadata !"/home/bxl/nacl-app/fruit-click-read-only/fruitclick-nacl", null} ; [ DW_TAG_file_type ]
!12 = metadata !{metadata !13}
!13 = metadata !{i32 720936, metadata !"PASS_REF", i64 0} ; [ DW_TAG_enumerator ]
!14 = metadata !{i32 720900, null, metadata !"", metadata !15, i32 30, i64 32, i64 32, i32 0, i32 0, i32 0, metadata !16, i32 0, i32 0} ; [ DW_TAG_enumeration_type ]
!15 = metadata !{i32 720937, metadata !"/home/bxl/ppapi-new/ppapi/c/pp_var.h", metadata !"/home/bxl/nacl-app/fruit-click-read-only/fruitclick-nacl", null} ; [ DW_TAG_file_type ]
!16 = metadata !{metadata !17, metadata !18, metadata !19, metadata !20, metadata !21, metadata !22, metadata !23, metadata !24, metadata !25, metadata !26}
!17 = metadata !{i32 720936, metadata !"PP_VARTYPE_UNDEFINED", i64 0} ; [ DW_TAG_enumerator ]
!18 = metadata !{i32 720936, metadata !"PP_VARTYPE_NULL", i64 1} ; [ DW_TAG_enumerator ]
!19 = metadata !{i32 720936, metadata !"PP_VARTYPE_BOOL", i64 2} ; [ DW_TAG_enumerator ]
!20 = metadata !{i32 720936, metadata !"PP_VARTYPE_INT32", i64 3} ; [ DW_TAG_enumerator ]
!21 = metadata !{i32 720936, metadata !"PP_VARTYPE_DOUBLE", i64 4} ; [ DW_TAG_enumerator ]
!22 = metadata !{i32 720936, metadata !"PP_VARTYPE_STRING", i64 5} ; [ DW_TAG_enumerator ]
!23 = metadata !{i32 720936, metadata !"PP_VARTYPE_OBJECT", i64 6} ; [ DW_TAG_enumerator ]
!24 = metadata !{i32 720936, metadata !"PP_VARTYPE_ARRAY", i64 7} ; [ DW_TAG_enumerator ]
!25 = metadata !{i32 720936, metadata !"PP_VARTYPE_DICTIONARY", i64 8} ; [ DW_TAG_enumerator ]
!26 = metadata !{i32 720936, metadata !"PP_VARTYPE_ARRAY_BUFFER", i64 9} ; [ DW_TAG_enumerator ]
!27 = metadata !{i32 720900, null, metadata !"", metadata !28, i32 30, i64 32, i64 32, i32 0, i32 0, i32 0, metadata !29, i32 0, i32 0} ; [ DW_TAG_enumeration_type ]
!28 = metadata !{i32 720937, metadata !"/home/bxl/ppapi-new/ppapi/c/pp_bool.h", metadata !"/home/bxl/nacl-app/fruit-click-read-only/fruitclick-nacl", null} ; [ DW_TAG_file_type ]
!29 = metadata !{metadata !30, metadata !31}
!30 = metadata !{i32 720936, metadata !"PP_FALSE", i64 0} ; [ DW_TAG_enumerator ]
!31 = metadata !{i32 720936, metadata !"PP_TRUE", i64 1} ; [ DW_TAG_enumerator ]
!32 = metadata !{i32 720900, metadata !33, metadata !"Texture", metadata !35, i32 12, i64 32, i64 32, i32 0, i32 0, i32 0, metadata !117, i32 0, i32 0} ; [ DW_TAG_enumeration_type ]
!33 = metadata !{i32 720898, metadata !34, metadata !"Platform", metadata !35, i32 8, i64 32, i64 32, i32 0, i32 0, null, metadata !36, i32 0, metadata !33, null} ; [ DW_TAG_class_type ]
!34 = metadata !{i32 720953, null, metadata !"FruitClick", metadata !35, i32 6} ; [ DW_TAG_namespace ]
!35 = metadata !{i32 720937, metadata !"./platform.h", metadata !"/home/bxl/nacl-app/fruit-click-read-only/fruitclick-nacl", null} ; [ DW_TAG_file_type ]
!36 = metadata !{metadata !37, metadata !43, metadata !48, metadata !51, metadata !57, metadata !65, metadata !74, metadata !79, metadata !85, metadata !91, metadata !94, metadata !99, metadata !104, metadata !109, metadata !114}
!37 = metadata !{i32 720909, metadata !35, metadata !"_vptr$Platform", metadata !35, i32 0, i64 32, i64 0, i64 0, i32 0, metadata !38} ; [ DW_TAG_member ]
!38 = metadata !{i32 720911, null, metadata !"", null, i32 0, i64 32, i64 0, i64 0, i32 0, metadata !39} ; [ DW_TAG_pointer_type ]
!39 = metadata !{i32 720911, null, metadata !"__vtbl_ptr_type", null, i32 0, i64 32, i64 0, i64 0, i32 0, metadata !40} ; [ DW_TAG_pointer_type ]
!40 = metadata !{i32 720917, i32 0, metadata !"", i32 0, i32 0, i64 0, i64 0, i32 0, i32 0, i32 0, metadata !41, i32 0, i32 0} ; [ DW_TAG_subroutine_type ]
!41 = metadata !{metadata !42}
!42 = metadata !{i32 720932, null, metadata !"int", null, i32 0, i64 32, i64 32, i64 0, i32 0, i32 5} ; [ DW_TAG_base_type ]
!43 = metadata !{i32 720942, i32 0, metadata !33, metadata !"drawBegin", metadata !"drawBegin", metadata !"_ZN10FruitClick8Platform9drawBeginEv", metadata !35, i32 18, metadata !44, i1 false, i1 false, i32 0, i32 0, null, i32 256, i1 false, null, null, i32 0, metadata !46} ; [ DW_TAG_subprogram ]
!44 = metadata !{i32 720917, i32 0, metadata !"", i32 0, i32 0, i64 0, i64 0, i32 0, i32 0, i32 0, metadata !45, i32 0, i32 0} ; [ DW_TAG_subroutine_type ]
!45 = metadata !{null}
!46 = metadata !{metadata !47}
!47 = metadata !{i32 720932}                      ; [ DW_TAG_base_type ]
!48 = metadata !{i32 720942, i32 0, metadata !33, metadata !"drawEnd", metadata !"drawEnd", metadata !"_ZN10FruitClick8Platform7drawEndEv", metadata !35, i32 19, metadata !44, i1 false, i1 false, i32 0, i32 0, null, i32 256, i1 false, null, null, i32 0, metadata !49} ; [ DW_TAG_subprogram ]
!49 = metadata !{metadata !50}
!50 = metadata !{i32 720932}                      ; [ DW_TAG_base_type ]
!51 = metadata !{i32 720942, i32 0, metadata !33, metadata !"draw", metadata !"draw", metadata !"_ZN10FruitClick8Platform4drawENS0_7TextureEfff", metadata !35, i32 20, metadata !52, i1 false, i1 false, i32 0, i32 0, null, i32 256, i1 false, null, null, i32 0, metadata !55} ; [ DW_TAG_subprogram ]
!52 = metadata !{i32 720917, i32 0, metadata !"", i32 0, i32 0, i64 0, i64 0, i32 0, i32 0, i32 0, metadata !53, i32 0, i32 0} ; [ DW_TAG_subroutine_type ]
!53 = metadata !{null, metadata !32, metadata !54, metadata !54, metadata !54}
!54 = metadata !{i32 720932, null, metadata !"float", null, i32 0, i64 32, i64 32, i64 0, i32 0, i32 4} ; [ DW_TAG_base_type ]
!55 = metadata !{metadata !56}
!56 = metadata !{i32 720932}                      ; [ DW_TAG_base_type ]
!57 = metadata !{i32 720942, i32 0, metadata !33, metadata !"drawText", metadata !"drawText", metadata !"_ZN10FruitClick8Platform8drawTextEPKcff", metadata !35, i32 21, metadata !58, i1 false, i1 false, i32 0, i32 0, null, i32 256, i1 false, null, null, i32 0, metadata !63} ; [ DW_TAG_subprogram ]
!58 = metadata !{i32 720917, i32 0, metadata !"", i32 0, i32 0, i64 0, i64 0, i32 0, i32 0, i32 0, metadata !59, i32 0, i32 0} ; [ DW_TAG_subroutine_type ]
!59 = metadata !{null, metadata !60, metadata !54, metadata !54}
!60 = metadata !{i32 720911, null, metadata !"", null, i32 0, i64 32, i64 32, i64 0, i32 0, metadata !61} ; [ DW_TAG_pointer_type ]
!61 = metadata !{i32 720934, null, metadata !"", null, i32 0, i64 0, i64 0, i64 0, i32 0, metadata !62} ; [ DW_TAG_const_type ]
!62 = metadata !{i32 720932, null, metadata !"char", null, i32 0, i64 8, i64 8, i64 0, i32 0, i32 6} ; [ DW_TAG_base_type ]
!63 = metadata !{metadata !64}
!64 = metadata !{i32 720932}                      ; [ DW_TAG_base_type ]
!65 = metadata !{i32 720942, i32 0, metadata !33, metadata !"playSound", metadata !"playSound", metadata !"_ZN10FruitClick8Platform9playSoundENS0_5SoundE", metadata !35, i32 29, metadata !66, i1 false, i1 false, i32 0, i32 0, null, i32 256, i1 false, null, null, i32 0, metadata !72} ; [ DW_TAG_subprogram ]
!66 = metadata !{i32 720917, i32 0, metadata !"", i32 0, i32 0, i64 0, i64 0, i32 0, i32 0, i32 0, metadata !67, i32 0, i32 0} ; [ DW_TAG_subroutine_type ]
!67 = metadata !{null, metadata !68}
!68 = metadata !{i32 720900, metadata !33, metadata !"Sound", metadata !35, i32 23, i64 32, i64 32, i32 0, i32 0, i32 0, metadata !69, i32 0, i32 0} ; [ DW_TAG_enumeration_type ]
!69 = metadata !{metadata !70, metadata !71}
!70 = metadata !{i32 720936, metadata !"CRUNCH", i64 0} ; [ DW_TAG_enumerator ]
!71 = metadata !{i32 720936, metadata !"CRASH", i64 1} ; [ DW_TAG_enumerator ]
!72 = metadata !{metadata !73}
!73 = metadata !{i32 720932}                      ; [ DW_TAG_base_type ]
!74 = metadata !{i32 720942, i32 0, metadata !33, metadata !"log", metadata !"log", metadata !"_ZN10FruitClick8Platform3logEPKc", metadata !35, i32 30, metadata !75, i1 false, i1 false, i32 0, i32 0, null, i32 256, i1 false, null, null, i32 0, metadata !77} ; [ DW_TAG_subprogram ]
!75 = metadata !{i32 720917, i32 0, metadata !"", i32 0, i32 0, i64 0, i64 0, i32 0, i32 0, i32 0, metadata !76, i32 0, i32 0} ; [ DW_TAG_subroutine_type ]
!76 = metadata !{null, metadata !60}
!77 = metadata !{metadata !78}
!78 = metadata !{i32 720932}                      ; [ DW_TAG_base_type ]
!79 = metadata !{i32 720942, i32 0, metadata !33, metadata !"set", metadata !"set", metadata !"_ZN10FruitClick8Platform3setEPS0_", metadata !35, i32 33, metadata !80, i1 false, i1 false, i32 0, i32 0, null, i32 258, i1 false, null, null, i32 0, metadata !83} ; [ DW_TAG_subprogram ]
!80 = metadata !{i32 720917, i32 0, metadata !"", i32 0, i32 0, i64 0, i64 0, i32 0, i32 0, i32 0, metadata !81, i32 0, i32 0} ; [ DW_TAG_subroutine_type ]
!81 = metadata !{null, metadata !82}
!82 = metadata !{i32 720911, null, metadata !"", null, i32 0, i64 32, i64 32, i64 0, i32 0, metadata !33} ; [ DW_TAG_pointer_type ]
!83 = metadata !{metadata !84}
!84 = metadata !{i32 720932}                      ; [ DW_TAG_base_type ]
!85 = metadata !{i32 720942, i32 0, metadata !33, metadata !"drawBeginImpl", metadata !"drawBeginImpl", metadata !"_ZN10FruitClick8Platform13drawBeginImplEv", metadata !35, i32 36, metadata !86, i1 false, i1 false, i32 1, i32 0, metadata !33, i32 258, i1 false, null, null, i32 0, metadata !89} ; [ DW_TAG_subprogram ]
!86 = metadata !{i32 720917, i32 0, metadata !"", i32 0, i32 0, i64 0, i64 0, i32 0, i32 0, i32 0, metadata !87, i32 0, i32 0} ; [ DW_TAG_subroutine_type ]
!87 = metadata !{null, metadata !88}
!88 = metadata !{i32 720911, i32 0, metadata !"", i32 0, i32 0, i64 32, i64 32, i64 0, i32 64, metadata !33} ; [ DW_TAG_pointer_type ]
!89 = metadata !{metadata !90}
!90 = metadata !{i32 720932}                      ; [ DW_TAG_base_type ]
!91 = metadata !{i32 720942, i32 0, metadata !33, metadata !"drawEndImpl", metadata !"drawEndImpl", metadata !"_ZN10FruitClick8Platform11drawEndImplEv", metadata !35, i32 37, metadata !86, i1 false, i1 false, i32 1, i32 1, metadata !33, i32 258, i1 false, null, null, i32 0, metadata !92} ; [ DW_TAG_subprogram ]
!92 = metadata !{metadata !93}
!93 = metadata !{i32 720932}                      ; [ DW_TAG_base_type ]
!94 = metadata !{i32 720942, i32 0, metadata !33, metadata !"drawImpl", metadata !"drawImpl", metadata !"_ZN10FruitClick8Platform8drawImplENS0_7TextureEfff", metadata !35, i32 38, metadata !95, i1 false, i1 false, i32 2, i32 2, metadata !33, i32 258, i1 false, null, null, i32 0, metadata !97} ; [ DW_TAG_subprogram ]
!95 = metadata !{i32 720917, i32 0, metadata !"", i32 0, i32 0, i64 0, i64 0, i32 0, i32 0, i32 0, metadata !96, i32 0, i32 0} ; [ DW_TAG_subroutine_type ]
!96 = metadata !{null, metadata !88, metadata !32, metadata !54, metadata !54, metadata !54}
!97 = metadata !{metadata !98}
!98 = metadata !{i32 720932}                      ; [ DW_TAG_base_type ]
!99 = metadata !{i32 720942, i32 0, metadata !33, metadata !"drawTextImpl", metadata !"drawTextImpl", metadata !"_ZN10FruitClick8Platform12drawTextImplEPKcff", metadata !35, i32 39, metadata !100, i1 false, i1 false, i32 2, i32 3, metadata !33, i32 258, i1 false, null, null, i32 0, metadata !102} ; [ DW_TAG_subprogram ]
!100 = metadata !{i32 720917, i32 0, metadata !"", i32 0, i32 0, i64 0, i64 0, i32 0, i32 0, i32 0, metadata !101, i32 0, i32 0} ; [ DW_TAG_subroutine_type ]
!101 = metadata !{null, metadata !88, metadata !60, metadata !54, metadata !54}
!102 = metadata !{metadata !103}
!103 = metadata !{i32 720932}                     ; [ DW_TAG_base_type ]
!104 = metadata !{i32 720942, i32 0, metadata !33, metadata !"playSoundImpl", metadata !"playSoundImpl", metadata !"_ZN10FruitClick8Platform13playSoundImplENS0_5SoundE", metadata !35, i32 40, metadata !105, i1 false, i1 false, i32 2, i32 4, metadata !33, i32 258, i1 false, null, null, i32 0, metadata !107} ; [ DW_TAG_subprogram ]
!105 = metadata !{i32 720917, i32 0, metadata !"", i32 0, i32 0, i64 0, i64 0, i32 0, i32 0, i32 0, metadata !106, i32 0, i32 0} ; [ DW_TAG_subroutine_type ]
!106 = metadata !{null, metadata !88, metadata !68}
!107 = metadata !{metadata !108}
!108 = metadata !{i32 720932}                     ; [ DW_TAG_base_type ]
!109 = metadata !{i32 720942, i32 0, metadata !33, metadata !"logImpl", metadata !"logImpl", metadata !"_ZN10FruitClick8Platform7logImplEPKc", metadata !35, i32 41, metadata !110, i1 false, i1 false, i32 2, i32 5, metadata !33, i32 258, i1 false, null, null, i32 0, metadata !112} ; [ DW_TAG_subprogram ]
!110 = metadata !{i32 720917, i32 0, metadata !"", i32 0, i32 0, i64 0, i64 0, i32 0, i32 0, i32 0, metadata !111, i32 0, i32 0} ; [ DW_TAG_subroutine_type ]
!111 = metadata !{null, metadata !88, metadata !60}
!112 = metadata !{metadata !113}
!113 = metadata !{i32 720932}                     ; [ DW_TAG_base_type ]
!114 = metadata !{i32 720942, i32 0, metadata !33, metadata !"Platform", metadata !"Platform", metadata !"", metadata !35, i32 8, metadata !86, i1 false, i1 false, i32 0, i32 0, null, i32 320, i1 false, null, null, i32 0, metadata !115} ; [ DW_TAG_subprogram ]
!115 = metadata !{metadata !116}
!116 = metadata !{i32 720932}                     ; [ DW_TAG_base_type ]
!117 = metadata !{metadata !118, metadata !119}
!118 = metadata !{i32 720936, metadata !"APPLE", i64 0} ; [ DW_TAG_enumerator ]
!119 = metadata !{i32 720936, metadata !"BACKGROUND", i64 1} ; [ DW_TAG_enumerator ]
!120 = metadata !{i32 720900, null, metadata !"b2BodyType", metadata !121, i32 39, i64 32, i64 32, i32 0, i32 0, i32 0, metadata !122, i32 0, i32 0} ; [ DW_TAG_enumeration_type ]
!121 = metadata !{i32 720937, metadata !"./Box2D/Dynamics/b2Body.h", metadata !"/home/bxl/nacl-app/fruit-click-read-only/fruitclick-nacl", null} ; [ DW_TAG_file_type ]
!122 = metadata !{metadata !123, metadata !124, metadata !125}
!123 = metadata !{i32 720936, metadata !"b2_staticBody", i64 0} ; [ DW_TAG_enumerator ]
!124 = metadata !{i32 720936, metadata !"b2_kinematicBody", i64 1} ; [ DW_TAG_enumerator ]
!125 = metadata !{i32 720936, metadata !"b2_dynamicBody", i64 2} ; [ DW_TAG_enumerator ]
!126 = metadata !{i32 720900, metadata !127, metadata !"Type", metadata !128, i32 46, i64 32, i64 32, i32 0, i32 0, i32 0, metadata !446, i32 0, i32 0} ; [ DW_TAG_enumeration_type ]
!127 = metadata !{i32 720898, null, metadata !"b2Shape", metadata !128, i32 42, i64 96, i64 32, i32 0, i32 0, null, metadata !129, i32 0, metadata !127, null} ; [ DW_TAG_class_type ]
!128 = metadata !{i32 720937, metadata !"./Box2D/Collision/Shapes/b2Shape.h", metadata !"/home/bxl/nacl-app/fruit-click-read-only/fruitclick-nacl", null} ; [ DW_TAG_file_type ]
!129 = metadata !{metadata !130, metadata !131, metadata !132, metadata !135, metadata !141, metadata !186, metadata !191, metadata !196, metadata !363, metadata !381, metadata !432, metadata !443}
!130 = metadata !{i32 720909, metadata !128, metadata !"_vptr$b2Shape", metadata !128, i32 0, i64 32, i64 0, i64 0, i32 0, metadata !38} ; [ DW_TAG_member ]
!131 = metadata !{i32 720909, metadata !127, metadata !"m_type", metadata !128, i32 92, i64 32, i64 32, i64 32, i32 0, metadata !126} ; [ DW_TAG_member ]
!132 = metadata !{i32 720909, metadata !127, metadata !"m_radius", metadata !128, i32 93, i64 32, i64 32, i64 64, i32 0, metadata !133} ; [ DW_TAG_member ]
!133 = metadata !{i32 720918, null, metadata !"float32", metadata !134, i32 34, i64 0, i64 0, i64 0, i32 0, metadata !54} ; [ DW_TAG_typedef ]
!134 = metadata !{i32 720937, metadata !"./Box2D/Common/b2Math.h", metadata !"/home/bxl/nacl-app/fruit-click-read-only/fruitclick-nacl", null} ; [ DW_TAG_file_type ]
!135 = metadata !{i32 720942, i32 0, metadata !127, metadata !"~b2Shape", metadata !"~b2Shape", metadata !"", metadata !128, i32 55, metadata !136, i1 false, i1 false, i32 1, i32 0, metadata !127, i32 256, i1 false, null, null, i32 0, metadata !139} ; [ DW_TAG_subprogram ]
!136 = metadata !{i32 720917, i32 0, metadata !"", i32 0, i32 0, i64 0, i64 0, i32 0, i32 0, i32 0, metadata !137, i32 0, i32 0} ; [ DW_TAG_subroutine_type ]
!137 = metadata !{null, metadata !138}
!138 = metadata !{i32 720911, i32 0, metadata !"", i32 0, i32 0, i64 32, i64 32, i64 0, i32 64, metadata !127} ; [ DW_TAG_pointer_type ]
!139 = metadata !{metadata !140}
!140 = metadata !{i32 720932}                     ; [ DW_TAG_base_type ]
!141 = metadata !{i32 720942, i32 0, metadata !127, metadata !"Clone", metadata !"Clone", metadata !"_ZNK7b2Shape5CloneEP16b2BlockAllocator", metadata !128, i32 58, metadata !142, i1 false, i1 false, i32 2, i32 2, metadata !127, i32 256, i1 false, null, null, i32 0, metadata !184} ; [ DW_TAG_subprogram ]
!142 = metadata !{i32 720917, i32 0, metadata !"", i32 0, i32 0, i64 0, i64 0, i32 0, i32 0, i32 0, metadata !143, i32 0, i32 0} ; [ DW_TAG_subroutine_type ]
!143 = metadata !{metadata !138, metadata !144, metadata !146}
!144 = metadata !{i32 720911, i32 0, metadata !"", i32 0, i32 0, i64 32, i64 32, i64 0, i32 64, metadata !145} ; [ DW_TAG_pointer_type ]
!145 = metadata !{i32 720934, null, metadata !"", null, i32 0, i64 0, i64 0, i64 0, i32 0, metadata !127} ; [ DW_TAG_const_type ]
!146 = metadata !{i32 720911, i32 0, metadata !"", i32 0, i32 0, i64 32, i64 32, i64 0, i32 64, metadata !147} ; [ DW_TAG_pointer_type ]
!147 = metadata !{i32 720898, null, metadata !"b2BlockAllocator", metadata !148, i32 35, i64 544, i64 32, i32 0, i32 0, null, metadata !149, i32 0, null, null} ; [ DW_TAG_class_type ]
!148 = metadata !{i32 720937, metadata !"./Box2D/Common/b2BlockAllocator.h", metadata !"/home/bxl/nacl-app/fruit-click-read-only/fruitclick-nacl", null} ; [ DW_TAG_file_type ]
!149 = metadata !{metadata !150, metadata !153, metadata !155, metadata !156, metadata !162, metadata !167, metadata !170, metadata !176, metadata !181}
!150 = metadata !{i32 720909, metadata !147, metadata !"m_chunks", metadata !148, i32 51, i64 32, i64 32, i64 0, i32 1, metadata !151} ; [ DW_TAG_member ]
!151 = metadata !{i32 720911, null, metadata !"", null, i32 0, i64 32, i64 32, i64 0, i32 0, metadata !152} ; [ DW_TAG_pointer_type ]
!152 = metadata !{i32 720915, null, metadata !"b2Chunk", metadata !148, i32 30, i64 0, i64 0, i32 0, i32 4, i32 0, null, i32 0, i32 0} ; [ DW_TAG_structure_type ]
!153 = metadata !{i32 720909, metadata !147, metadata !"m_chunkCount", metadata !148, i32 52, i64 32, i64 32, i64 32, i32 1, metadata !154} ; [ DW_TAG_member ]
!154 = metadata !{i32 720918, null, metadata !"int32", metadata !121, i32 30, i64 0, i64 0, i64 0, i32 0, metadata !42} ; [ DW_TAG_typedef ]
!155 = metadata !{i32 720909, metadata !147, metadata !"m_chunkSpace", metadata !148, i32 53, i64 32, i64 32, i64 64, i32 1, metadata !154} ; [ DW_TAG_member ]
!156 = metadata !{i32 720909, metadata !147, metadata !"m_freeLists", metadata !148, i32 55, i64 448, i64 32, i64 96, i32 1, metadata !157} ; [ DW_TAG_member ]
!157 = metadata !{i32 720897, null, metadata !"", null, i32 0, i64 448, i64 32, i32 0, i32 0, metadata !158, metadata !160, i32 0, i32 0} ; [ DW_TAG_array_type ]
!158 = metadata !{i32 720911, null, metadata !"", null, i32 0, i64 32, i64 32, i64 0, i32 0, metadata !159} ; [ DW_TAG_pointer_type ]
!159 = metadata !{i32 720915, null, metadata !"b2Block", metadata !148, i32 29, i64 0, i64 0, i32 0, i32 4, i32 0, null, i32 0, i32 0} ; [ DW_TAG_structure_type ]
!160 = metadata !{metadata !161}
!161 = metadata !{i32 720929, i64 0, i64 13}      ; [ DW_TAG_subrange_type ]
!162 = metadata !{i32 720942, i32 0, metadata !147, metadata !"b2BlockAllocator", metadata !"b2BlockAllocator", metadata !"", metadata !148, i32 38, metadata !163, i1 false, i1 false, i32 0, i32 0, null, i32 256, i1 false, null, null, i32 0, metadata !165} ; [ DW_TAG_subprogram ]
!163 = metadata !{i32 720917, i32 0, metadata !"", i32 0, i32 0, i64 0, i64 0, i32 0, i32 0, i32 0, metadata !164, i32 0, i32 0} ; [ DW_TAG_subroutine_type ]
!164 = metadata !{null, metadata !146}
!165 = metadata !{metadata !166}
!166 = metadata !{i32 720932}                     ; [ DW_TAG_base_type ]
!167 = metadata !{i32 720942, i32 0, metadata !147, metadata !"~b2BlockAllocator", metadata !"~b2BlockAllocator", metadata !"", metadata !148, i32 39, metadata !163, i1 false, i1 false, i32 0, i32 0, null, i32 256, i1 false, null, null, i32 0, metadata !168} ; [ DW_TAG_subprogram ]
!168 = metadata !{metadata !169}
!169 = metadata !{i32 720932}                     ; [ DW_TAG_base_type ]
!170 = metadata !{i32 720942, i32 0, metadata !147, metadata !"Allocate", metadata !"Allocate", metadata !"_ZN16b2BlockAllocator8AllocateEi", metadata !148, i32 42, metadata !171, i1 false, i1 false, i32 0, i32 0, null, i32 256, i1 false, null, null, i32 0, metadata !174} ; [ DW_TAG_subprogram ]
!171 = metadata !{i32 720917, i32 0, metadata !"", i32 0, i32 0, i64 0, i64 0, i32 0, i32 0, i32 0, metadata !172, i32 0, i32 0} ; [ DW_TAG_subroutine_type ]
!172 = metadata !{metadata !173, metadata !146, metadata !154}
!173 = metadata !{i32 720911, null, metadata !"", null, i32 0, i64 32, i64 32, i64 0, i32 0, null} ; [ DW_TAG_pointer_type ]
!174 = metadata !{metadata !175}
!175 = metadata !{i32 720932}                     ; [ DW_TAG_base_type ]
!176 = metadata !{i32 720942, i32 0, metadata !147, metadata !"Free", metadata !"Free", metadata !"_ZN16b2BlockAllocator4FreeEPvi", metadata !148, i32 45, metadata !177, i1 false, i1 false, i32 0, i32 0, null, i32 256, i1 false, null, null, i32 0, metadata !179} ; [ DW_TAG_subprogram ]
!177 = metadata !{i32 720917, i32 0, metadata !"", i32 0, i32 0, i64 0, i64 0, i32 0, i32 0, i32 0, metadata !178, i32 0, i32 0} ; [ DW_TAG_subroutine_type ]
!178 = metadata !{null, metadata !146, metadata !173, metadata !154}
!179 = metadata !{metadata !180}
!180 = metadata !{i32 720932}                     ; [ DW_TAG_base_type ]
!181 = metadata !{i32 720942, i32 0, metadata !147, metadata !"Clear", metadata !"Clear", metadata !"_ZN16b2BlockAllocator5ClearEv", metadata !148, i32 47, metadata !163, i1 false, i1 false, i32 0, i32 0, null, i32 256, i1 false, null, null, i32 0, metadata !182} ; [ DW_TAG_subprogram ]
!182 = metadata !{metadata !183}
!183 = metadata !{i32 720932}                     ; [ DW_TAG_base_type ]
!184 = metadata !{metadata !185}
!185 = metadata !{i32 720932}                     ; [ DW_TAG_base_type ]
!186 = metadata !{i32 720942, i32 0, metadata !127, metadata !"GetType", metadata !"GetType", metadata !"_ZNK7b2Shape7GetTypeEv", metadata !128, i32 62, metadata !187, i1 false, i1 false, i32 0, i32 0, null, i32 256, i1 false, null, null, i32 0, metadata !189} ; [ DW_TAG_subprogram ]
!187 = metadata !{i32 720917, i32 0, metadata !"", i32 0, i32 0, i64 0, i64 0, i32 0, i32 0, i32 0, metadata !188, i32 0, i32 0} ; [ DW_TAG_subroutine_type ]
!188 = metadata !{metadata !126, metadata !144}
!189 = metadata !{metadata !190}
!190 = metadata !{i32 720932}                     ; [ DW_TAG_base_type ]
!191 = metadata !{i32 720942, i32 0, metadata !127, metadata !"GetChildCount", metadata !"GetChildCount", metadata !"_ZNK7b2Shape13GetChildCountEv", metadata !128, i32 65, metadata !192, i1 false, i1 false, i32 2, i32 3, metadata !127, i32 256, i1 false, null, null, i32 0, metadata !194} ; [ DW_TAG_subprogram ]
!192 = metadata !{i32 720917, i32 0, metadata !"", i32 0, i32 0, i64 0, i64 0, i32 0, i32 0, i32 0, metadata !193, i32 0, i32 0} ; [ DW_TAG_subroutine_type ]
!193 = metadata !{metadata !154, metadata !144}
!194 = metadata !{metadata !195}
!195 = metadata !{i32 720932}                     ; [ DW_TAG_base_type ]
!196 = metadata !{i32 720942, i32 0, metadata !127, metadata !"TestPoint", metadata !"TestPoint", metadata !"_ZNK7b2Shape9TestPointERK11b2TransformRK6b2Vec2", metadata !128, i32 70, metadata !197, i1 false, i1 false, i32 2, i32 4, metadata !127, i32 256, i1 false, null, null, i32 0, metadata !361} ; [ DW_TAG_subprogram ]
!197 = metadata !{i32 720917, i32 0, metadata !"", i32 0, i32 0, i64 0, i64 0, i32 0, i32 0, i32 0, metadata !198, i32 0, i32 0} ; [ DW_TAG_subroutine_type ]
!198 = metadata !{metadata !199, metadata !144, metadata !200, metadata !247}
!199 = metadata !{i32 720932, null, metadata !"bool", null, i32 0, i64 8, i64 8, i64 0, i32 0, i32 2} ; [ DW_TAG_base_type ]
!200 = metadata !{i32 720912, null, null, null, i32 0, i64 0, i64 0, i64 0, i32 0, metadata !201} ; [ DW_TAG_reference_type ]
!201 = metadata !{i32 720934, null, metadata !"", null, i32 0, i64 0, i64 0, i64 0, i32 0, metadata !202} ; [ DW_TAG_const_type ]
!202 = metadata !{i32 720898, null, metadata !"b2Transform", metadata !134, i32 361, i64 128, i64 32, i32 0, i32 0, null, metadata !203, i32 0, null, null} ; [ DW_TAG_class_type ]
!203 = metadata !{metadata !204, metadata !288, metadata !337, metadata !343, metadata !348, metadata !351, metadata !356}
!204 = metadata !{i32 720909, metadata !202, metadata !"p", metadata !134, i32 383, i64 64, i64 32, i64 0, i32 0, metadata !205} ; [ DW_TAG_member ]
!205 = metadata !{i32 720898, null, metadata !"b2Vec2", metadata !134, i32 64, i64 64, i64 32, i32 0, i32 0, null, metadata !206, i32 0, null, null} ; [ DW_TAG_class_type ]
!206 = metadata !{metadata !207, metadata !208, metadata !209, metadata !215, metadata !220, metadata !223, metadata !226, metadata !233, metadata !238, metadata !244, metadata !250, metadata !253, metadata !258, metadata !263, metadata !266, metadata !271, metadata !276, metadata !279, metadata !282}
!207 = metadata !{i32 720909, metadata !205, metadata !"x", metadata !134, i32 151, i64 32, i64 32, i64 0, i32 0, metadata !133} ; [ DW_TAG_member ]
!208 = metadata !{i32 720909, metadata !205, metadata !"y", metadata !134, i32 151, i64 32, i64 32, i64 32, i32 0, metadata !133} ; [ DW_TAG_member ]
!209 = metadata !{i32 720942, i32 0, metadata !205, metadata !"b2Vec2", metadata !"b2Vec2", metadata !"", metadata !134, i32 67, metadata !210, i1 false, i1 false, i32 0, i32 0, null, i32 256, i1 false, null, null, i32 0, metadata !213} ; [ DW_TAG_subprogram ]
!210 = metadata !{i32 720917, i32 0, metadata !"", i32 0, i32 0, i64 0, i64 0, i32 0, i32 0, i32 0, metadata !211, i32 0, i32 0} ; [ DW_TAG_subroutine_type ]
!211 = metadata !{null, metadata !212}
!212 = metadata !{i32 720911, i32 0, metadata !"", i32 0, i32 0, i64 32, i64 32, i64 0, i32 64, metadata !205} ; [ DW_TAG_pointer_type ]
!213 = metadata !{metadata !214}
!214 = metadata !{i32 720932}                     ; [ DW_TAG_base_type ]
!215 = metadata !{i32 720942, i32 0, metadata !205, metadata !"b2Vec2", metadata !"b2Vec2", metadata !"", metadata !134, i32 70, metadata !216, i1 false, i1 false, i32 0, i32 0, null, i32 256, i1 false, null, null, i32 0, metadata !218} ; [ DW_TAG_subprogram ]
!216 = metadata !{i32 720917, i32 0, metadata !"", i32 0, i32 0, i64 0, i64 0, i32 0, i32 0, i32 0, metadata !217, i32 0, i32 0} ; [ DW_TAG_subroutine_type ]
!217 = metadata !{null, metadata !212, metadata !133, metadata !133}
!218 = metadata !{metadata !219}
!219 = metadata !{i32 720932}                     ; [ DW_TAG_base_type ]
!220 = metadata !{i32 720942, i32 0, metadata !205, metadata !"SetZero", metadata !"SetZero", metadata !"_ZN6b2Vec27SetZeroEv", metadata !134, i32 73, metadata !210, i1 false, i1 false, i32 0, i32 0, null, i32 256, i1 false, null, null, i32 0, metadata !221} ; [ DW_TAG_subprogram ]
!221 = metadata !{metadata !222}
!222 = metadata !{i32 720932}                     ; [ DW_TAG_base_type ]
!223 = metadata !{i32 720942, i32 0, metadata !205, metadata !"Set", metadata !"Set", metadata !"_ZN6b2Vec23SetEff", metadata !134, i32 76, metadata !216, i1 false, i1 false, i32 0, i32 0, null, i32 256, i1 false, null, null, i32 0, metadata !224} ; [ DW_TAG_subprogram ]
!224 = metadata !{metadata !225}
!225 = metadata !{i32 720932}                     ; [ DW_TAG_base_type ]
!226 = metadata !{i32 720942, i32 0, metadata !205, metadata !"operator-", metadata !"operator-", metadata !"_ZNK6b2Vec2ngEv", metadata !134, i32 79, metadata !227, i1 false, i1 false, i32 0, i32 0, null, i32 256, i1 false, null, null, i32 0, metadata !231} ; [ DW_TAG_subprogram ]
!227 = metadata !{i32 720917, i32 0, metadata !"", i32 0, i32 0, i64 0, i64 0, i32 0, i32 0, i32 0, metadata !228, i32 0, i32 0} ; [ DW_TAG_subroutine_type ]
!228 = metadata !{metadata !205, metadata !229}
!229 = metadata !{i32 720911, i32 0, metadata !"", i32 0, i32 0, i64 32, i64 32, i64 0, i32 64, metadata !230} ; [ DW_TAG_pointer_type ]
!230 = metadata !{i32 720934, null, metadata !"", null, i32 0, i64 0, i64 0, i64 0, i32 0, metadata !205} ; [ DW_TAG_const_type ]
!231 = metadata !{metadata !232}
!232 = metadata !{i32 720932}                     ; [ DW_TAG_base_type ]
!233 = metadata !{i32 720942, i32 0, metadata !205, metadata !"operator()", metadata !"operator()", metadata !"_ZNK6b2Vec2clEi", metadata !134, i32 82, metadata !234, i1 false, i1 false, i32 0, i32 0, null, i32 256, i1 false, null, null, i32 0, metadata !236} ; [ DW_TAG_subprogram ]
!234 = metadata !{i32 720917, i32 0, metadata !"", i32 0, i32 0, i64 0, i64 0, i32 0, i32 0, i32 0, metadata !235, i32 0, i32 0} ; [ DW_TAG_subroutine_type ]
!235 = metadata !{metadata !133, metadata !229, metadata !154}
!236 = metadata !{metadata !237}
!237 = metadata !{i32 720932}                     ; [ DW_TAG_base_type ]
!238 = metadata !{i32 720942, i32 0, metadata !205, metadata !"operator()", metadata !"operator()", metadata !"_ZN6b2Vec2clEi", metadata !134, i32 88, metadata !239, i1 false, i1 false, i32 0, i32 0, null, i32 256, i1 false, null, null, i32 0, metadata !242} ; [ DW_TAG_subprogram ]
!239 = metadata !{i32 720917, i32 0, metadata !"", i32 0, i32 0, i64 0, i64 0, i32 0, i32 0, i32 0, metadata !240, i32 0, i32 0} ; [ DW_TAG_subroutine_type ]
!240 = metadata !{metadata !241, metadata !212, metadata !154}
!241 = metadata !{i32 720912, null, null, null, i32 0, i64 0, i64 0, i64 0, i32 0, metadata !133} ; [ DW_TAG_reference_type ]
!242 = metadata !{metadata !243}
!243 = metadata !{i32 720932}                     ; [ DW_TAG_base_type ]
!244 = metadata !{i32 720942, i32 0, metadata !205, metadata !"operator+=", metadata !"operator+=", metadata !"_ZN6b2Vec2pLERKS_", metadata !134, i32 94, metadata !245, i1 false, i1 false, i32 0, i32 0, null, i32 256, i1 false, null, null, i32 0, metadata !248} ; [ DW_TAG_subprogram ]
!245 = metadata !{i32 720917, i32 0, metadata !"", i32 0, i32 0, i64 0, i64 0, i32 0, i32 0, i32 0, metadata !246, i32 0, i32 0} ; [ DW_TAG_subroutine_type ]
!246 = metadata !{null, metadata !212, metadata !247}
!247 = metadata !{i32 720912, null, null, null, i32 0, i64 0, i64 0, i64 0, i32 0, metadata !230} ; [ DW_TAG_reference_type ]
!248 = metadata !{metadata !249}
!249 = metadata !{i32 720932}                     ; [ DW_TAG_base_type ]
!250 = metadata !{i32 720942, i32 0, metadata !205, metadata !"operator-=", metadata !"operator-=", metadata !"_ZN6b2Vec2mIERKS_", metadata !134, i32 100, metadata !245, i1 false, i1 false, i32 0, i32 0, null, i32 256, i1 false, null, null, i32 0, metadata !251} ; [ DW_TAG_subprogram ]
!251 = metadata !{metadata !252}
!252 = metadata !{i32 720932}                     ; [ DW_TAG_base_type ]
!253 = metadata !{i32 720942, i32 0, metadata !205, metadata !"operator*=", metadata !"operator*=", metadata !"_ZN6b2Vec2mLEf", metadata !134, i32 106, metadata !254, i1 false, i1 false, i32 0, i32 0, null, i32 256, i1 false, null, null, i32 0, metadata !256} ; [ DW_TAG_subprogram ]
!254 = metadata !{i32 720917, i32 0, metadata !"", i32 0, i32 0, i64 0, i64 0, i32 0, i32 0, i32 0, metadata !255, i32 0, i32 0} ; [ DW_TAG_subroutine_type ]
!255 = metadata !{null, metadata !212, metadata !133}
!256 = metadata !{metadata !257}
!257 = metadata !{i32 720932}                     ; [ DW_TAG_base_type ]
!258 = metadata !{i32 720942, i32 0, metadata !205, metadata !"Length", metadata !"Length", metadata !"_ZNK6b2Vec26LengthEv", metadata !134, i32 112, metadata !259, i1 false, i1 false, i32 0, i32 0, null, i32 256, i1 false, null, null, i32 0, metadata !261} ; [ DW_TAG_subprogram ]
!259 = metadata !{i32 720917, i32 0, metadata !"", i32 0, i32 0, i64 0, i64 0, i32 0, i32 0, i32 0, metadata !260, i32 0, i32 0} ; [ DW_TAG_subroutine_type ]
!260 = metadata !{metadata !133, metadata !229}
!261 = metadata !{metadata !262}
!262 = metadata !{i32 720932}                     ; [ DW_TAG_base_type ]
!263 = metadata !{i32 720942, i32 0, metadata !205, metadata !"LengthSquared", metadata !"LengthSquared", metadata !"_ZNK6b2Vec213LengthSquaredEv", metadata !134, i32 119, metadata !259, i1 false, i1 false, i32 0, i32 0, null, i32 256, i1 false, null, null, i32 0, metadata !264} ; [ DW_TAG_subprogram ]
!264 = metadata !{metadata !265}
!265 = metadata !{i32 720932}                     ; [ DW_TAG_base_type ]
!266 = metadata !{i32 720942, i32 0, metadata !205, metadata !"Normalize", metadata !"Normalize", metadata !"_ZN6b2Vec29NormalizeEv", metadata !134, i32 125, metadata !267, i1 false, i1 false, i32 0, i32 0, null, i32 256, i1 false, null, null, i32 0, metadata !269} ; [ DW_TAG_subprogram ]
!267 = metadata !{i32 720917, i32 0, metadata !"", i32 0, i32 0, i64 0, i64 0, i32 0, i32 0, i32 0, metadata !268, i32 0, i32 0} ; [ DW_TAG_subroutine_type ]
!268 = metadata !{metadata !133, metadata !212}
!269 = metadata !{metadata !270}
!270 = metadata !{i32 720932}                     ; [ DW_TAG_base_type ]
!271 = metadata !{i32 720942, i32 0, metadata !205, metadata !"IsValid", metadata !"IsValid", metadata !"_ZNK6b2Vec27IsValidEv", metadata !134, i32 140, metadata !272, i1 false, i1 false, i32 0, i32 0, null, i32 256, i1 false, null, null, i32 0, metadata !274} ; [ DW_TAG_subprogram ]
!272 = metadata !{i32 720917, i32 0, metadata !"", i32 0, i32 0, i64 0, i64 0, i32 0, i32 0, i32 0, metadata !273, i32 0, i32 0} ; [ DW_TAG_subroutine_type ]
!273 = metadata !{metadata !199, metadata !229}
!274 = metadata !{metadata !275}
!275 = metadata !{i32 720932}                     ; [ DW_TAG_base_type ]
!276 = metadata !{i32 720942, i32 0, metadata !205, metadata !"Skew", metadata !"Skew", metadata !"_ZNK6b2Vec24SkewEv", metadata !134, i32 146, metadata !227, i1 false, i1 false, i32 0, i32 0, null, i32 256, i1 false, null, null, i32 0, metadata !277} ; [ DW_TAG_subprogram ]
!277 = metadata !{metadata !278}
!278 = metadata !{i32 720932}                     ; [ DW_TAG_base_type ]
!279 = metadata !{i32 720942, i32 0, metadata !205, metadata !"b2Vec2", metadata !"b2Vec2", metadata !"", metadata !134, i32 64, metadata !245, i1 false, i1 false, i32 0, i32 0, null, i32 320, i1 false, null, null, i32 0, metadata !280} ; [ DW_TAG_subprogram ]
!280 = metadata !{metadata !281}
!281 = metadata !{i32 720932}                     ; [ DW_TAG_base_type ]
!282 = metadata !{i32 720942, i32 0, metadata !205, metadata !"operator=", metadata !"operator=", metadata !"_ZN6b2Vec2aSERKS_", metadata !134, i32 64, metadata !283, i1 false, i1 false, i32 0, i32 0, null, i32 320, i1 false, null, null, i32 0, metadata !286} ; [ DW_TAG_subprogram ]
!283 = metadata !{i32 720917, i32 0, metadata !"", i32 0, i32 0, i64 0, i64 0, i32 0, i32 0, i32 0, metadata !284, i32 0, i32 0} ; [ DW_TAG_subroutine_type ]
!284 = metadata !{metadata !285, metadata !212, metadata !247}
!285 = metadata !{i32 720912, null, null, null, i32 0, i64 0, i64 0, i64 0, i32 0, metadata !205} ; [ DW_TAG_reference_type ]
!286 = metadata !{metadata !287}
!287 = metadata !{i32 720932}                     ; [ DW_TAG_base_type ]
!288 = metadata !{i32 720909, metadata !202, metadata !"q", metadata !134, i32 384, i64 64, i64 32, i64 64, i32 0, metadata !289} ; [ DW_TAG_member ]
!289 = metadata !{i32 720898, null, metadata !"b2Rot", metadata !134, i32 310, i64 64, i64 32, i32 0, i32 0, null, metadata !290, i32 0, null, null} ; [ DW_TAG_class_type ]
!290 = metadata !{metadata !291, metadata !292, metadata !293, metadata !299, metadata !304, metadata !307, metadata !310, metadata !317, metadata !322, metadata !325, metadata !331}
!291 = metadata !{i32 720909, metadata !289, metadata !"s", metadata !134, i32 356, i64 32, i64 32, i64 0, i32 0, metadata !133} ; [ DW_TAG_member ]
!292 = metadata !{i32 720909, metadata !289, metadata !"c", metadata !134, i32 356, i64 32, i64 32, i64 32, i32 0, metadata !133} ; [ DW_TAG_member ]
!293 = metadata !{i32 720942, i32 0, metadata !289, metadata !"b2Rot", metadata !"b2Rot", metadata !"", metadata !134, i32 312, metadata !294, i1 false, i1 false, i32 0, i32 0, null, i32 256, i1 false, null, null, i32 0, metadata !297} ; [ DW_TAG_subprogram ]
!294 = metadata !{i32 720917, i32 0, metadata !"", i32 0, i32 0, i64 0, i64 0, i32 0, i32 0, i32 0, metadata !295, i32 0, i32 0} ; [ DW_TAG_subroutine_type ]
!295 = metadata !{null, metadata !296}
!296 = metadata !{i32 720911, i32 0, metadata !"", i32 0, i32 0, i64 32, i64 32, i64 0, i32 64, metadata !289} ; [ DW_TAG_pointer_type ]
!297 = metadata !{metadata !298}
!298 = metadata !{i32 720932}                     ; [ DW_TAG_base_type ]
!299 = metadata !{i32 720942, i32 0, metadata !289, metadata !"b2Rot", metadata !"b2Rot", metadata !"", metadata !134, i32 315, metadata !300, i1 false, i1 false, i32 0, i32 0, null, i32 384, i1 false, null, null, i32 0, metadata !302} ; [ DW_TAG_subprogram ]
!300 = metadata !{i32 720917, i32 0, metadata !"", i32 0, i32 0, i64 0, i64 0, i32 0, i32 0, i32 0, metadata !301, i32 0, i32 0} ; [ DW_TAG_subroutine_type ]
!301 = metadata !{null, metadata !296, metadata !133}
!302 = metadata !{metadata !303}
!303 = metadata !{i32 720932}                     ; [ DW_TAG_base_type ]
!304 = metadata !{i32 720942, i32 0, metadata !289, metadata !"Set", metadata !"Set", metadata !"_ZN5b2Rot3SetEf", metadata !134, i32 323, metadata !300, i1 false, i1 false, i32 0, i32 0, null, i32 256, i1 false, null, null, i32 0, metadata !305} ; [ DW_TAG_subprogram ]
!305 = metadata !{metadata !306}
!306 = metadata !{i32 720932}                     ; [ DW_TAG_base_type ]
!307 = metadata !{i32 720942, i32 0, metadata !289, metadata !"SetIdentity", metadata !"SetIdentity", metadata !"_ZN5b2Rot11SetIdentityEv", metadata !134, i32 331, metadata !294, i1 false, i1 false, i32 0, i32 0, null, i32 256, i1 false, null, null, i32 0, metadata !308} ; [ DW_TAG_subprogram ]
!308 = metadata !{metadata !309}
!309 = metadata !{i32 720932}                     ; [ DW_TAG_base_type ]
!310 = metadata !{i32 720942, i32 0, metadata !289, metadata !"GetAngle", metadata !"GetAngle", metadata !"_ZNK5b2Rot8GetAngleEv", metadata !134, i32 338, metadata !311, i1 false, i1 false, i32 0, i32 0, null, i32 256, i1 false, null, null, i32 0, metadata !315} ; [ DW_TAG_subprogram ]
!311 = metadata !{i32 720917, i32 0, metadata !"", i32 0, i32 0, i64 0, i64 0, i32 0, i32 0, i32 0, metadata !312, i32 0, i32 0} ; [ DW_TAG_subroutine_type ]
!312 = metadata !{metadata !133, metadata !313}
!313 = metadata !{i32 720911, i32 0, metadata !"", i32 0, i32 0, i64 32, i64 32, i64 0, i32 64, metadata !314} ; [ DW_TAG_pointer_type ]
!314 = metadata !{i32 720934, null, metadata !"", null, i32 0, i64 0, i64 0, i64 0, i32 0, metadata !289} ; [ DW_TAG_const_type ]
!315 = metadata !{metadata !316}
!316 = metadata !{i32 720932}                     ; [ DW_TAG_base_type ]
!317 = metadata !{i32 720942, i32 0, metadata !289, metadata !"GetXAxis", metadata !"GetXAxis", metadata !"_ZNK5b2Rot8GetXAxisEv", metadata !134, i32 344, metadata !318, i1 false, i1 false, i32 0, i32 0, null, i32 256, i1 false, null, null, i32 0, metadata !320} ; [ DW_TAG_subprogram ]
!318 = metadata !{i32 720917, i32 0, metadata !"", i32 0, i32 0, i64 0, i64 0, i32 0, i32 0, i32 0, metadata !319, i32 0, i32 0} ; [ DW_TAG_subroutine_type ]
!319 = metadata !{metadata !205, metadata !313}
!320 = metadata !{metadata !321}
!321 = metadata !{i32 720932}                     ; [ DW_TAG_base_type ]
!322 = metadata !{i32 720942, i32 0, metadata !289, metadata !"GetYAxis", metadata !"GetYAxis", metadata !"_ZNK5b2Rot8GetYAxisEv", metadata !134, i32 350, metadata !318, i1 false, i1 false, i32 0, i32 0, null, i32 256, i1 false, null, null, i32 0, metadata !323} ; [ DW_TAG_subprogram ]
!323 = metadata !{metadata !324}
!324 = metadata !{i32 720932}                     ; [ DW_TAG_base_type ]
!325 = metadata !{i32 720942, i32 0, metadata !289, metadata !"b2Rot", metadata !"b2Rot", metadata !"", metadata !134, i32 310, metadata !326, i1 false, i1 false, i32 0, i32 0, null, i32 320, i1 false, null, null, i32 0, metadata !329} ; [ DW_TAG_subprogram ]
!326 = metadata !{i32 720917, i32 0, metadata !"", i32 0, i32 0, i64 0, i64 0, i32 0, i32 0, i32 0, metadata !327, i32 0, i32 0} ; [ DW_TAG_subroutine_type ]
!327 = metadata !{null, metadata !296, metadata !328}
!328 = metadata !{i32 720912, null, null, null, i32 0, i64 0, i64 0, i64 0, i32 0, metadata !314} ; [ DW_TAG_reference_type ]
!329 = metadata !{metadata !330}
!330 = metadata !{i32 720932}                     ; [ DW_TAG_base_type ]
!331 = metadata !{i32 720942, i32 0, metadata !289, metadata !"operator=", metadata !"operator=", metadata !"_ZN5b2RotaSERKS_", metadata !134, i32 310, metadata !332, i1 false, i1 false, i32 0, i32 0, null, i32 320, i1 false, null, null, i32 0, metadata !335} ; [ DW_TAG_subprogram ]
!332 = metadata !{i32 720917, i32 0, metadata !"", i32 0, i32 0, i64 0, i64 0, i32 0, i32 0, i32 0, metadata !333, i32 0, i32 0} ; [ DW_TAG_subroutine_type ]
!333 = metadata !{metadata !334, metadata !296, metadata !328}
!334 = metadata !{i32 720912, null, null, null, i32 0, i64 0, i64 0, i64 0, i32 0, metadata !289} ; [ DW_TAG_reference_type ]
!335 = metadata !{metadata !336}
!336 = metadata !{i32 720932}                     ; [ DW_TAG_base_type ]
!337 = metadata !{i32 720942, i32 0, metadata !202, metadata !"b2Transform", metadata !"b2Transform", metadata !"", metadata !134, i32 364, metadata !338, i1 false, i1 false, i32 0, i32 0, null, i32 256, i1 false, null, null, i32 0, metadata !341} ; [ DW_TAG_subprogram ]
!338 = metadata !{i32 720917, i32 0, metadata !"", i32 0, i32 0, i64 0, i64 0, i32 0, i32 0, i32 0, metadata !339, i32 0, i32 0} ; [ DW_TAG_subroutine_type ]
!339 = metadata !{null, metadata !340}
!340 = metadata !{i32 720911, i32 0, metadata !"", i32 0, i32 0, i64 32, i64 32, i64 0, i32 64, metadata !202} ; [ DW_TAG_pointer_type ]
!341 = metadata !{metadata !342}
!342 = metadata !{i32 720932}                     ; [ DW_TAG_base_type ]
!343 = metadata !{i32 720942, i32 0, metadata !202, metadata !"b2Transform", metadata !"b2Transform", metadata !"", metadata !134, i32 367, metadata !344, i1 false, i1 false, i32 0, i32 0, null, i32 256, i1 false, null, null, i32 0, metadata !346} ; [ DW_TAG_subprogram ]
!344 = metadata !{i32 720917, i32 0, metadata !"", i32 0, i32 0, i64 0, i64 0, i32 0, i32 0, i32 0, metadata !345, i32 0, i32 0} ; [ DW_TAG_subroutine_type ]
!345 = metadata !{null, metadata !340, metadata !247, metadata !328}
!346 = metadata !{metadata !347}
!347 = metadata !{i32 720932}                     ; [ DW_TAG_base_type ]
!348 = metadata !{i32 720942, i32 0, metadata !202, metadata !"SetIdentity", metadata !"SetIdentity", metadata !"_ZN11b2Transform11SetIdentityEv", metadata !134, i32 370, metadata !338, i1 false, i1 false, i32 0, i32 0, null, i32 256, i1 false, null, null, i32 0, metadata !349} ; [ DW_TAG_subprogram ]
!349 = metadata !{metadata !350}
!350 = metadata !{i32 720932}                     ; [ DW_TAG_base_type ]
!351 = metadata !{i32 720942, i32 0, metadata !202, metadata !"Set", metadata !"Set", metadata !"_ZN11b2Transform3SetERK6b2Vec2f", metadata !134, i32 377, metadata !352, i1 false, i1 false, i32 0, i32 0, null, i32 256, i1 false, null, null, i32 0, metadata !354} ; [ DW_TAG_subprogram ]
!352 = metadata !{i32 720917, i32 0, metadata !"", i32 0, i32 0, i64 0, i64 0, i32 0, i32 0, i32 0, metadata !353, i32 0, i32 0} ; [ DW_TAG_subroutine_type ]
!353 = metadata !{null, metadata !340, metadata !247, metadata !133}
!354 = metadata !{metadata !355}
!355 = metadata !{i32 720932}                     ; [ DW_TAG_base_type ]
!356 = metadata !{i32 720942, i32 0, metadata !202, metadata !"b2Transform", metadata !"b2Transform", metadata !"", metadata !134, i32 361, metadata !357, i1 false, i1 false, i32 0, i32 0, null, i32 320, i1 false, null, null, i32 0, metadata !359} ; [ DW_TAG_subprogram ]
!357 = metadata !{i32 720917, i32 0, metadata !"", i32 0, i32 0, i64 0, i64 0, i32 0, i32 0, i32 0, metadata !358, i32 0, i32 0} ; [ DW_TAG_subroutine_type ]
!358 = metadata !{null, metadata !340, metadata !200}
!359 = metadata !{metadata !360}
!360 = metadata !{i32 720932}                     ; [ DW_TAG_base_type ]
!361 = metadata !{metadata !362}
!362 = metadata !{i32 720932}                     ; [ DW_TAG_base_type ]
!363 = metadata !{i32 720942, i32 0, metadata !127, metadata !"RayCast", metadata !"RayCast", metadata !"_ZNK7b2Shape7RayCastEP15b2RayCastOutputRK14b2RayCastInputRK11b2Transformi", metadata !128, i32 77, metadata !364, i1 false, i1 false, i32 2, i32 5, metadata !127, i32 256, i1 false, null, null, i32 0, metadata !379} ; [ DW_TAG_subprogram ]
!364 = metadata !{i32 720917, i32 0, metadata !"", i32 0, i32 0, i64 0, i64 0, i32 0, i32 0, i32 0, metadata !365, i32 0, i32 0} ; [ DW_TAG_subroutine_type ]
!365 = metadata !{metadata !199, metadata !144, metadata !366, metadata !372, metadata !200, metadata !154}
!366 = metadata !{i32 720911, null, metadata !"", null, i32 0, i64 32, i64 32, i64 0, i32 0, metadata !367} ; [ DW_TAG_pointer_type ]
!367 = metadata !{i32 720898, null, metadata !"b2RayCastOutput", metadata !368, i32 154, i64 96, i64 32, i32 0, i32 0, null, metadata !369, i32 0, null, null} ; [ DW_TAG_class_type ]
!368 = metadata !{i32 720937, metadata !"./Box2D/Collision/b2Collision.h", metadata !"/home/bxl/nacl-app/fruit-click-read-only/fruitclick-nacl", null} ; [ DW_TAG_file_type ]
!369 = metadata !{metadata !370, metadata !371}
!370 = metadata !{i32 720909, metadata !367, metadata !"normal", metadata !368, i32 156, i64 64, i64 32, i64 0, i32 0, metadata !205} ; [ DW_TAG_member ]
!371 = metadata !{i32 720909, metadata !367, metadata !"fraction", metadata !368, i32 157, i64 32, i64 32, i64 64, i32 0, metadata !133} ; [ DW_TAG_member ]
!372 = metadata !{i32 720912, null, null, null, i32 0, i64 0, i64 0, i64 0, i32 0, metadata !373} ; [ DW_TAG_reference_type ]
!373 = metadata !{i32 720934, null, metadata !"", null, i32 0, i64 0, i64 0, i64 0, i32 0, metadata !374} ; [ DW_TAG_const_type ]
!374 = metadata !{i32 720898, null, metadata !"b2RayCastInput", metadata !368, i32 146, i64 160, i64 32, i32 0, i32 0, null, metadata !375, i32 0, null, null} ; [ DW_TAG_class_type ]
!375 = metadata !{metadata !376, metadata !377, metadata !378}
!376 = metadata !{i32 720909, metadata !374, metadata !"p1", metadata !368, i32 148, i64 64, i64 32, i64 0, i32 0, metadata !205} ; [ DW_TAG_member ]
!377 = metadata !{i32 720909, metadata !374, metadata !"p2", metadata !368, i32 148, i64 64, i64 32, i64 64, i32 0, metadata !205} ; [ DW_TAG_member ]
!378 = metadata !{i32 720909, metadata !374, metadata !"maxFraction", metadata !368, i32 149, i64 32, i64 32, i64 128, i32 0, metadata !133} ; [ DW_TAG_member ]
!379 = metadata !{metadata !380}
!380 = metadata !{i32 720932}                     ; [ DW_TAG_base_type ]
!381 = metadata !{i32 720942, i32 0, metadata !127, metadata !"ComputeAABB", metadata !"ComputeAABB", metadata !"_ZNK7b2Shape11ComputeAABBEP6b2AABBRK11b2Transformi", metadata !128, i32 84, metadata !382, i1 false, i1 false, i32 2, i32 6, metadata !127, i32 256, i1 false, null, null, i32 0, metadata !430} ; [ DW_TAG_subprogram ]
!382 = metadata !{i32 720917, i32 0, metadata !"", i32 0, i32 0, i64 0, i64 0, i32 0, i32 0, i32 0, metadata !383, i32 0, i32 0} ; [ DW_TAG_subroutine_type ]
!383 = metadata !{null, metadata !144, metadata !384, metadata !200, metadata !154}
!384 = metadata !{i32 720911, i32 0, metadata !"", i32 0, i32 0, i64 32, i64 32, i64 0, i32 64, metadata !385} ; [ DW_TAG_pointer_type ]
!385 = metadata !{i32 720898, null, metadata !"b2AABB", metadata !368, i32 161, i64 128, i64 32, i32 0, i32 0, null, metadata !386, i32 0, null, null} ; [ DW_TAG_class_type ]
!386 = metadata !{metadata !387, metadata !388, metadata !389, metadata !396, metadata !401, metadata !404, metadata !409, metadata !415, metadata !420, metadata !425}
!387 = metadata !{i32 720909, metadata !385, metadata !"lowerBound", metadata !368, i32 213, i64 64, i64 32, i64 0, i32 0, metadata !205} ; [ DW_TAG_member ]
!388 = metadata !{i32 720909, metadata !385, metadata !"upperBound", metadata !368, i32 214, i64 64, i64 32, i64 64, i32 0, metadata !205} ; [ DW_TAG_member ]
!389 = metadata !{i32 720942, i32 0, metadata !385, metadata !"IsValid", metadata !"IsValid", metadata !"_ZNK6b2AABB7IsValidEv", metadata !368, i32 164, metadata !390, i1 false, i1 false, i32 0, i32 0, null, i32 256, i1 false, null, null, i32 0, metadata !394} ; [ DW_TAG_subprogram ]
!390 = metadata !{i32 720917, i32 0, metadata !"", i32 0, i32 0, i64 0, i64 0, i32 0, i32 0, i32 0, metadata !391, i32 0, i32 0} ; [ DW_TAG_subroutine_type ]
!391 = metadata !{metadata !199, metadata !392}
!392 = metadata !{i32 720911, i32 0, metadata !"", i32 0, i32 0, i64 32, i64 32, i64 0, i32 64, metadata !393} ; [ DW_TAG_pointer_type ]
!393 = metadata !{i32 720934, null, metadata !"", null, i32 0, i64 0, i64 0, i64 0, i32 0, metadata !385} ; [ DW_TAG_const_type ]
!394 = metadata !{metadata !395}
!395 = metadata !{i32 720932}                     ; [ DW_TAG_base_type ]
!396 = metadata !{i32 720942, i32 0, metadata !385, metadata !"GetCenter", metadata !"GetCenter", metadata !"_ZNK6b2AABB9GetCenterEv", metadata !368, i32 167, metadata !397, i1 false, i1 false, i32 0, i32 0, null, i32 256, i1 false, null, null, i32 0, metadata !399} ; [ DW_TAG_subprogram ]
!397 = metadata !{i32 720917, i32 0, metadata !"", i32 0, i32 0, i64 0, i64 0, i32 0, i32 0, i32 0, metadata !398, i32 0, i32 0} ; [ DW_TAG_subroutine_type ]
!398 = metadata !{metadata !205, metadata !392}
!399 = metadata !{metadata !400}
!400 = metadata !{i32 720932}                     ; [ DW_TAG_base_type ]
!401 = metadata !{i32 720942, i32 0, metadata !385, metadata !"GetExtents", metadata !"GetExtents", metadata !"_ZNK6b2AABB10GetExtentsEv", metadata !368, i32 173, metadata !397, i1 false, i1 false, i32 0, i32 0, null, i32 256, i1 false, null, null, i32 0, metadata !402} ; [ DW_TAG_subprogram ]
!402 = metadata !{metadata !403}
!403 = metadata !{i32 720932}                     ; [ DW_TAG_base_type ]
!404 = metadata !{i32 720942, i32 0, metadata !385, metadata !"GetPerimeter", metadata !"GetPerimeter", metadata !"_ZNK6b2AABB12GetPerimeterEv", metadata !368, i32 179, metadata !405, i1 false, i1 false, i32 0, i32 0, null, i32 256, i1 false, null, null, i32 0, metadata !407} ; [ DW_TAG_subprogram ]
!405 = metadata !{i32 720917, i32 0, metadata !"", i32 0, i32 0, i64 0, i64 0, i32 0, i32 0, i32 0, metadata !406, i32 0, i32 0} ; [ DW_TAG_subroutine_type ]
!406 = metadata !{metadata !133, metadata !392}
!407 = metadata !{metadata !408}
!408 = metadata !{i32 720932}                     ; [ DW_TAG_base_type ]
!409 = metadata !{i32 720942, i32 0, metadata !385, metadata !"Combine", metadata !"Combine", metadata !"_ZN6b2AABB7CombineERKS_", metadata !368, i32 187, metadata !410, i1 false, i1 false, i32 0, i32 0, null, i32 256, i1 false, null, null, i32 0, metadata !413} ; [ DW_TAG_subprogram ]
!410 = metadata !{i32 720917, i32 0, metadata !"", i32 0, i32 0, i64 0, i64 0, i32 0, i32 0, i32 0, metadata !411, i32 0, i32 0} ; [ DW_TAG_subroutine_type ]
!411 = metadata !{null, metadata !384, metadata !412}
!412 = metadata !{i32 720912, null, null, null, i32 0, i64 0, i64 0, i64 0, i32 0, metadata !393} ; [ DW_TAG_reference_type ]
!413 = metadata !{metadata !414}
!414 = metadata !{i32 720932}                     ; [ DW_TAG_base_type ]
!415 = metadata !{i32 720942, i32 0, metadata !385, metadata !"Combine", metadata !"Combine", metadata !"_ZN6b2AABB7CombineERKS_S1_", metadata !368, i32 194, metadata !416, i1 false, i1 false, i32 0, i32 0, null, i32 256, i1 false, null, null, i32 0, metadata !418} ; [ DW_TAG_subprogram ]
!416 = metadata !{i32 720917, i32 0, metadata !"", i32 0, i32 0, i64 0, i64 0, i32 0, i32 0, i32 0, metadata !417, i32 0, i32 0} ; [ DW_TAG_subroutine_type ]
!417 = metadata !{null, metadata !384, metadata !412, metadata !412}
!418 = metadata !{metadata !419}
!419 = metadata !{i32 720932}                     ; [ DW_TAG_base_type ]
!420 = metadata !{i32 720942, i32 0, metadata !385, metadata !"Contains", metadata !"Contains", metadata !"_ZNK6b2AABB8ContainsERKS_", metadata !368, i32 201, metadata !421, i1 false, i1 false, i32 0, i32 0, null, i32 256, i1 false, null, null, i32 0, metadata !423} ; [ DW_TAG_subprogram ]
!421 = metadata !{i32 720917, i32 0, metadata !"", i32 0, i32 0, i64 0, i64 0, i32 0, i32 0, i32 0, metadata !422, i32 0, i32 0} ; [ DW_TAG_subroutine_type ]
!422 = metadata !{metadata !199, metadata !392, metadata !412}
!423 = metadata !{metadata !424}
!424 = metadata !{i32 720932}                     ; [ DW_TAG_base_type ]
!425 = metadata !{i32 720942, i32 0, metadata !385, metadata !"RayCast", metadata !"RayCast", metadata !"_ZNK6b2AABB7RayCastEP15b2RayCastOutputRK14b2RayCastInput", metadata !368, i32 211, metadata !426, i1 false, i1 false, i32 0, i32 0, null, i32 256, i1 false, null, null, i32 0, metadata !428} ; [ DW_TAG_subprogram ]
!426 = metadata !{i32 720917, i32 0, metadata !"", i32 0, i32 0, i64 0, i64 0, i32 0, i32 0, i32 0, metadata !427, i32 0, i32 0} ; [ DW_TAG_subroutine_type ]
!427 = metadata !{metadata !199, metadata !392, metadata !366, metadata !372}
!428 = metadata !{metadata !429}
!429 = metadata !{i32 720932}                     ; [ DW_TAG_base_type ]
!430 = metadata !{metadata !431}
!431 = metadata !{i32 720932}                     ; [ DW_TAG_base_type ]
!432 = metadata !{i32 720942, i32 0, metadata !127, metadata !"ComputeMass", metadata !"ComputeMass", metadata !"_ZNK7b2Shape11ComputeMassEP10b2MassDataf", metadata !128, i32 90, metadata !433, i1 false, i1 false, i32 2, i32 7, metadata !127, i32 256, i1 false, null, null, i32 0, metadata !441} ; [ DW_TAG_subprogram ]
!433 = metadata !{i32 720917, i32 0, metadata !"", i32 0, i32 0, i64 0, i64 0, i32 0, i32 0, i32 0, metadata !434, i32 0, i32 0} ; [ DW_TAG_subroutine_type ]
!434 = metadata !{null, metadata !144, metadata !435, metadata !133}
!435 = metadata !{i32 720911, null, metadata !"", null, i32 0, i64 32, i64 32, i64 0, i32 0, metadata !436} ; [ DW_TAG_pointer_type ]
!436 = metadata !{i32 720898, null, metadata !"b2MassData", metadata !128, i32 27, i64 128, i64 32, i32 0, i32 0, null, metadata !437, i32 0, null, null} ; [ DW_TAG_class_type ]
!437 = metadata !{metadata !438, metadata !439, metadata !440}
!438 = metadata !{i32 720909, metadata !436, metadata !"mass", metadata !128, i32 30, i64 32, i64 32, i64 0, i32 0, metadata !133} ; [ DW_TAG_member ]
!439 = metadata !{i32 720909, metadata !436, metadata !"center", metadata !128, i32 33, i64 64, i64 32, i64 32, i32 0, metadata !205} ; [ DW_TAG_member ]
!440 = metadata !{i32 720909, metadata !436, metadata !"I", metadata !128, i32 36, i64 32, i64 32, i64 96, i32 0, metadata !133} ; [ DW_TAG_member ]
!441 = metadata !{metadata !442}
!442 = metadata !{i32 720932}                     ; [ DW_TAG_base_type ]
!443 = metadata !{i32 720942, i32 0, metadata !127, metadata !"b2Shape", metadata !"b2Shape", metadata !"", metadata !128, i32 42, metadata !136, i1 false, i1 false, i32 0, i32 0, null, i32 320, i1 false, null, null, i32 0, metadata !444} ; [ DW_TAG_subprogram ]
!444 = metadata !{metadata !445}
!445 = metadata !{i32 720932}                     ; [ DW_TAG_base_type ]
!446 = metadata !{metadata !447, metadata !448, metadata !449, metadata !450, metadata !451}
!447 = metadata !{i32 720936, metadata !"e_circle", i64 0} ; [ DW_TAG_enumerator ]
!448 = metadata !{i32 720936, metadata !"e_edge", i64 1} ; [ DW_TAG_enumerator ]
!449 = metadata !{i32 720936, metadata !"e_polygon", i64 2} ; [ DW_TAG_enumerator ]
!450 = metadata !{i32 720936, metadata !"e_chain", i64 3} ; [ DW_TAG_enumerator ]
!451 = metadata !{i32 720936, metadata !"e_typeCount", i64 4} ; [ DW_TAG_enumerator ]
!452 = metadata !{i32 720900, null, metadata !"b2JointType", metadata !453, i32 29, i64 32, i64 32, i32 0, i32 0, i32 0, metadata !454, i32 0, i32 0} ; [ DW_TAG_enumeration_type ]
!453 = metadata !{i32 720937, metadata !"./Box2D/Dynamics/Joints/b2Joint.h", metadata !"/home/bxl/nacl-app/fruit-click-read-only/fruitclick-nacl", null} ; [ DW_TAG_file_type ]
!454 = metadata !{metadata !455, metadata !456, metadata !457, metadata !458, metadata !459, metadata !460, metadata !461, metadata !462, metadata !463, metadata !464, metadata !465}
!455 = metadata !{i32 720936, metadata !"e_unknownJoint", i64 0} ; [ DW_TAG_enumerator ]
!456 = metadata !{i32 720936, metadata !"e_revoluteJoint", i64 1} ; [ DW_TAG_enumerator ]
!457 = metadata !{i32 720936, metadata !"e_prismaticJoint", i64 2} ; [ DW_TAG_enumerator ]
!458 = metadata !{i32 720936, metadata !"e_distanceJoint", i64 3} ; [ DW_TAG_enumerator ]
!459 = metadata !{i32 720936, metadata !"e_pulleyJoint", i64 4} ; [ DW_TAG_enumerator ]
!460 = metadata !{i32 720936, metadata !"e_mouseJoint", i64 5} ; [ DW_TAG_enumerator ]
!461 = metadata !{i32 720936, metadata !"e_gearJoint", i64 6} ; [ DW_TAG_enumerator ]
!462 = metadata !{i32 720936, metadata !"e_wheelJoint", i64 7} ; [ DW_TAG_enumerator ]
!463 = metadata !{i32 720936, metadata !"e_weldJoint", i64 8} ; [ DW_TAG_enumerator ]
!464 = metadata !{i32 720936, metadata !"e_frictionJoint", i64 9} ; [ DW_TAG_enumerator ]
!465 = metadata !{i32 720936, metadata !"e_ropeJoint", i64 10} ; [ DW_TAG_enumerator ]
!466 = metadata !{i32 720900, null, metadata !"b2LimitState", metadata !453, i32 44, i64 32, i64 32, i32 0, i32 0, i32 0, metadata !467, i32 0, i32 0} ; [ DW_TAG_enumeration_type ]
!467 = metadata !{metadata !468, metadata !469, metadata !470, metadata !471}
!468 = metadata !{i32 720936, metadata !"e_inactiveLimit", i64 0} ; [ DW_TAG_enumerator ]
!469 = metadata !{i32 720936, metadata !"e_atLowerLimit", i64 1} ; [ DW_TAG_enumerator ]
!470 = metadata !{i32 720936, metadata !"e_atUpperLimit", i64 2} ; [ DW_TAG_enumerator ]
!471 = metadata !{i32 720936, metadata !"e_equalLimits", i64 3} ; [ DW_TAG_enumerator ]
!472 = metadata !{i32 720900, metadata !473, metadata !"Type", metadata !368, i32 95, i64 32, i64 32, i32 0, i32 0, i32 0, metadata !522, i32 0, i32 0} ; [ DW_TAG_enumeration_type ]
!473 = metadata !{i32 720898, null, metadata !"b2Manifold", metadata !368, i32 93, i64 512, i64 32, i32 0, i32 0, null, metadata !474, i32 0, null, null} ; [ DW_TAG_class_type ]
!474 = metadata !{metadata !475, metadata !512, metadata !513, metadata !514, metadata !515, metadata !516}
!475 = metadata !{i32 720909, metadata !473, metadata !"points", metadata !368, i32 102, i64 320, i64 32, i64 0, i32 0, metadata !476} ; [ DW_TAG_member ]
!476 = metadata !{i32 720897, null, metadata !"", null, i32 0, i64 320, i64 32, i32 0, i32 0, metadata !477, metadata !510, i32 0, i32 0} ; [ DW_TAG_array_type ]
!477 = metadata !{i32 720898, null, metadata !"b2ManifoldPoint", metadata !368, i32 69, i64 160, i64 32, i32 0, i32 0, null, metadata !478, i32 0, null, null} ; [ DW_TAG_class_type ]
!478 = metadata !{metadata !479, metadata !480, metadata !481, metadata !482, metadata !504}
!479 = metadata !{i32 720909, metadata !477, metadata !"localPoint", metadata !368, i32 71, i64 64, i64 32, i64 0, i32 0, metadata !205} ; [ DW_TAG_member ]
!480 = metadata !{i32 720909, metadata !477, metadata !"normalImpulse", metadata !368, i32 72, i64 32, i64 32, i64 64, i32 0, metadata !133} ; [ DW_TAG_member ]
!481 = metadata !{i32 720909, metadata !477, metadata !"tangentImpulse", metadata !368, i32 73, i64 32, i64 32, i64 96, i32 0, metadata !133} ; [ DW_TAG_member ]
!482 = metadata !{i32 720909, metadata !477, metadata !"id", metadata !368, i32 74, i64 32, i64 32, i64 128, i32 0, metadata !483} ; [ DW_TAG_member ]
!483 = metadata !{i32 720919, null, metadata !"b2ContactID", metadata !368, i32 53, i64 32, i64 32, i64 0, i32 0, i32 0, metadata !484, i32 0, i32 0} ; [ DW_TAG_union_type ]
!484 = metadata !{metadata !485, metadata !494, metadata !498}
!485 = metadata !{i32 720909, metadata !483, metadata !"cf", metadata !368, i32 55, i64 32, i64 8, i64 0, i32 0, metadata !486} ; [ DW_TAG_member ]
!486 = metadata !{i32 720898, null, metadata !"b2ContactFeature", metadata !368, i32 38, i64 32, i64 8, i32 0, i32 0, null, metadata !487, i32 0, null, null} ; [ DW_TAG_class_type ]
!487 = metadata !{metadata !488, metadata !491, metadata !492, metadata !493}
!488 = metadata !{i32 720909, metadata !486, metadata !"indexA", metadata !368, i32 46, i64 8, i64 8, i64 0, i32 0, metadata !489} ; [ DW_TAG_member ]
!489 = metadata !{i32 720918, null, metadata !"uint8", metadata !368, i32 31, i64 0, i64 0, i64 0, i32 0, metadata !490} ; [ DW_TAG_typedef ]
!490 = metadata !{i32 720932, null, metadata !"unsigned char", null, i32 0, i64 8, i64 8, i64 0, i32 0, i32 8} ; [ DW_TAG_base_type ]
!491 = metadata !{i32 720909, metadata !486, metadata !"indexB", metadata !368, i32 47, i64 8, i64 8, i64 8, i32 0, metadata !489} ; [ DW_TAG_member ]
!492 = metadata !{i32 720909, metadata !486, metadata !"typeA", metadata !368, i32 48, i64 8, i64 8, i64 16, i32 0, metadata !489} ; [ DW_TAG_member ]
!493 = metadata !{i32 720909, metadata !486, metadata !"typeB", metadata !368, i32 49, i64 8, i64 8, i64 24, i32 0, metadata !489} ; [ DW_TAG_member ]
!494 = metadata !{i32 720909, metadata !483, metadata !"key", metadata !368, i32 56, i64 32, i64 32, i64 0, i32 0, metadata !495} ; [ DW_TAG_member ]
!495 = metadata !{i32 720918, null, metadata !"uint32", metadata !496, i32 33, i64 0, i64 0, i64 0, i32 0, metadata !497} ; [ DW_TAG_typedef ]
!496 = metadata !{i32 720937, metadata !"./Box2D/Dynamics/Contacts/b2Contact.h", metadata !"/home/bxl/nacl-app/fruit-click-read-only/fruitclick-nacl", null} ; [ DW_TAG_file_type ]
!497 = metadata !{i32 720932, null, metadata !"unsigned int", null, i32 0, i64 32, i64 32, i64 0, i32 0, i32 7} ; [ DW_TAG_base_type ]
!498 = metadata !{i32 720942, i32 0, metadata !483, metadata !"b2ContactID", metadata !"b2ContactID", metadata !"", metadata !368, i32 53, metadata !499, i1 false, i1 false, i32 0, i32 0, null, i32 320, i1 false, null, null, i32 0, metadata !502} ; [ DW_TAG_subprogram ]
!499 = metadata !{i32 720917, i32 0, metadata !"", i32 0, i32 0, i64 0, i64 0, i32 0, i32 0, i32 0, metadata !500, i32 0, i32 0} ; [ DW_TAG_subroutine_type ]
!500 = metadata !{null, metadata !501}
!501 = metadata !{i32 720911, i32 0, metadata !"", i32 0, i32 0, i64 32, i64 32, i64 0, i32 64, metadata !483} ; [ DW_TAG_pointer_type ]
!502 = metadata !{metadata !503}
!503 = metadata !{i32 720932}                     ; [ DW_TAG_base_type ]
!504 = metadata !{i32 720942, i32 0, metadata !477, metadata !"b2ManifoldPoint", metadata !"b2ManifoldPoint", metadata !"", metadata !368, i32 69, metadata !505, i1 false, i1 false, i32 0, i32 0, null, i32 320, i1 false, null, null, i32 0, metadata !508} ; [ DW_TAG_subprogram ]
!505 = metadata !{i32 720917, i32 0, metadata !"", i32 0, i32 0, i64 0, i64 0, i32 0, i32 0, i32 0, metadata !506, i32 0, i32 0} ; [ DW_TAG_subroutine_type ]
!506 = metadata !{null, metadata !507}
!507 = metadata !{i32 720911, i32 0, metadata !"", i32 0, i32 0, i64 32, i64 32, i64 0, i32 64, metadata !477} ; [ DW_TAG_pointer_type ]
!508 = metadata !{metadata !509}
!509 = metadata !{i32 720932}                     ; [ DW_TAG_base_type ]
!510 = metadata !{metadata !511}
!511 = metadata !{i32 720929, i64 0, i64 1}       ; [ DW_TAG_subrange_type ]
!512 = metadata !{i32 720909, metadata !473, metadata !"localNormal", metadata !368, i32 103, i64 64, i64 32, i64 320, i32 0, metadata !205} ; [ DW_TAG_member ]
!513 = metadata !{i32 720909, metadata !473, metadata !"localPoint", metadata !368, i32 104, i64 64, i64 32, i64 384, i32 0, metadata !205} ; [ DW_TAG_member ]
!514 = metadata !{i32 720909, metadata !473, metadata !"type", metadata !368, i32 105, i64 32, i64 32, i64 448, i32 0, metadata !472} ; [ DW_TAG_member ]
!515 = metadata !{i32 720909, metadata !473, metadata !"pointCount", metadata !368, i32 106, i64 32, i64 32, i64 480, i32 0, metadata !154} ; [ DW_TAG_member ]
!516 = metadata !{i32 720942, i32 0, metadata !473, metadata !"b2Manifold", metadata !"b2Manifold", metadata !"", metadata !368, i32 93, metadata !517, i1 false, i1 false, i32 0, i32 0, null, i32 320, i1 false, null, null, i32 0, metadata !520} ; [ DW_TAG_subprogram ]
!517 = metadata !{i32 720917, i32 0, metadata !"", i32 0, i32 0, i64 0, i64 0, i32 0, i32 0, i32 0, metadata !518, i32 0, i32 0} ; [ DW_TAG_subroutine_type ]
!518 = metadata !{null, metadata !519}
!519 = metadata !{i32 720911, i32 0, metadata !"", i32 0, i32 0, i64 32, i64 32, i64 0, i32 64, metadata !473} ; [ DW_TAG_pointer_type ]
!520 = metadata !{metadata !521}
!521 = metadata !{i32 720932}                     ; [ DW_TAG_base_type ]
!522 = metadata !{metadata !523, metadata !524, metadata !525}
!523 = metadata !{i32 720936, metadata !"e_circles", i64 0} ; [ DW_TAG_enumerator ]
!524 = metadata !{i32 720936, metadata !"e_faceA", i64 1} ; [ DW_TAG_enumerator ]
!525 = metadata !{i32 720936, metadata !"e_faceB", i64 2} ; [ DW_TAG_enumerator ]
!526 = metadata !{i32 720900, metadata !527, metadata !"_Ios_Fmtflags", metadata !528, i32 52, i64 32, i64 32, i32 0, i32 0, i32 0, metadata !529, i32 0, i32 0} ; [ DW_TAG_enumeration_type ]
!527 = metadata !{i32 720953, null, metadata !"std", metadata !528, i32 44} ; [ DW_TAG_namespace ]
!528 = metadata !{i32 720937, metadata !"/usr/lib/gcc/i686-linux-gnu/4.6/../../../../include/c++/4.6/bits/ios_base.h", metadata !"/home/bxl/nacl-app/fruit-click-read-only/fruitclick-nacl", null} ; [ DW_TAG_file_type ]
!529 = metadata !{metadata !530, metadata !531, metadata !532, metadata !533, metadata !534, metadata !535, metadata !536, metadata !537, metadata !538, metadata !539, metadata !540, metadata !541, metadata !542, metadata !543, metadata !544, metadata !545, metadata !546, metadata !547, metadata !548}
!530 = metadata !{i32 720936, metadata !"_S_boolalpha", i64 1} ; [ DW_TAG_enumerator ]
!531 = metadata !{i32 720936, metadata !"_S_dec", i64 2} ; [ DW_TAG_enumerator ]
!532 = metadata !{i32 720936, metadata !"_S_fixed", i64 4} ; [ DW_TAG_enumerator ]
!533 = metadata !{i32 720936, metadata !"_S_hex", i64 8} ; [ DW_TAG_enumerator ]
!534 = metadata !{i32 720936, metadata !"_S_internal", i64 16} ; [ DW_TAG_enumerator ]
!535 = metadata !{i32 720936, metadata !"_S_left", i64 32} ; [ DW_TAG_enumerator ]
!536 = metadata !{i32 720936, metadata !"_S_oct", i64 64} ; [ DW_TAG_enumerator ]
!537 = metadata !{i32 720936, metadata !"_S_right", i64 128} ; [ DW_TAG_enumerator ]
!538 = metadata !{i32 720936, metadata !"_S_scientific", i64 256} ; [ DW_TAG_enumerator ]
!539 = metadata !{i32 720936, metadata !"_S_showbase", i64 512} ; [ DW_TAG_enumerator ]
!540 = metadata !{i32 720936, metadata !"_S_showpoint", i64 1024} ; [ DW_TAG_enumerator ]
!541 = metadata !{i32 720936, metadata !"_S_showpos", i64 2048} ; [ DW_TAG_enumerator ]
!542 = metadata !{i32 720936, metadata !"_S_skipws", i64 4096} ; [ DW_TAG_enumerator ]
!543 = metadata !{i32 720936, metadata !"_S_unitbuf", i64 8192} ; [ DW_TAG_enumerator ]
!544 = metadata !{i32 720936, metadata !"_S_uppercase", i64 16384} ; [ DW_TAG_enumerator ]
!545 = metadata !{i32 720936, metadata !"_S_adjustfield", i64 176} ; [ DW_TAG_enumerator ]
!546 = metadata !{i32 720936, metadata !"_S_basefield", i64 74} ; [ DW_TAG_enumerator ]
!547 = metadata !{i32 720936, metadata !"_S_floatfield", i64 260} ; [ DW_TAG_enumerator ]
!548 = metadata !{i32 720936, metadata !"_S_ios_fmtflags_end", i64 65536} ; [ DW_TAG_enumerator ]
!549 = metadata !{i32 720900, metadata !527, metadata !"_Ios_Iostate", metadata !528, i32 144, i64 32, i64 32, i32 0, i32 0, i32 0, metadata !550, i32 0, i32 0} ; [ DW_TAG_enumeration_type ]
!550 = metadata !{metadata !551, metadata !552, metadata !553, metadata !554, metadata !555}
!551 = metadata !{i32 720936, metadata !"_S_goodbit", i64 0} ; [ DW_TAG_enumerator ]
!552 = metadata !{i32 720936, metadata !"_S_badbit", i64 1} ; [ DW_TAG_enumerator ]
!553 = metadata !{i32 720936, metadata !"_S_eofbit", i64 2} ; [ DW_TAG_enumerator ]
!554 = metadata !{i32 720936, metadata !"_S_failbit", i64 4} ; [ DW_TAG_enumerator ]
!555 = metadata !{i32 720936, metadata !"_S_ios_iostate_end", i64 65536} ; [ DW_TAG_enumerator ]
!556 = metadata !{i32 720900, metadata !527, metadata !"_Ios_Openmode", metadata !528, i32 104, i64 32, i64 32, i32 0, i32 0, i32 0, metadata !557, i32 0, i32 0} ; [ DW_TAG_enumeration_type ]
!557 = metadata !{metadata !558, metadata !559, metadata !560, metadata !561, metadata !562, metadata !563, metadata !564}
!558 = metadata !{i32 720936, metadata !"_S_app", i64 1} ; [ DW_TAG_enumerator ]
!559 = metadata !{i32 720936, metadata !"_S_ate", i64 2} ; [ DW_TAG_enumerator ]
!560 = metadata !{i32 720936, metadata !"_S_bin", i64 4} ; [ DW_TAG_enumerator ]
!561 = metadata !{i32 720936, metadata !"_S_in", i64 8} ; [ DW_TAG_enumerator ]
!562 = metadata !{i32 720936, metadata !"_S_out", i64 16} ; [ DW_TAG_enumerator ]
!563 = metadata !{i32 720936, metadata !"_S_trunc", i64 32} ; [ DW_TAG_enumerator ]
!564 = metadata !{i32 720936, metadata !"_S_ios_openmode_end", i64 65536} ; [ DW_TAG_enumerator ]
!565 = metadata !{i32 720900, metadata !527, metadata !"_Ios_Seekdir", metadata !528, i32 182, i64 32, i64 32, i32 0, i32 0, i32 0, metadata !566, i32 0, i32 0} ; [ DW_TAG_enumeration_type ]
!566 = metadata !{metadata !567, metadata !568, metadata !569, metadata !570}
!567 = metadata !{i32 720936, metadata !"_S_beg", i64 0} ; [ DW_TAG_enumerator ]
!568 = metadata !{i32 720936, metadata !"_S_cur", i64 1} ; [ DW_TAG_enumerator ]
!569 = metadata !{i32 720936, metadata !"_S_end", i64 2} ; [ DW_TAG_enumerator ]
!570 = metadata !{i32 720936, metadata !"_S_ios_seekdir_end", i64 65536} ; [ DW_TAG_enumerator ]
!571 = metadata !{i32 720900, metadata !572, metadata !"event", metadata !528, i32 420, i64 32, i64 32, i32 0, i32 0, i32 0, metadata !1879, i32 0, i32 0} ; [ DW_TAG_enumeration_type ]
!572 = metadata !{i32 720898, metadata !527, metadata !"ios_base", metadata !528, i32 200, i64 896, i64 32, i32 0, i32 0, null, metadata !573, i32 0, metadata !572, null} ; [ DW_TAG_class_type ]
!573 = metadata !{metadata !574, metadata !575, metadata !582, metadata !583, metadata !585, metadata !587, metadata !588, metadata !619, metadata !631, metadata !635, metadata !636, metadata !637, metadata !1761, metadata !1767, metadata !1772, metadata !1777, metadata !1783, metadata !1786, metadata !1793, metadata !1798, metadata !1801, metadata !1806, metadata !1811, metadata !1816, metadata !1821, metadata !1824, metadata !1827, metadata !1832, metadata !1837, metadata !1842, metadata !1847, metadata !1850, metadata !1856, metadata !1862, metadata !1865, metadata !1868, metadata !1874}
!574 = metadata !{i32 720909, metadata !528, metadata !"_vptr$ios_base", metadata !528, i32 0, i64 32, i64 0, i64 0, i32 0, metadata !38} ; [ DW_TAG_member ]
!575 = metadata !{i32 720909, metadata !572, metadata !"_M_precision", metadata !528, i32 453, i64 32, i64 32, i64 32, i32 2, metadata !576} ; [ DW_TAG_member ]
!576 = metadata !{i32 720918, metadata !577, metadata !"streamsize", metadata !528, i32 99, i64 0, i64 0, i64 0, i32 0, metadata !579} ; [ DW_TAG_typedef ]
!577 = metadata !{i32 720953, null, metadata !"std", metadata !578, i32 69} ; [ DW_TAG_namespace ]
!578 = metadata !{i32 720937, metadata !"/usr/lib/gcc/i686-linux-gnu/4.6/../../../../include/c++/4.6/bits/postypes.h", metadata !"/home/bxl/nacl-app/fruit-click-read-only/fruitclick-nacl", null} ; [ DW_TAG_file_type ]
!579 = metadata !{i32 720918, metadata !580, metadata !"ptrdiff_t", metadata !528, i32 156, i64 0, i64 0, i64 0, i32 0, metadata !42} ; [ DW_TAG_typedef ]
!580 = metadata !{i32 720953, null, metadata !"std", metadata !581, i32 153} ; [ DW_TAG_namespace ]
!581 = metadata !{i32 720937, metadata !"/usr/lib/gcc/i686-linux-gnu/4.6/../../../../include/c++/4.6/i686-linux-gnu/bits/c++config.h", metadata !"/home/bxl/nacl-app/fruit-click-read-only/fruitclick-nacl", null} ; [ DW_TAG_file_type ]
!582 = metadata !{i32 720909, metadata !572, metadata !"_M_width", metadata !528, i32 454, i64 32, i64 32, i64 64, i32 2, metadata !576} ; [ DW_TAG_member ]
!583 = metadata !{i32 720909, metadata !572, metadata !"_M_flags", metadata !528, i32 455, i64 32, i64 32, i64 96, i32 2, metadata !584} ; [ DW_TAG_member ]
!584 = metadata !{i32 720918, metadata !572, metadata !"fmtflags", metadata !528, i32 256, i64 0, i64 0, i64 0, i32 0, metadata !526} ; [ DW_TAG_typedef ]
!585 = metadata !{i32 720909, metadata !572, metadata !"_M_exception", metadata !528, i32 456, i64 32, i64 32, i64 128, i32 2, metadata !586} ; [ DW_TAG_member ]
!586 = metadata !{i32 720918, metadata !572, metadata !"iostate", metadata !528, i32 331, i64 0, i64 0, i64 0, i32 0, metadata !549} ; [ DW_TAG_typedef ]
!587 = metadata !{i32 720909, metadata !572, metadata !"_M_streambuf_state", metadata !528, i32 457, i64 32, i64 32, i64 160, i32 2, metadata !586} ; [ DW_TAG_member ]
!588 = metadata !{i32 720909, metadata !572, metadata !"_M_callbacks", metadata !528, i32 491, i64 32, i64 32, i64 192, i32 2, metadata !589} ; [ DW_TAG_member ]
!589 = metadata !{i32 720911, null, metadata !"", null, i32 0, i64 32, i64 32, i64 0, i32 0, metadata !590} ; [ DW_TAG_pointer_type ]
!590 = metadata !{i32 720898, metadata !572, metadata !"_Callback_list", metadata !528, i32 461, i64 128, i64 32, i32 0, i32 0, null, metadata !591, i32 0, null, null} ; [ DW_TAG_class_type ]
!591 = metadata !{metadata !592, metadata !593, metadata !599, metadata !600, metadata !603, metadata !609, metadata !614}
!592 = metadata !{i32 720909, metadata !590, metadata !"_M_next", metadata !528, i32 464, i64 32, i64 32, i64 0, i32 0, metadata !589} ; [ DW_TAG_member ]
!593 = metadata !{i32 720909, metadata !590, metadata !"_M_fn", metadata !528, i32 465, i64 32, i64 32, i64 32, i32 0, metadata !594} ; [ DW_TAG_member ]
!594 = metadata !{i32 720918, metadata !572, metadata !"event_callback", metadata !528, i32 437, i64 0, i64 0, i64 0, i32 0, metadata !595} ; [ DW_TAG_typedef ]
!595 = metadata !{i32 720911, null, metadata !"", null, i32 0, i64 32, i64 32, i64 0, i32 0, metadata !596} ; [ DW_TAG_pointer_type ]
!596 = metadata !{i32 720917, i32 0, metadata !"", i32 0, i32 0, i64 0, i64 0, i32 0, i32 0, i32 0, metadata !597, i32 0, i32 0} ; [ DW_TAG_subroutine_type ]
!597 = metadata !{null, metadata !571, metadata !598, metadata !42}
!598 = metadata !{i32 720912, null, null, null, i32 0, i64 0, i64 0, i64 0, i32 0, metadata !572} ; [ DW_TAG_reference_type ]
!599 = metadata !{i32 720909, metadata !590, metadata !"_M_index", metadata !528, i32 466, i64 32, i64 32, i64 64, i32 0, metadata !42} ; [ DW_TAG_member ]
!600 = metadata !{i32 720909, metadata !590, metadata !"_M_refcount", metadata !528, i32 467, i64 32, i64 32, i64 96, i32 0, metadata !601} ; [ DW_TAG_member ]
!601 = metadata !{i32 720918, null, metadata !"_Atomic_word", metadata !602, i32 32, i64 0, i64 0, i64 0, i32 0, metadata !42} ; [ DW_TAG_typedef ]
!602 = metadata !{i32 720937, metadata !"/usr/lib/gcc/i686-linux-gnu/4.6/../../../../include/c++/4.6/bits/basic_string.h", metadata !"/home/bxl/nacl-app/fruit-click-read-only/fruitclick-nacl", null} ; [ DW_TAG_file_type ]
!603 = metadata !{i32 720942, i32 0, metadata !590, metadata !"_Callback_list", metadata !"_Callback_list", metadata !"", metadata !528, i32 469, metadata !604, i1 false, i1 false, i32 0, i32 0, null, i32 256, i1 false, null, null, i32 0, metadata !607} ; [ DW_TAG_subprogram ]
!604 = metadata !{i32 720917, i32 0, metadata !"", i32 0, i32 0, i64 0, i64 0, i32 0, i32 0, i32 0, metadata !605, i32 0, i32 0} ; [ DW_TAG_subroutine_type ]
!605 = metadata !{null, metadata !606, metadata !594, metadata !42, metadata !589}
!606 = metadata !{i32 720911, i32 0, metadata !"", i32 0, i32 0, i64 32, i64 32, i64 0, i32 64, metadata !590} ; [ DW_TAG_pointer_type ]
!607 = metadata !{metadata !608}
!608 = metadata !{i32 720932}                     ; [ DW_TAG_base_type ]
!609 = metadata !{i32 720942, i32 0, metadata !590, metadata !"_M_add_reference", metadata !"_M_add_reference", metadata !"_ZNSt8ios_base14_Callback_list16_M_add_referenceEv", metadata !528, i32 474, metadata !610, i1 false, i1 false, i32 0, i32 0, null, i32 256, i1 false, null, null, i32 0, metadata !612} ; [ DW_TAG_subprogram ]
!610 = metadata !{i32 720917, i32 0, metadata !"", i32 0, i32 0, i64 0, i64 0, i32 0, i32 0, i32 0, metadata !611, i32 0, i32 0} ; [ DW_TAG_subroutine_type ]
!611 = metadata !{null, metadata !606}
!612 = metadata !{metadata !613}
!613 = metadata !{i32 720932}                     ; [ DW_TAG_base_type ]
!614 = metadata !{i32 720942, i32 0, metadata !590, metadata !"_M_remove_reference", metadata !"_M_remove_reference", metadata !"_ZNSt8ios_base14_Callback_list19_M_remove_referenceEv", metadata !528, i32 478, metadata !615, i1 false, i1 false, i32 0, i32 0, null, i32 256, i1 false, null, null, i32 0, metadata !617} ; [ DW_TAG_subprogram ]
!615 = metadata !{i32 720917, i32 0, metadata !"", i32 0, i32 0, i64 0, i64 0, i32 0, i32 0, i32 0, metadata !616, i32 0, i32 0} ; [ DW_TAG_subroutine_type ]
!616 = metadata !{metadata !42, metadata !606}
!617 = metadata !{metadata !618}
!618 = metadata !{i32 720932}                     ; [ DW_TAG_base_type ]
!619 = metadata !{i32 720909, metadata !572, metadata !"_M_word_zero", metadata !528, i32 508, i64 64, i64 32, i64 224, i32 2, metadata !620} ; [ DW_TAG_member ]
!620 = metadata !{i32 720898, metadata !572, metadata !"_Words", metadata !528, i32 500, i64 64, i64 32, i32 0, i32 0, null, metadata !621, i32 0, null, null} ; [ DW_TAG_class_type ]
!621 = metadata !{metadata !622, metadata !623, metadata !625}
!622 = metadata !{i32 720909, metadata !620, metadata !"_M_pword", metadata !528, i32 502, i64 32, i64 32, i64 0, i32 0, metadata !173} ; [ DW_TAG_member ]
!623 = metadata !{i32 720909, metadata !620, metadata !"_M_iword", metadata !528, i32 503, i64 32, i64 32, i64 32, i32 0, metadata !624} ; [ DW_TAG_member ]
!624 = metadata !{i32 720932, null, metadata !"long int", null, i32 0, i64 32, i64 32, i64 0, i32 0, i32 5} ; [ DW_TAG_base_type ]
!625 = metadata !{i32 720942, i32 0, metadata !620, metadata !"_Words", metadata !"_Words", metadata !"", metadata !528, i32 504, metadata !626, i1 false, i1 false, i32 0, i32 0, null, i32 256, i1 false, null, null, i32 0, metadata !629} ; [ DW_TAG_subprogram ]
!626 = metadata !{i32 720917, i32 0, metadata !"", i32 0, i32 0, i64 0, i64 0, i32 0, i32 0, i32 0, metadata !627, i32 0, i32 0} ; [ DW_TAG_subroutine_type ]
!627 = metadata !{null, metadata !628}
!628 = metadata !{i32 720911, i32 0, metadata !"", i32 0, i32 0, i64 32, i64 32, i64 0, i32 64, metadata !620} ; [ DW_TAG_pointer_type ]
!629 = metadata !{metadata !630}
!630 = metadata !{i32 720932}                     ; [ DW_TAG_base_type ]
!631 = metadata !{i32 720909, metadata !572, metadata !"_M_local_word", metadata !528, i32 513, i64 512, i64 32, i64 288, i32 2, metadata !632} ; [ DW_TAG_member ]
!632 = metadata !{i32 720897, null, metadata !"", null, i32 0, i64 512, i64 32, i32 0, i32 0, metadata !620, metadata !633, i32 0, i32 0} ; [ DW_TAG_array_type ]
!633 = metadata !{metadata !634}
!634 = metadata !{i32 720929, i64 0, i64 7}       ; [ DW_TAG_subrange_type ]
!635 = metadata !{i32 720909, metadata !572, metadata !"_M_word_size", metadata !528, i32 516, i64 32, i64 32, i64 800, i32 2, metadata !42} ; [ DW_TAG_member ]
!636 = metadata !{i32 720909, metadata !572, metadata !"_M_word", metadata !528, i32 517, i64 32, i64 32, i64 832, i32 2, metadata !628} ; [ DW_TAG_member ]
!637 = metadata !{i32 720909, metadata !572, metadata !"_M_ios_locale", metadata !528, i32 523, i64 32, i64 32, i64 864, i32 2, metadata !638} ; [ DW_TAG_member ]
!638 = metadata !{i32 720898, metadata !639, metadata !"locale", metadata !640, i32 63, i64 32, i64 32, i32 0, i32 0, null, metadata !641, i32 0, null, null} ; [ DW_TAG_class_type ]
!639 = metadata !{i32 720953, null, metadata !"std", metadata !640, i32 44} ; [ DW_TAG_namespace ]
!640 = metadata !{i32 720937, metadata !"/usr/lib/gcc/i686-linux-gnu/4.6/../../../../include/c++/4.6/bits/locale_classes.h", metadata !"/home/bxl/nacl-app/fruit-click-read-only/fruitclick-nacl", null} ; [ DW_TAG_file_type ]
!641 = metadata !{metadata !642, metadata !855, metadata !861, metadata !868, metadata !873, metadata !878, metadata !883, metadata !886, metadata !891, metadata !1722, metadata !1727, metadata !1730, metadata !1735, metadata !1740, metadata !1745, metadata !1748, metadata !1751, metadata !1756, metadata !1759, metadata !1760}
!642 = metadata !{i32 720909, metadata !638, metadata !"_M_impl", metadata !640, i32 280, i64 32, i64 32, i64 0, i32 1, metadata !643} ; [ DW_TAG_member ]
!643 = metadata !{i32 720911, null, metadata !"", null, i32 0, i64 32, i64 32, i64 0, i32 0, metadata !644} ; [ DW_TAG_pointer_type ]
!644 = metadata !{i32 720898, metadata !638, metadata !"_Impl", metadata !640, i32 475, i64 160, i64 32, i32 0, i32 0, null, metadata !645, i32 0, null, null} ; [ DW_TAG_class_type ]
!645 = metadata !{metadata !646, metadata !647, metadata !749, metadata !750, metadata !751, metadata !754, metadata !760, metadata !763, metadata !770, metadata !775, metadata !780, metadata !783, metadata !788, metadata !791, metadata !796, metadata !803, metadata !838, metadata !843, metadata !848, metadata !853, metadata !854}
!646 = metadata !{i32 720909, metadata !644, metadata !"_M_refcount", metadata !640, i32 495, i64 32, i64 32, i64 0, i32 1, metadata !601} ; [ DW_TAG_member ]
!647 = metadata !{i32 720909, metadata !644, metadata !"_M_facets", metadata !640, i32 496, i64 32, i64 32, i64 32, i32 1, metadata !648} ; [ DW_TAG_member ]
!648 = metadata !{i32 720911, null, metadata !"", null, i32 0, i64 32, i64 32, i64 0, i32 0, metadata !649} ; [ DW_TAG_pointer_type ]
!649 = metadata !{i32 720911, null, metadata !"", null, i32 0, i64 32, i64 32, i64 0, i32 0, metadata !650} ; [ DW_TAG_pointer_type ]
!650 = metadata !{i32 720934, null, metadata !"", null, i32 0, i64 0, i64 0, i64 0, i32 0, metadata !651} ; [ DW_TAG_const_type ]
!651 = metadata !{i32 720898, metadata !638, metadata !"facet", metadata !640, i32 338, i64 64, i64 32, i32 0, i32 0, null, metadata !652, i32 0, metadata !651, null} ; [ DW_TAG_class_type ]
!652 = metadata !{metadata !653, metadata !654, metadata !655, metadata !658, metadata !666, metadata !671, metadata !701, metadata !706, metadata !711, metadata !716, metadata !721, metadata !726, metadata !732, metadata !735, metadata !741, metadata !747, metadata !748}
!653 = metadata !{i32 720909, metadata !640, metadata !"_vptr$facet", metadata !640, i32 0, i64 32, i64 0, i64 0, i32 0, metadata !38} ; [ DW_TAG_member ]
!654 = metadata !{i32 720909, metadata !651, metadata !"_M_refcount", metadata !640, i32 344, i64 32, i64 32, i64 32, i32 1, metadata !601} ; [ DW_TAG_member ]
!655 = metadata !{i32 720942, i32 0, metadata !651, metadata !"_S_initialize_once", metadata !"_S_initialize_once", metadata !"_ZNSt6locale5facet18_S_initialize_onceEv", metadata !640, i32 357, metadata !44, i1 false, i1 false, i32 0, i32 0, null, i32 257, i1 false, null, null, i32 0, metadata !656} ; [ DW_TAG_subprogram ]
!656 = metadata !{metadata !657}
!657 = metadata !{i32 720932}                     ; [ DW_TAG_base_type ]
!658 = metadata !{i32 720942, i32 0, metadata !651, metadata !"facet", metadata !"facet", metadata !"", metadata !640, i32 370, metadata !659, i1 false, i1 false, i32 0, i32 0, null, i32 386, i1 false, null, null, i32 0, metadata !664} ; [ DW_TAG_subprogram ]
!659 = metadata !{i32 720917, i32 0, metadata !"", i32 0, i32 0, i64 0, i64 0, i32 0, i32 0, i32 0, metadata !660, i32 0, i32 0} ; [ DW_TAG_subroutine_type ]
!660 = metadata !{null, metadata !661, metadata !662}
!661 = metadata !{i32 720911, i32 0, metadata !"", i32 0, i32 0, i64 32, i64 32, i64 0, i32 64, metadata !651} ; [ DW_TAG_pointer_type ]
!662 = metadata !{i32 720918, metadata !580, metadata !"size_t", metadata !663, i32 155, i64 0, i64 0, i64 0, i32 0, metadata !497} ; [ DW_TAG_typedef ]
!663 = metadata !{i32 720937, metadata !"/usr/lib/gcc/i686-linux-gnu/4.6/../../../../include/c++/4.6/ext/new_allocator.h", metadata !"/home/bxl/nacl-app/fruit-click-read-only/fruitclick-nacl", null} ; [ DW_TAG_file_type ]
!664 = metadata !{metadata !665}
!665 = metadata !{i32 720932}                     ; [ DW_TAG_base_type ]
!666 = metadata !{i32 720942, i32 0, metadata !651, metadata !"~facet", metadata !"~facet", metadata !"", metadata !640, i32 375, metadata !667, i1 false, i1 false, i32 1, i32 0, metadata !651, i32 258, i1 false, null, null, i32 0, metadata !669} ; [ DW_TAG_subprogram ]
!667 = metadata !{i32 720917, i32 0, metadata !"", i32 0, i32 0, i64 0, i64 0, i32 0, i32 0, i32 0, metadata !668, i32 0, i32 0} ; [ DW_TAG_subroutine_type ]
!668 = metadata !{null, metadata !661}
!669 = metadata !{metadata !670}
!670 = metadata !{i32 720932}                     ; [ DW_TAG_base_type ]
!671 = metadata !{i32 720942, i32 0, metadata !651, metadata !"_S_create_c_locale", metadata !"_S_create_c_locale", metadata !"_ZNSt6locale5facet18_S_create_c_localeERP15__locale_structPKcS2_", metadata !640, i32 378, metadata !672, i1 false, i1 false, i32 0, i32 0, null, i32 258, i1 false, null, null, i32 0, metadata !699} ; [ DW_TAG_subprogram ]
!672 = metadata !{i32 720917, i32 0, metadata !"", i32 0, i32 0, i64 0, i64 0, i32 0, i32 0, i32 0, metadata !673, i32 0, i32 0} ; [ DW_TAG_subroutine_type ]
!673 = metadata !{null, metadata !674, metadata !60, metadata !675}
!674 = metadata !{i32 720912, null, null, null, i32 0, i64 0, i64 0, i64 0, i32 0, metadata !675} ; [ DW_TAG_reference_type ]
!675 = metadata !{i32 720918, metadata !676, metadata !"__c_locale", metadata !640, i32 62, i64 0, i64 0, i64 0, i32 0, metadata !678} ; [ DW_TAG_typedef ]
!676 = metadata !{i32 720953, null, metadata !"std", metadata !677, i32 58} ; [ DW_TAG_namespace ]
!677 = metadata !{i32 720937, metadata !"/usr/lib/gcc/i686-linux-gnu/4.6/../../../../include/c++/4.6/i686-linux-gnu/bits/c++locale.h", metadata !"/home/bxl/nacl-app/fruit-click-read-only/fruitclick-nacl", null} ; [ DW_TAG_file_type ]
!678 = metadata !{i32 720918, null, metadata !"__locale_t", metadata !640, i32 40, i64 0, i64 0, i64 0, i32 0, metadata !679} ; [ DW_TAG_typedef ]
!679 = metadata !{i32 720911, null, metadata !"", null, i32 0, i64 32, i64 32, i64 0, i32 0, metadata !680} ; [ DW_TAG_pointer_type ]
!680 = metadata !{i32 720898, null, metadata !"__locale_struct", metadata !681, i32 28, i64 928, i64 32, i32 0, i32 0, null, metadata !682, i32 0, null, null} ; [ DW_TAG_class_type ]
!681 = metadata !{i32 720937, metadata !"/usr/include/xlocale.h", metadata !"/home/bxl/nacl-app/fruit-click-read-only/fruitclick-nacl", null} ; [ DW_TAG_file_type ]
!682 = metadata !{metadata !683, metadata !689, metadata !693, metadata !696, metadata !697}
!683 = metadata !{i32 720909, metadata !680, metadata !"__locales", metadata !681, i32 31, i64 416, i64 32, i64 0, i32 0, metadata !684} ; [ DW_TAG_member ]
!684 = metadata !{i32 720897, null, metadata !"", null, i32 0, i64 416, i64 32, i32 0, i32 0, metadata !685, metadata !687, i32 0, i32 0} ; [ DW_TAG_array_type ]
!685 = metadata !{i32 720911, null, metadata !"", null, i32 0, i64 32, i64 32, i64 0, i32 0, metadata !686} ; [ DW_TAG_pointer_type ]
!686 = metadata !{i32 720915, null, metadata !"__locale_data", metadata !681, i32 31, i64 0, i64 0, i32 0, i32 4, i32 0, null, i32 0, i32 0} ; [ DW_TAG_structure_type ]
!687 = metadata !{metadata !688}
!688 = metadata !{i32 720929, i64 0, i64 12}      ; [ DW_TAG_subrange_type ]
!689 = metadata !{i32 720909, metadata !680, metadata !"__ctype_b", metadata !681, i32 34, i64 32, i64 32, i64 416, i32 0, metadata !690} ; [ DW_TAG_member ]
!690 = metadata !{i32 720911, null, metadata !"", null, i32 0, i64 32, i64 32, i64 0, i32 0, metadata !691} ; [ DW_TAG_pointer_type ]
!691 = metadata !{i32 720934, null, metadata !"", null, i32 0, i64 0, i64 0, i64 0, i32 0, metadata !692} ; [ DW_TAG_const_type ]
!692 = metadata !{i32 720932, null, metadata !"unsigned short", null, i32 0, i64 16, i64 16, i64 0, i32 0, i32 7} ; [ DW_TAG_base_type ]
!693 = metadata !{i32 720909, metadata !680, metadata !"__ctype_tolower", metadata !681, i32 35, i64 32, i64 32, i64 448, i32 0, metadata !694} ; [ DW_TAG_member ]
!694 = metadata !{i32 720911, null, metadata !"", null, i32 0, i64 32, i64 32, i64 0, i32 0, metadata !695} ; [ DW_TAG_pointer_type ]
!695 = metadata !{i32 720934, null, metadata !"", null, i32 0, i64 0, i64 0, i64 0, i32 0, metadata !42} ; [ DW_TAG_const_type ]
!696 = metadata !{i32 720909, metadata !680, metadata !"__ctype_toupper", metadata !681, i32 36, i64 32, i64 32, i64 480, i32 0, metadata !694} ; [ DW_TAG_member ]
!697 = metadata !{i32 720909, metadata !680, metadata !"__names", metadata !681, i32 39, i64 416, i64 32, i64 512, i32 0, metadata !698} ; [ DW_TAG_member ]
!698 = metadata !{i32 720897, null, metadata !"", null, i32 0, i64 416, i64 32, i32 0, i32 0, metadata !60, metadata !687, i32 0, i32 0} ; [ DW_TAG_array_type ]
!699 = metadata !{metadata !700}
!700 = metadata !{i32 720932}                     ; [ DW_TAG_base_type ]
!701 = metadata !{i32 720942, i32 0, metadata !651, metadata !"_S_clone_c_locale", metadata !"_S_clone_c_locale", metadata !"_ZNSt6locale5facet17_S_clone_c_localeERP15__locale_struct", metadata !640, i32 382, metadata !702, i1 false, i1 false, i32 0, i32 0, null, i32 258, i1 false, null, null, i32 0, metadata !704} ; [ DW_TAG_subprogram ]
!702 = metadata !{i32 720917, i32 0, metadata !"", i32 0, i32 0, i64 0, i64 0, i32 0, i32 0, i32 0, metadata !703, i32 0, i32 0} ; [ DW_TAG_subroutine_type ]
!703 = metadata !{metadata !675, metadata !674}
!704 = metadata !{metadata !705}
!705 = metadata !{i32 720932}                     ; [ DW_TAG_base_type ]
!706 = metadata !{i32 720942, i32 0, metadata !651, metadata !"_S_destroy_c_locale", metadata !"_S_destroy_c_locale", metadata !"_ZNSt6locale5facet19_S_destroy_c_localeERP15__locale_struct", metadata !640, i32 385, metadata !707, i1 false, i1 false, i32 0, i32 0, null, i32 258, i1 false, null, null, i32 0, metadata !709} ; [ DW_TAG_subprogram ]
!707 = metadata !{i32 720917, i32 0, metadata !"", i32 0, i32 0, i64 0, i64 0, i32 0, i32 0, i32 0, metadata !708, i32 0, i32 0} ; [ DW_TAG_subroutine_type ]
!708 = metadata !{null, metadata !674}
!709 = metadata !{metadata !710}
!710 = metadata !{i32 720932}                     ; [ DW_TAG_base_type ]
!711 = metadata !{i32 720942, i32 0, metadata !651, metadata !"_S_lc_ctype_c_locale", metadata !"_S_lc_ctype_c_locale", metadata !"_ZNSt6locale5facet20_S_lc_ctype_c_localeEP15__locale_structPKc", metadata !640, i32 388, metadata !712, i1 false, i1 false, i32 0, i32 0, null, i32 258, i1 false, null, null, i32 0, metadata !714} ; [ DW_TAG_subprogram ]
!712 = metadata !{i32 720917, i32 0, metadata !"", i32 0, i32 0, i64 0, i64 0, i32 0, i32 0, i32 0, metadata !713, i32 0, i32 0} ; [ DW_TAG_subroutine_type ]
!713 = metadata !{metadata !675, metadata !675, metadata !60}
!714 = metadata !{metadata !715}
!715 = metadata !{i32 720932}                     ; [ DW_TAG_base_type ]
!716 = metadata !{i32 720942, i32 0, metadata !651, metadata !"_S_get_c_locale", metadata !"_S_get_c_locale", metadata !"_ZNSt6locale5facet15_S_get_c_localeEv", metadata !640, i32 393, metadata !717, i1 false, i1 false, i32 0, i32 0, null, i32 258, i1 false, null, null, i32 0, metadata !719} ; [ DW_TAG_subprogram ]
!717 = metadata !{i32 720917, i32 0, metadata !"", i32 0, i32 0, i64 0, i64 0, i32 0, i32 0, i32 0, metadata !718, i32 0, i32 0} ; [ DW_TAG_subroutine_type ]
!718 = metadata !{metadata !675}
!719 = metadata !{metadata !720}
!720 = metadata !{i32 720932}                     ; [ DW_TAG_base_type ]
!721 = metadata !{i32 720942, i32 0, metadata !651, metadata !"_S_get_c_name", metadata !"_S_get_c_name", metadata !"_ZNSt6locale5facet13_S_get_c_nameEv", metadata !640, i32 396, metadata !722, i1 false, i1 false, i32 0, i32 0, null, i32 258, i1 false, null, null, i32 0, metadata !724} ; [ DW_TAG_subprogram ]
!722 = metadata !{i32 720917, i32 0, metadata !"", i32 0, i32 0, i64 0, i64 0, i32 0, i32 0, i32 0, metadata !723, i32 0, i32 0} ; [ DW_TAG_subroutine_type ]
!723 = metadata !{metadata !60}
!724 = metadata !{metadata !725}
!725 = metadata !{i32 720932}                     ; [ DW_TAG_base_type ]
!726 = metadata !{i32 720942, i32 0, metadata !651, metadata !"_M_add_reference", metadata !"_M_add_reference", metadata !"_ZNKSt6locale5facet16_M_add_referenceEv", metadata !640, i32 400, metadata !727, i1 false, i1 false, i32 0, i32 0, null, i32 257, i1 false, null, null, i32 0, metadata !730} ; [ DW_TAG_subprogram ]
!727 = metadata !{i32 720917, i32 0, metadata !"", i32 0, i32 0, i64 0, i64 0, i32 0, i32 0, i32 0, metadata !728, i32 0, i32 0} ; [ DW_TAG_subroutine_type ]
!728 = metadata !{null, metadata !729}
!729 = metadata !{i32 720911, i32 0, metadata !"", i32 0, i32 0, i64 32, i64 32, i64 0, i32 64, metadata !650} ; [ DW_TAG_pointer_type ]
!730 = metadata !{metadata !731}
!731 = metadata !{i32 720932}                     ; [ DW_TAG_base_type ]
!732 = metadata !{i32 720942, i32 0, metadata !651, metadata !"_M_remove_reference", metadata !"_M_remove_reference", metadata !"_ZNKSt6locale5facet19_M_remove_referenceEv", metadata !640, i32 404, metadata !727, i1 false, i1 false, i32 0, i32 0, null, i32 257, i1 false, null, null, i32 0, metadata !733} ; [ DW_TAG_subprogram ]
!733 = metadata !{metadata !734}
!734 = metadata !{i32 720932}                     ; [ DW_TAG_base_type ]
!735 = metadata !{i32 720942, i32 0, metadata !651, metadata !"facet", metadata !"facet", metadata !"", metadata !640, i32 418, metadata !736, i1 false, i1 false, i32 0, i32 0, null, i32 257, i1 false, null, null, i32 0, metadata !739} ; [ DW_TAG_subprogram ]
!736 = metadata !{i32 720917, i32 0, metadata !"", i32 0, i32 0, i64 0, i64 0, i32 0, i32 0, i32 0, metadata !737, i32 0, i32 0} ; [ DW_TAG_subroutine_type ]
!737 = metadata !{null, metadata !661, metadata !738}
!738 = metadata !{i32 720912, null, null, null, i32 0, i64 0, i64 0, i64 0, i32 0, metadata !650} ; [ DW_TAG_reference_type ]
!739 = metadata !{metadata !740}
!740 = metadata !{i32 720932}                     ; [ DW_TAG_base_type ]
!741 = metadata !{i32 720942, i32 0, metadata !651, metadata !"operator=", metadata !"operator=", metadata !"_ZNSt6locale5facetaSERKS0_", metadata !640, i32 421, metadata !742, i1 false, i1 false, i32 0, i32 0, null, i32 257, i1 false, null, null, i32 0, metadata !745} ; [ DW_TAG_subprogram ]
!742 = metadata !{i32 720917, i32 0, metadata !"", i32 0, i32 0, i64 0, i64 0, i32 0, i32 0, i32 0, metadata !743, i32 0, i32 0} ; [ DW_TAG_subroutine_type ]
!743 = metadata !{metadata !744, metadata !661, metadata !738}
!744 = metadata !{i32 720912, null, null, null, i32 0, i64 0, i64 0, i64 0, i32 0, metadata !651} ; [ DW_TAG_reference_type ]
!745 = metadata !{metadata !746}
!746 = metadata !{i32 720932}                     ; [ DW_TAG_base_type ]
!747 = metadata !{i32 720938, metadata !651, null, metadata !640, i32 0, i64 0, i64 0, i64 0, i32 0, metadata !644} ; [ DW_TAG_friend ]
!748 = metadata !{i32 720938, metadata !651, null, metadata !640, i32 0, i64 0, i64 0, i64 0, i32 0, metadata !638} ; [ DW_TAG_friend ]
!749 = metadata !{i32 720909, metadata !644, metadata !"_M_facets_size", metadata !640, i32 497, i64 32, i64 32, i64 64, i32 1, metadata !662} ; [ DW_TAG_member ]
!750 = metadata !{i32 720909, metadata !644, metadata !"_M_caches", metadata !640, i32 498, i64 32, i64 32, i64 96, i32 1, metadata !648} ; [ DW_TAG_member ]
!751 = metadata !{i32 720909, metadata !644, metadata !"_M_names", metadata !640, i32 499, i64 32, i64 32, i64 128, i32 1, metadata !752} ; [ DW_TAG_member ]
!752 = metadata !{i32 720911, null, metadata !"", null, i32 0, i64 32, i64 32, i64 0, i32 0, metadata !753} ; [ DW_TAG_pointer_type ]
!753 = metadata !{i32 720911, null, metadata !"", null, i32 0, i64 32, i64 32, i64 0, i32 0, metadata !62} ; [ DW_TAG_pointer_type ]
!754 = metadata !{i32 720942, i32 0, metadata !644, metadata !"_M_add_reference", metadata !"_M_add_reference", metadata !"_ZNSt6locale5_Impl16_M_add_referenceEv", metadata !640, i32 509, metadata !755, i1 false, i1 false, i32 0, i32 0, null, i32 257, i1 false, null, null, i32 0, metadata !758} ; [ DW_TAG_subprogram ]
!755 = metadata !{i32 720917, i32 0, metadata !"", i32 0, i32 0, i64 0, i64 0, i32 0, i32 0, i32 0, metadata !756, i32 0, i32 0} ; [ DW_TAG_subroutine_type ]
!756 = metadata !{null, metadata !757}
!757 = metadata !{i32 720911, i32 0, metadata !"", i32 0, i32 0, i64 32, i64 32, i64 0, i32 64, metadata !644} ; [ DW_TAG_pointer_type ]
!758 = metadata !{metadata !759}
!759 = metadata !{i32 720932}                     ; [ DW_TAG_base_type ]
!760 = metadata !{i32 720942, i32 0, metadata !644, metadata !"_M_remove_reference", metadata !"_M_remove_reference", metadata !"_ZNSt6locale5_Impl19_M_remove_referenceEv", metadata !640, i32 513, metadata !755, i1 false, i1 false, i32 0, i32 0, null, i32 257, i1 false, null, null, i32 0, metadata !761} ; [ DW_TAG_subprogram ]
!761 = metadata !{metadata !762}
!762 = metadata !{i32 720932}                     ; [ DW_TAG_base_type ]
!763 = metadata !{i32 720942, i32 0, metadata !644, metadata !"_Impl", metadata !"_Impl", metadata !"", metadata !640, i32 527, metadata !764, i1 false, i1 false, i32 0, i32 0, null, i32 257, i1 false, null, null, i32 0, metadata !768} ; [ DW_TAG_subprogram ]
!764 = metadata !{i32 720917, i32 0, metadata !"", i32 0, i32 0, i64 0, i64 0, i32 0, i32 0, i32 0, metadata !765, i32 0, i32 0} ; [ DW_TAG_subroutine_type ]
!765 = metadata !{null, metadata !757, metadata !766, metadata !662}
!766 = metadata !{i32 720912, null, null, null, i32 0, i64 0, i64 0, i64 0, i32 0, metadata !767} ; [ DW_TAG_reference_type ]
!767 = metadata !{i32 720934, null, metadata !"", null, i32 0, i64 0, i64 0, i64 0, i32 0, metadata !644} ; [ DW_TAG_const_type ]
!768 = metadata !{metadata !769}
!769 = metadata !{i32 720932}                     ; [ DW_TAG_base_type ]
!770 = metadata !{i32 720942, i32 0, metadata !644, metadata !"_Impl", metadata !"_Impl", metadata !"", metadata !640, i32 528, metadata !771, i1 false, i1 false, i32 0, i32 0, null, i32 257, i1 false, null, null, i32 0, metadata !773} ; [ DW_TAG_subprogram ]
!771 = metadata !{i32 720917, i32 0, metadata !"", i32 0, i32 0, i64 0, i64 0, i32 0, i32 0, i32 0, metadata !772, i32 0, i32 0} ; [ DW_TAG_subroutine_type ]
!772 = metadata !{null, metadata !757, metadata !60, metadata !662}
!773 = metadata !{metadata !774}
!774 = metadata !{i32 720932}                     ; [ DW_TAG_base_type ]
!775 = metadata !{i32 720942, i32 0, metadata !644, metadata !"_Impl", metadata !"_Impl", metadata !"", metadata !640, i32 529, metadata !776, i1 false, i1 false, i32 0, i32 0, null, i32 257, i1 false, null, null, i32 0, metadata !778} ; [ DW_TAG_subprogram ]
!776 = metadata !{i32 720917, i32 0, metadata !"", i32 0, i32 0, i64 0, i64 0, i32 0, i32 0, i32 0, metadata !777, i32 0, i32 0} ; [ DW_TAG_subroutine_type ]
!777 = metadata !{null, metadata !757, metadata !662}
!778 = metadata !{metadata !779}
!779 = metadata !{i32 720932}                     ; [ DW_TAG_base_type ]
!780 = metadata !{i32 720942, i32 0, metadata !644, metadata !"~_Impl", metadata !"~_Impl", metadata !"", metadata !640, i32 531, metadata !755, i1 false, i1 false, i32 0, i32 0, null, i32 257, i1 false, null, null, i32 0, metadata !781} ; [ DW_TAG_subprogram ]
!781 = metadata !{metadata !782}
!782 = metadata !{i32 720932}                     ; [ DW_TAG_base_type ]
!783 = metadata !{i32 720942, i32 0, metadata !644, metadata !"_Impl", metadata !"_Impl", metadata !"", metadata !640, i32 533, metadata !784, i1 false, i1 false, i32 0, i32 0, null, i32 257, i1 false, null, null, i32 0, metadata !786} ; [ DW_TAG_subprogram ]
!784 = metadata !{i32 720917, i32 0, metadata !"", i32 0, i32 0, i64 0, i64 0, i32 0, i32 0, i32 0, metadata !785, i32 0, i32 0} ; [ DW_TAG_subroutine_type ]
!785 = metadata !{null, metadata !757, metadata !766}
!786 = metadata !{metadata !787}
!787 = metadata !{i32 720932}                     ; [ DW_TAG_base_type ]
!788 = metadata !{i32 720942, i32 0, metadata !644, metadata !"operator=", metadata !"operator=", metadata !"_ZNSt6locale5_ImplaSERKS0_", metadata !640, i32 536, metadata !784, i1 false, i1 false, i32 0, i32 0, null, i32 257, i1 false, null, null, i32 0, metadata !789} ; [ DW_TAG_subprogram ]
!789 = metadata !{metadata !790}
!790 = metadata !{i32 720932}                     ; [ DW_TAG_base_type ]
!791 = metadata !{i32 720942, i32 0, metadata !644, metadata !"_M_check_same_name", metadata !"_M_check_same_name", metadata !"_ZNSt6locale5_Impl18_M_check_same_nameEv", metadata !640, i32 539, metadata !792, i1 false, i1 false, i32 0, i32 0, null, i32 257, i1 false, null, null, i32 0, metadata !794} ; [ DW_TAG_subprogram ]
!792 = metadata !{i32 720917, i32 0, metadata !"", i32 0, i32 0, i64 0, i64 0, i32 0, i32 0, i32 0, metadata !793, i32 0, i32 0} ; [ DW_TAG_subroutine_type ]
!793 = metadata !{metadata !199, metadata !757}
!794 = metadata !{metadata !795}
!795 = metadata !{i32 720932}                     ; [ DW_TAG_base_type ]
!796 = metadata !{i32 720942, i32 0, metadata !644, metadata !"_M_replace_categories", metadata !"_M_replace_categories", metadata !"_ZNSt6locale5_Impl21_M_replace_categoriesEPKS0_i", metadata !640, i32 550, metadata !797, i1 false, i1 false, i32 0, i32 0, null, i32 257, i1 false, null, null, i32 0, metadata !801} ; [ DW_TAG_subprogram ]
!797 = metadata !{i32 720917, i32 0, metadata !"", i32 0, i32 0, i64 0, i64 0, i32 0, i32 0, i32 0, metadata !798, i32 0, i32 0} ; [ DW_TAG_subroutine_type ]
!798 = metadata !{null, metadata !757, metadata !799, metadata !800}
!799 = metadata !{i32 720911, null, metadata !"", null, i32 0, i64 32, i64 32, i64 0, i32 0, metadata !767} ; [ DW_TAG_pointer_type ]
!800 = metadata !{i32 720918, metadata !638, metadata !"category", metadata !640, i32 68, i64 0, i64 0, i64 0, i32 0, metadata !42} ; [ DW_TAG_typedef ]
!801 = metadata !{metadata !802}
!802 = metadata !{i32 720932}                     ; [ DW_TAG_base_type ]
!803 = metadata !{i32 720942, i32 0, metadata !644, metadata !"_M_replace_category", metadata !"_M_replace_category", metadata !"_ZNSt6locale5_Impl19_M_replace_categoryEPKS0_PKPKNS_2idE", metadata !640, i32 553, metadata !804, i1 false, i1 false, i32 0, i32 0, null, i32 257, i1 false, null, null, i32 0, metadata !836} ; [ DW_TAG_subprogram ]
!804 = metadata !{i32 720917, i32 0, metadata !"", i32 0, i32 0, i64 0, i64 0, i32 0, i32 0, i32 0, metadata !805, i32 0, i32 0} ; [ DW_TAG_subroutine_type ]
!805 = metadata !{null, metadata !757, metadata !799, metadata !806}
!806 = metadata !{i32 720911, null, metadata !"", null, i32 0, i64 32, i64 32, i64 0, i32 0, metadata !807} ; [ DW_TAG_pointer_type ]
!807 = metadata !{i32 720934, null, metadata !"", null, i32 0, i64 0, i64 0, i64 0, i32 0, metadata !808} ; [ DW_TAG_const_type ]
!808 = metadata !{i32 720911, null, metadata !"", null, i32 0, i64 32, i64 32, i64 0, i32 0, metadata !809} ; [ DW_TAG_pointer_type ]
!809 = metadata !{i32 720898, metadata !638, metadata !"id", metadata !640, i32 436, i64 32, i64 32, i32 0, i32 0, null, metadata !810, i32 0, null, null} ; [ DW_TAG_class_type ]
!810 = metadata !{metadata !811, metadata !812, metadata !820, metadata !823, metadata !828, metadata !834, metadata !835}
!811 = metadata !{i32 720909, metadata !809, metadata !"_M_index", metadata !640, i32 453, i64 32, i64 32, i64 0, i32 1, metadata !662} ; [ DW_TAG_member ]
!812 = metadata !{i32 720942, i32 0, metadata !809, metadata !"operator=", metadata !"operator=", metadata !"_ZNSt6locale2idaSERKS0_", metadata !640, i32 459, metadata !813, i1 false, i1 false, i32 0, i32 0, null, i32 257, i1 false, null, null, i32 0, metadata !818} ; [ DW_TAG_subprogram ]
!813 = metadata !{i32 720917, i32 0, metadata !"", i32 0, i32 0, i64 0, i64 0, i32 0, i32 0, i32 0, metadata !814, i32 0, i32 0} ; [ DW_TAG_subroutine_type ]
!814 = metadata !{null, metadata !815, metadata !816}
!815 = metadata !{i32 720911, i32 0, metadata !"", i32 0, i32 0, i64 32, i64 32, i64 0, i32 64, metadata !809} ; [ DW_TAG_pointer_type ]
!816 = metadata !{i32 720912, null, null, null, i32 0, i64 0, i64 0, i64 0, i32 0, metadata !817} ; [ DW_TAG_reference_type ]
!817 = metadata !{i32 720934, null, metadata !"", null, i32 0, i64 0, i64 0, i64 0, i32 0, metadata !809} ; [ DW_TAG_const_type ]
!818 = metadata !{metadata !819}
!819 = metadata !{i32 720932}                     ; [ DW_TAG_base_type ]
!820 = metadata !{i32 720942, i32 0, metadata !809, metadata !"id", metadata !"id", metadata !"", metadata !640, i32 461, metadata !813, i1 false, i1 false, i32 0, i32 0, null, i32 257, i1 false, null, null, i32 0, metadata !821} ; [ DW_TAG_subprogram ]
!821 = metadata !{metadata !822}
!822 = metadata !{i32 720932}                     ; [ DW_TAG_base_type ]
!823 = metadata !{i32 720942, i32 0, metadata !809, metadata !"id", metadata !"id", metadata !"", metadata !640, i32 467, metadata !824, i1 false, i1 false, i32 0, i32 0, null, i32 256, i1 false, null, null, i32 0, metadata !826} ; [ DW_TAG_subprogram ]
!824 = metadata !{i32 720917, i32 0, metadata !"", i32 0, i32 0, i64 0, i64 0, i32 0, i32 0, i32 0, metadata !825, i32 0, i32 0} ; [ DW_TAG_subroutine_type ]
!825 = metadata !{null, metadata !815}
!826 = metadata !{metadata !827}
!827 = metadata !{i32 720932}                     ; [ DW_TAG_base_type ]
!828 = metadata !{i32 720942, i32 0, metadata !809, metadata !"_M_id", metadata !"_M_id", metadata !"_ZNKSt6locale2id5_M_idEv", metadata !640, i32 470, metadata !829, i1 false, i1 false, i32 0, i32 0, null, i32 256, i1 false, null, null, i32 0, metadata !832} ; [ DW_TAG_subprogram ]
!829 = metadata !{i32 720917, i32 0, metadata !"", i32 0, i32 0, i64 0, i64 0, i32 0, i32 0, i32 0, metadata !830, i32 0, i32 0} ; [ DW_TAG_subroutine_type ]
!830 = metadata !{metadata !662, metadata !831}
!831 = metadata !{i32 720911, i32 0, metadata !"", i32 0, i32 0, i64 32, i64 32, i64 0, i32 64, metadata !817} ; [ DW_TAG_pointer_type ]
!832 = metadata !{metadata !833}
!833 = metadata !{i32 720932}                     ; [ DW_TAG_base_type ]
!834 = metadata !{i32 720938, metadata !809, null, metadata !640, i32 0, i64 0, i64 0, i64 0, i32 0, metadata !644} ; [ DW_TAG_friend ]
!835 = metadata !{i32 720938, metadata !809, null, metadata !640, i32 0, i64 0, i64 0, i64 0, i32 0, metadata !638} ; [ DW_TAG_friend ]
!836 = metadata !{metadata !837}
!837 = metadata !{i32 720932}                     ; [ DW_TAG_base_type ]
!838 = metadata !{i32 720942, i32 0, metadata !644, metadata !"_M_replace_facet", metadata !"_M_replace_facet", metadata !"_ZNSt6locale5_Impl16_M_replace_facetEPKS0_PKNS_2idE", metadata !640, i32 556, metadata !839, i1 false, i1 false, i32 0, i32 0, null, i32 257, i1 false, null, null, i32 0, metadata !841} ; [ DW_TAG_subprogram ]
!839 = metadata !{i32 720917, i32 0, metadata !"", i32 0, i32 0, i64 0, i64 0, i32 0, i32 0, i32 0, metadata !840, i32 0, i32 0} ; [ DW_TAG_subroutine_type ]
!840 = metadata !{null, metadata !757, metadata !799, metadata !808}
!841 = metadata !{metadata !842}
!842 = metadata !{i32 720932}                     ; [ DW_TAG_base_type ]
!843 = metadata !{i32 720942, i32 0, metadata !644, metadata !"_M_install_facet", metadata !"_M_install_facet", metadata !"_ZNSt6locale5_Impl16_M_install_facetEPKNS_2idEPKNS_5facetE", metadata !640, i32 559, metadata !844, i1 false, i1 false, i32 0, i32 0, null, i32 257, i1 false, null, null, i32 0, metadata !846} ; [ DW_TAG_subprogram ]
!844 = metadata !{i32 720917, i32 0, metadata !"", i32 0, i32 0, i64 0, i64 0, i32 0, i32 0, i32 0, metadata !845, i32 0, i32 0} ; [ DW_TAG_subroutine_type ]
!845 = metadata !{null, metadata !757, metadata !808, metadata !649}
!846 = metadata !{metadata !847}
!847 = metadata !{i32 720932}                     ; [ DW_TAG_base_type ]
!848 = metadata !{i32 720942, i32 0, metadata !644, metadata !"_M_install_cache", metadata !"_M_install_cache", metadata !"_ZNSt6locale5_Impl16_M_install_cacheEPKNS_5facetEj", metadata !640, i32 567, metadata !849, i1 false, i1 false, i32 0, i32 0, null, i32 257, i1 false, null, null, i32 0, metadata !851} ; [ DW_TAG_subprogram ]
!849 = metadata !{i32 720917, i32 0, metadata !"", i32 0, i32 0, i64 0, i64 0, i32 0, i32 0, i32 0, metadata !850, i32 0, i32 0} ; [ DW_TAG_subroutine_type ]
!850 = metadata !{null, metadata !757, metadata !649, metadata !662}
!851 = metadata !{metadata !852}
!852 = metadata !{i32 720932}                     ; [ DW_TAG_base_type ]
!853 = metadata !{i32 720938, metadata !644, null, metadata !640, i32 0, i64 0, i64 0, i64 0, i32 0, metadata !651} ; [ DW_TAG_friend ]
!854 = metadata !{i32 720938, metadata !644, null, metadata !640, i32 0, i64 0, i64 0, i64 0, i32 0, metadata !638} ; [ DW_TAG_friend ]
!855 = metadata !{i32 720942, i32 0, metadata !638, metadata !"locale", metadata !"locale", metadata !"", metadata !640, i32 118, metadata !856, i1 false, i1 false, i32 0, i32 0, null, i32 256, i1 false, null, null, i32 0, metadata !859} ; [ DW_TAG_subprogram ]
!856 = metadata !{i32 720917, i32 0, metadata !"", i32 0, i32 0, i64 0, i64 0, i32 0, i32 0, i32 0, metadata !857, i32 0, i32 0} ; [ DW_TAG_subroutine_type ]
!857 = metadata !{null, metadata !858}
!858 = metadata !{i32 720911, i32 0, metadata !"", i32 0, i32 0, i64 32, i64 32, i64 0, i32 64, metadata !638} ; [ DW_TAG_pointer_type ]
!859 = metadata !{metadata !860}
!860 = metadata !{i32 720932}                     ; [ DW_TAG_base_type ]
!861 = metadata !{i32 720942, i32 0, metadata !638, metadata !"locale", metadata !"locale", metadata !"", metadata !640, i32 127, metadata !862, i1 false, i1 false, i32 0, i32 0, null, i32 256, i1 false, null, null, i32 0, metadata !866} ; [ DW_TAG_subprogram ]
!862 = metadata !{i32 720917, i32 0, metadata !"", i32 0, i32 0, i64 0, i64 0, i32 0, i32 0, i32 0, metadata !863, i32 0, i32 0} ; [ DW_TAG_subroutine_type ]
!863 = metadata !{null, metadata !858, metadata !864}
!864 = metadata !{i32 720912, null, null, null, i32 0, i64 0, i64 0, i64 0, i32 0, metadata !865} ; [ DW_TAG_reference_type ]
!865 = metadata !{i32 720934, null, metadata !"", null, i32 0, i64 0, i64 0, i64 0, i32 0, metadata !638} ; [ DW_TAG_const_type ]
!866 = metadata !{metadata !867}
!867 = metadata !{i32 720932}                     ; [ DW_TAG_base_type ]
!868 = metadata !{i32 720942, i32 0, metadata !638, metadata !"locale", metadata !"locale", metadata !"", metadata !640, i32 138, metadata !869, i1 false, i1 false, i32 0, i32 0, null, i32 384, i1 false, null, null, i32 0, metadata !871} ; [ DW_TAG_subprogram ]
!869 = metadata !{i32 720917, i32 0, metadata !"", i32 0, i32 0, i64 0, i64 0, i32 0, i32 0, i32 0, metadata !870, i32 0, i32 0} ; [ DW_TAG_subroutine_type ]
!870 = metadata !{null, metadata !858, metadata !60}
!871 = metadata !{metadata !872}
!872 = metadata !{i32 720932}                     ; [ DW_TAG_base_type ]
!873 = metadata !{i32 720942, i32 0, metadata !638, metadata !"locale", metadata !"locale", metadata !"", metadata !640, i32 152, metadata !874, i1 false, i1 false, i32 0, i32 0, null, i32 256, i1 false, null, null, i32 0, metadata !876} ; [ DW_TAG_subprogram ]
!874 = metadata !{i32 720917, i32 0, metadata !"", i32 0, i32 0, i64 0, i64 0, i32 0, i32 0, i32 0, metadata !875, i32 0, i32 0} ; [ DW_TAG_subroutine_type ]
!875 = metadata !{null, metadata !858, metadata !864, metadata !60, metadata !800}
!876 = metadata !{metadata !877}
!877 = metadata !{i32 720932}                     ; [ DW_TAG_base_type ]
!878 = metadata !{i32 720942, i32 0, metadata !638, metadata !"locale", metadata !"locale", metadata !"", metadata !640, i32 165, metadata !879, i1 false, i1 false, i32 0, i32 0, null, i32 256, i1 false, null, null, i32 0, metadata !881} ; [ DW_TAG_subprogram ]
!879 = metadata !{i32 720917, i32 0, metadata !"", i32 0, i32 0, i64 0, i64 0, i32 0, i32 0, i32 0, metadata !880, i32 0, i32 0} ; [ DW_TAG_subroutine_type ]
!880 = metadata !{null, metadata !858, metadata !864, metadata !864, metadata !800}
!881 = metadata !{metadata !882}
!882 = metadata !{i32 720932}                     ; [ DW_TAG_base_type ]
!883 = metadata !{i32 720942, i32 0, metadata !638, metadata !"~locale", metadata !"~locale", metadata !"", metadata !640, i32 181, metadata !856, i1 false, i1 false, i32 0, i32 0, null, i32 256, i1 false, null, null, i32 0, metadata !884} ; [ DW_TAG_subprogram ]
!884 = metadata !{metadata !885}
!885 = metadata !{i32 720932}                     ; [ DW_TAG_base_type ]
!886 = metadata !{i32 720942, i32 0, metadata !638, metadata !"operator=", metadata !"operator=", metadata !"_ZNSt6localeaSERKS_", metadata !640, i32 192, metadata !887, i1 false, i1 false, i32 0, i32 0, null, i32 256, i1 false, null, null, i32 0, metadata !889} ; [ DW_TAG_subprogram ]
!887 = metadata !{i32 720917, i32 0, metadata !"", i32 0, i32 0, i64 0, i64 0, i32 0, i32 0, i32 0, metadata !888, i32 0, i32 0} ; [ DW_TAG_subroutine_type ]
!888 = metadata !{metadata !864, metadata !858, metadata !864}
!889 = metadata !{metadata !890}
!890 = metadata !{i32 720932}                     ; [ DW_TAG_base_type ]
!891 = metadata !{i32 720942, i32 0, metadata !638, metadata !"name", metadata !"name", metadata !"_ZNKSt6locale4nameEv", metadata !640, i32 216, metadata !892, i1 false, i1 false, i32 0, i32 0, null, i32 256, i1 false, null, null, i32 0, metadata !1720} ; [ DW_TAG_subprogram ]
!892 = metadata !{i32 720917, i32 0, metadata !"", i32 0, i32 0, i64 0, i64 0, i32 0, i32 0, i32 0, metadata !893, i32 0, i32 0} ; [ DW_TAG_subroutine_type ]
!893 = metadata !{metadata !894, metadata !1719}
!894 = metadata !{i32 720918, metadata !895, metadata !"string", metadata !897, i32 64, i64 0, i64 0, i64 0, i32 0, metadata !898} ; [ DW_TAG_typedef ]
!895 = metadata !{i32 720953, null, metadata !"std", metadata !896, i32 42} ; [ DW_TAG_namespace ]
!896 = metadata !{i32 720937, metadata !"/usr/lib/gcc/i686-linux-gnu/4.6/../../../../include/c++/4.6/bits/stringfwd.h", metadata !"/home/bxl/nacl-app/fruit-click-read-only/fruitclick-nacl", null} ; [ DW_TAG_file_type ]
!897 = metadata !{i32 720937, metadata !"/home/bxl/ppapi-new/ppapi/cpp/var.h", metadata !"/home/bxl/nacl-app/fruit-click-read-only/fruitclick-nacl", null} ; [ DW_TAG_file_type ]
!898 = metadata !{i32 720898, metadata !895, metadata !"basic_string<char>", metadata !899, i32 1133, i64 32, i64 32, i32 0, i32 0, null, metadata !900, i32 0, null, metadata !1635} ; [ DW_TAG_class_type ]
!899 = metadata !{i32 720937, metadata !"/usr/lib/gcc/i686-linux-gnu/4.6/../../../../include/c++/4.6/bits/basic_string.tcc", metadata !"/home/bxl/nacl-app/fruit-click-read-only/fruitclick-nacl", null} ; [ DW_TAG_file_type ]
!900 = metadata !{metadata !901, metadata !999, metadata !1006, metadata !1012, metadata !1089, metadata !1098, metadata !1101, metadata !1106, metadata !1111, metadata !1116, metadata !1121, metadata !1126, metadata !1131, metadata !1134, metadata !1139, metadata !1144, metadata !1150, metadata !1155, metadata !1158, metadata !1163, metadata !1168, metadata !1171, metadata !1174, metadata !1177, metadata !1182, metadata !1188, metadata !1193, metadata !1198, metadata !1203, metadata !1208, metadata !1213, metadata !1216, metadata !1222, metadata !1227, metadata !1232, metadata !1237, metadata !1242, metadata !1245, metadata !1248, metadata !1256, metadata !1262, metadata !1265, metadata !1268, metadata !1273, metadata !1276, metadata !1279, metadata !1284, metadata !1289, metadata !1292, metadata !1295, metadata !1298, metadata !1303, metadata !1310, metadata !1317, metadata !1320, metadata !1323, metadata !1326, metadata !1329, metadata !1332, metadata !1335, metadata !1340, metadata !1345, metadata !1348, metadata !1353, metadata !1358, metadata !1361, metadata !1364, metadata !1367, metadata !1370, metadata !1373, metadata !1378, metadata !1383, metadata !1388, metadata !1393, metadata !1398, metadata !1403, metadata !1408, metadata !1413, metadata !1418, metadata !1423, metadata !1428, metadata !1433, metadata !1438, metadata !1443, metadata !1448, metadata !1453, metadata !1458, metadata !1463, metadata !1468, metadata !1473, metadata !1476, metadata !1481, metadata !1486, metadata !1489, metadata !1492, metadata !1497, metadata !1500, metadata !1505, metadata !1510, metadata !1513, metadata !1516, metadata !1522, metadata !1525, metadata !1530, metadata !1535, metadata !1540, metadata !1543, metadata !1546, metadata !1549, metadata !1552, metadata !1555, metadata !1558, metadata !1561, metadata !1564, metadata !1567, metadata !1570, metadata !1573, metadata !1576, metadata !1579, metadata !1582, metadata !1585, metadata !1588, metadata !1591, metadata !1594, metadata !1597, metadata !1600, metadata !1605, metadata !1610, metadata !1615, metadata !1620, metadata !1625, metadata !1630}
!901 = metadata !{i32 720909, metadata !898, metadata !"_M_dataplus", metadata !602, i32 283, i64 32, i64 32, i64 0, i32 1, metadata !902} ; [ DW_TAG_member ]
!902 = metadata !{i32 720898, metadata !898, metadata !"_Alloc_hider", metadata !602, i32 266, i64 32, i64 32, i32 0, i32 0, null, metadata !903, i32 0, null, null} ; [ DW_TAG_class_type ]
!903 = metadata !{metadata !904, metadata !991, metadata !992}
!904 = metadata !{i32 720924, metadata !902, null, metadata !602, i32 0, i64 0, i64 0, i64 0, i32 0, metadata !905} ; [ DW_TAG_inheritance ]
!905 = metadata !{i32 720898, metadata !906, metadata !"allocator<char>", metadata !907, i32 143, i64 8, i64 8, i32 0, i32 0, null, metadata !908, i32 0, null, metadata !973} ; [ DW_TAG_class_type ]
!906 = metadata !{i32 720953, null, metadata !"std", metadata !907, i32 54} ; [ DW_TAG_namespace ]
!907 = metadata !{i32 720937, metadata !"/usr/lib/gcc/i686-linux-gnu/4.6/../../../../include/c++/4.6/bits/allocator.h", metadata !"/home/bxl/nacl-app/fruit-click-read-only/fruitclick-nacl", null} ; [ DW_TAG_file_type ]
!908 = metadata !{metadata !909, metadata !975, metadata !981, metadata !988}
!909 = metadata !{i32 720924, metadata !905, null, metadata !907, i32 0, i64 0, i64 0, i64 0, i32 0, metadata !910} ; [ DW_TAG_inheritance ]
!910 = metadata !{i32 720898, metadata !911, metadata !"new_allocator<char>", metadata !663, i32 54, i64 8, i64 8, i32 0, i32 0, null, metadata !912, i32 0, null, metadata !973} ; [ DW_TAG_class_type ]
!911 = metadata !{i32 720953, null, metadata !"__gnu_cxx", metadata !663, i32 38} ; [ DW_TAG_namespace ]
!912 = metadata !{metadata !913, metadata !919, metadata !926, metadata !929, metadata !938, metadata !945, metadata !953, metadata !958, metadata !963, metadata !968}
!913 = metadata !{i32 720942, i32 0, metadata !910, metadata !"new_allocator", metadata !"new_allocator", metadata !"", metadata !663, i32 69, metadata !914, i1 false, i1 false, i32 0, i32 0, null, i32 256, i1 false, null, null, i32 0, metadata !917} ; [ DW_TAG_subprogram ]
!914 = metadata !{i32 720917, i32 0, metadata !"", i32 0, i32 0, i64 0, i64 0, i32 0, i32 0, i32 0, metadata !915, i32 0, i32 0} ; [ DW_TAG_subroutine_type ]
!915 = metadata !{null, metadata !916}
!916 = metadata !{i32 720911, i32 0, metadata !"", i32 0, i32 0, i64 32, i64 32, i64 0, i32 64, metadata !910} ; [ DW_TAG_pointer_type ]
!917 = metadata !{metadata !918}
!918 = metadata !{i32 720932}                     ; [ DW_TAG_base_type ]
!919 = metadata !{i32 720942, i32 0, metadata !910, metadata !"new_allocator", metadata !"new_allocator", metadata !"", metadata !663, i32 71, metadata !920, i1 false, i1 false, i32 0, i32 0, null, i32 256, i1 false, null, null, i32 0, metadata !924} ; [ DW_TAG_subprogram ]
!920 = metadata !{i32 720917, i32 0, metadata !"", i32 0, i32 0, i64 0, i64 0, i32 0, i32 0, i32 0, metadata !921, i32 0, i32 0} ; [ DW_TAG_subroutine_type ]
!921 = metadata !{null, metadata !916, metadata !922}
!922 = metadata !{i32 720912, null, null, null, i32 0, i64 0, i64 0, i64 0, i32 0, metadata !923} ; [ DW_TAG_reference_type ]
!923 = metadata !{i32 720934, null, metadata !"", null, i32 0, i64 0, i64 0, i64 0, i32 0, metadata !910} ; [ DW_TAG_const_type ]
!924 = metadata !{metadata !925}
!925 = metadata !{i32 720932}                     ; [ DW_TAG_base_type ]
!926 = metadata !{i32 720942, i32 0, metadata !910, metadata !"~new_allocator", metadata !"~new_allocator", metadata !"", metadata !663, i32 76, metadata !914, i1 false, i1 false, i32 0, i32 0, null, i32 256, i1 false, null, null, i32 0, metadata !927} ; [ DW_TAG_subprogram ]
!927 = metadata !{metadata !928}
!928 = metadata !{i32 720932}                     ; [ DW_TAG_base_type ]
!929 = metadata !{i32 720942, i32 0, metadata !910, metadata !"address", metadata !"address", metadata !"_ZNK9__gnu_cxx13new_allocatorIcE7addressERc", metadata !663, i32 79, metadata !930, i1 false, i1 false, i32 0, i32 0, null, i32 256, i1 false, null, null, i32 0, metadata !936} ; [ DW_TAG_subprogram ]
!930 = metadata !{i32 720917, i32 0, metadata !"", i32 0, i32 0, i64 0, i64 0, i32 0, i32 0, i32 0, metadata !931, i32 0, i32 0} ; [ DW_TAG_subroutine_type ]
!931 = metadata !{metadata !932, metadata !933, metadata !934}
!932 = metadata !{i32 720918, metadata !910, metadata !"pointer", metadata !663, i32 59, i64 0, i64 0, i64 0, i32 0, metadata !753} ; [ DW_TAG_typedef ]
!933 = metadata !{i32 720911, i32 0, metadata !"", i32 0, i32 0, i64 32, i64 32, i64 0, i32 64, metadata !923} ; [ DW_TAG_pointer_type ]
!934 = metadata !{i32 720918, metadata !910, metadata !"reference", metadata !663, i32 61, i64 0, i64 0, i64 0, i32 0, metadata !935} ; [ DW_TAG_typedef ]
!935 = metadata !{i32 720912, null, null, null, i32 0, i64 0, i64 0, i64 0, i32 0, metadata !62} ; [ DW_TAG_reference_type ]
!936 = metadata !{metadata !937}
!937 = metadata !{i32 720932}                     ; [ DW_TAG_base_type ]
!938 = metadata !{i32 720942, i32 0, metadata !910, metadata !"address", metadata !"address", metadata !"_ZNK9__gnu_cxx13new_allocatorIcE7addressERKc", metadata !663, i32 82, metadata !939, i1 false, i1 false, i32 0, i32 0, null, i32 256, i1 false, null, null, i32 0, metadata !943} ; [ DW_TAG_subprogram ]
!939 = metadata !{i32 720917, i32 0, metadata !"", i32 0, i32 0, i64 0, i64 0, i32 0, i32 0, i32 0, metadata !940, i32 0, i32 0} ; [ DW_TAG_subroutine_type ]
!940 = metadata !{metadata !941, metadata !933, metadata !942}
!941 = metadata !{i32 720918, metadata !910, metadata !"const_pointer", metadata !663, i32 60, i64 0, i64 0, i64 0, i32 0, metadata !753} ; [ DW_TAG_typedef ]
!942 = metadata !{i32 720918, metadata !910, metadata !"const_reference", metadata !663, i32 62, i64 0, i64 0, i64 0, i32 0, metadata !935} ; [ DW_TAG_typedef ]
!943 = metadata !{metadata !944}
!944 = metadata !{i32 720932}                     ; [ DW_TAG_base_type ]
!945 = metadata !{i32 720942, i32 0, metadata !910, metadata !"allocate", metadata !"allocate", metadata !"_ZN9__gnu_cxx13new_allocatorIcE8allocateEjPKv", metadata !663, i32 87, metadata !946, i1 false, i1 false, i32 0, i32 0, null, i32 256, i1 false, null, null, i32 0, metadata !951} ; [ DW_TAG_subprogram ]
!946 = metadata !{i32 720917, i32 0, metadata !"", i32 0, i32 0, i64 0, i64 0, i32 0, i32 0, i32 0, metadata !947, i32 0, i32 0} ; [ DW_TAG_subroutine_type ]
!947 = metadata !{metadata !932, metadata !916, metadata !948, metadata !949}
!948 = metadata !{i32 720918, null, metadata !"size_type", metadata !663, i32 57, i64 0, i64 0, i64 0, i32 0, metadata !662} ; [ DW_TAG_typedef ]
!949 = metadata !{i32 720911, null, metadata !"", null, i32 0, i64 32, i64 32, i64 0, i32 0, metadata !950} ; [ DW_TAG_pointer_type ]
!950 = metadata !{i32 720934, null, metadata !"", null, i32 0, i64 0, i64 0, i64 0, i32 0, null} ; [ DW_TAG_const_type ]
!951 = metadata !{metadata !952}
!952 = metadata !{i32 720932}                     ; [ DW_TAG_base_type ]
!953 = metadata !{i32 720942, i32 0, metadata !910, metadata !"deallocate", metadata !"deallocate", metadata !"_ZN9__gnu_cxx13new_allocatorIcE10deallocateEPcj", metadata !663, i32 97, metadata !954, i1 false, i1 false, i32 0, i32 0, null, i32 256, i1 false, null, null, i32 0, metadata !956} ; [ DW_TAG_subprogram ]
!954 = metadata !{i32 720917, i32 0, metadata !"", i32 0, i32 0, i64 0, i64 0, i32 0, i32 0, i32 0, metadata !955, i32 0, i32 0} ; [ DW_TAG_subroutine_type ]
!955 = metadata !{null, metadata !916, metadata !932, metadata !948}
!956 = metadata !{metadata !957}
!957 = metadata !{i32 720932}                     ; [ DW_TAG_base_type ]
!958 = metadata !{i32 720942, i32 0, metadata !910, metadata !"max_size", metadata !"max_size", metadata !"_ZNK9__gnu_cxx13new_allocatorIcE8max_sizeEv", metadata !663, i32 101, metadata !959, i1 false, i1 false, i32 0, i32 0, null, i32 256, i1 false, null, null, i32 0, metadata !961} ; [ DW_TAG_subprogram ]
!959 = metadata !{i32 720917, i32 0, metadata !"", i32 0, i32 0, i64 0, i64 0, i32 0, i32 0, i32 0, metadata !960, i32 0, i32 0} ; [ DW_TAG_subroutine_type ]
!960 = metadata !{metadata !948, metadata !933}
!961 = metadata !{metadata !962}
!962 = metadata !{i32 720932}                     ; [ DW_TAG_base_type ]
!963 = metadata !{i32 720942, i32 0, metadata !910, metadata !"construct", metadata !"construct", metadata !"_ZN9__gnu_cxx13new_allocatorIcE9constructEPcRKc", metadata !663, i32 107, metadata !964, i1 false, i1 false, i32 0, i32 0, null, i32 256, i1 false, null, null, i32 0, metadata !966} ; [ DW_TAG_subprogram ]
!964 = metadata !{i32 720917, i32 0, metadata !"", i32 0, i32 0, i64 0, i64 0, i32 0, i32 0, i32 0, metadata !965, i32 0, i32 0} ; [ DW_TAG_subroutine_type ]
!965 = metadata !{null, metadata !916, metadata !932, metadata !935}
!966 = metadata !{metadata !967}
!967 = metadata !{i32 720932}                     ; [ DW_TAG_base_type ]
!968 = metadata !{i32 720942, i32 0, metadata !910, metadata !"destroy", metadata !"destroy", metadata !"_ZN9__gnu_cxx13new_allocatorIcE7destroyEPc", metadata !663, i32 118, metadata !969, i1 false, i1 false, i32 0, i32 0, null, i32 256, i1 false, null, null, i32 0, metadata !971} ; [ DW_TAG_subprogram ]
!969 = metadata !{i32 720917, i32 0, metadata !"", i32 0, i32 0, i64 0, i64 0, i32 0, i32 0, i32 0, metadata !970, i32 0, i32 0} ; [ DW_TAG_subroutine_type ]
!970 = metadata !{null, metadata !916, metadata !932}
!971 = metadata !{metadata !972}
!972 = metadata !{i32 720932}                     ; [ DW_TAG_base_type ]
!973 = metadata !{metadata !974}
!974 = metadata !{i32 720943, null, metadata !"_Tp", metadata !62, null, i32 0, i32 0} ; [ DW_TAG_template_type_parameter ]
!975 = metadata !{i32 720942, i32 0, metadata !905, metadata !"allocator", metadata !"allocator", metadata !"", metadata !907, i32 107, metadata !976, i1 false, i1 false, i32 0, i32 0, null, i32 256, i1 false, null, null, i32 0, metadata !979} ; [ DW_TAG_subprogram ]
!976 = metadata !{i32 720917, i32 0, metadata !"", i32 0, i32 0, i64 0, i64 0, i32 0, i32 0, i32 0, metadata !977, i32 0, i32 0} ; [ DW_TAG_subroutine_type ]
!977 = metadata !{null, metadata !978}
!978 = metadata !{i32 720911, i32 0, metadata !"", i32 0, i32 0, i64 32, i64 32, i64 0, i32 64, metadata !905} ; [ DW_TAG_pointer_type ]
!979 = metadata !{metadata !980}
!980 = metadata !{i32 720932}                     ; [ DW_TAG_base_type ]
!981 = metadata !{i32 720942, i32 0, metadata !905, metadata !"allocator", metadata !"allocator", metadata !"", metadata !907, i32 109, metadata !982, i1 false, i1 false, i32 0, i32 0, null, i32 256, i1 false, null, null, i32 0, metadata !986} ; [ DW_TAG_subprogram ]
!982 = metadata !{i32 720917, i32 0, metadata !"", i32 0, i32 0, i64 0, i64 0, i32 0, i32 0, i32 0, metadata !983, i32 0, i32 0} ; [ DW_TAG_subroutine_type ]
!983 = metadata !{null, metadata !978, metadata !984}
!984 = metadata !{i32 720912, null, null, null, i32 0, i64 0, i64 0, i64 0, i32 0, metadata !985} ; [ DW_TAG_reference_type ]
!985 = metadata !{i32 720934, null, metadata !"", null, i32 0, i64 0, i64 0, i64 0, i32 0, metadata !905} ; [ DW_TAG_const_type ]
!986 = metadata !{metadata !987}
!987 = metadata !{i32 720932}                     ; [ DW_TAG_base_type ]
!988 = metadata !{i32 720942, i32 0, metadata !905, metadata !"~allocator", metadata !"~allocator", metadata !"", metadata !907, i32 115, metadata !976, i1 false, i1 false, i32 0, i32 0, null, i32 256, i1 false, null, null, i32 0, metadata !989} ; [ DW_TAG_subprogram ]
!989 = metadata !{metadata !990}
!990 = metadata !{i32 720932}                     ; [ DW_TAG_base_type ]
!991 = metadata !{i32 720909, metadata !902, metadata !"_M_p", metadata !602, i32 271, i64 32, i64 32, i64 0, i32 0, metadata !753} ; [ DW_TAG_member ]
!992 = metadata !{i32 720942, i32 0, metadata !902, metadata !"_Alloc_hider", metadata !"_Alloc_hider", metadata !"", metadata !602, i32 268, metadata !993, i1 false, i1 false, i32 0, i32 0, null, i32 256, i1 false, null, null, i32 0, metadata !997} ; [ DW_TAG_subprogram ]
!993 = metadata !{i32 720917, i32 0, metadata !"", i32 0, i32 0, i64 0, i64 0, i32 0, i32 0, i32 0, metadata !994, i32 0, i32 0} ; [ DW_TAG_subroutine_type ]
!994 = metadata !{null, metadata !995, metadata !753, metadata !996}
!995 = metadata !{i32 720911, i32 0, metadata !"", i32 0, i32 0, i64 32, i64 32, i64 0, i32 64, metadata !902} ; [ DW_TAG_pointer_type ]
!996 = metadata !{i32 720912, null, null, null, i32 0, i64 0, i64 0, i64 0, i32 0, metadata !905} ; [ DW_TAG_reference_type ]
!997 = metadata !{metadata !998}
!998 = metadata !{i32 720932}                     ; [ DW_TAG_base_type ]
!999 = metadata !{i32 720942, i32 0, metadata !898, metadata !"_M_data", metadata !"_M_data", metadata !"_ZNKSs7_M_dataEv", metadata !602, i32 286, metadata !1000, i1 false, i1 false, i32 0, i32 0, null, i32 257, i1 false, null, null, i32 0, metadata !1004} ; [ DW_TAG_subprogram ]
!1000 = metadata !{i32 720917, i32 0, metadata !"", i32 0, i32 0, i64 0, i64 0, i32 0, i32 0, i32 0, metadata !1001, i32 0, i32 0} ; [ DW_TAG_subroutine_type ]
!1001 = metadata !{metadata !753, metadata !1002}
!1002 = metadata !{i32 720911, i32 0, metadata !"", i32 0, i32 0, i64 32, i64 32, i64 0, i32 64, metadata !1003} ; [ DW_TAG_pointer_type ]
!1003 = metadata !{i32 720934, null, metadata !"", null, i32 0, i64 0, i64 0, i64 0, i32 0, metadata !898} ; [ DW_TAG_const_type ]
!1004 = metadata !{metadata !1005}
!1005 = metadata !{i32 720932}                    ; [ DW_TAG_base_type ]
!1006 = metadata !{i32 720942, i32 0, metadata !898, metadata !"_M_data", metadata !"_M_data", metadata !"_ZNSs7_M_dataEPc", metadata !602, i32 290, metadata !1007, i1 false, i1 false, i32 0, i32 0, null, i32 257, i1 false, null, null, i32 0, metadata !1010} ; [ DW_TAG_subprogram ]
!1007 = metadata !{i32 720917, i32 0, metadata !"", i32 0, i32 0, i64 0, i64 0, i32 0, i32 0, i32 0, metadata !1008, i32 0, i32 0} ; [ DW_TAG_subroutine_type ]
!1008 = metadata !{metadata !753, metadata !1009, metadata !753}
!1009 = metadata !{i32 720911, i32 0, metadata !"", i32 0, i32 0, i64 32, i64 32, i64 0, i32 64, metadata !898} ; [ DW_TAG_pointer_type ]
!1010 = metadata !{metadata !1011}
!1011 = metadata !{i32 720932}                    ; [ DW_TAG_base_type ]
!1012 = metadata !{i32 720942, i32 0, metadata !898, metadata !"_M_rep", metadata !"_M_rep", metadata !"_ZNKSs6_M_repEv", metadata !602, i32 294, metadata !1013, i1 false, i1 false, i32 0, i32 0, null, i32 257, i1 false, null, null, i32 0, metadata !1087} ; [ DW_TAG_subprogram ]
!1013 = metadata !{i32 720917, i32 0, metadata !"", i32 0, i32 0, i64 0, i64 0, i32 0, i32 0, i32 0, metadata !1014, i32 0, i32 0} ; [ DW_TAG_subroutine_type ]
!1014 = metadata !{metadata !1015, metadata !1002}
!1015 = metadata !{i32 720911, null, metadata !"", null, i32 0, i64 32, i64 32, i64 0, i32 0, metadata !1016} ; [ DW_TAG_pointer_type ]
!1016 = metadata !{i32 720898, metadata !898, metadata !"_Rep", metadata !602, i32 149, i64 96, i64 32, i32 0, i32 0, null, metadata !1017, i32 0, null, null} ; [ DW_TAG_class_type ]
!1017 = metadata !{metadata !1018, metadata !1026, metadata !1032, metadata !1039, metadata !1042, metadata !1048, metadata !1051, metadata !1056, metadata !1061, metadata !1066, metadata !1071, metadata !1076, metadata !1079, metadata !1082}
!1018 = metadata !{i32 720924, metadata !1016, null, metadata !602, i32 0, i64 0, i64 0, i64 0, i32 0, metadata !1019} ; [ DW_TAG_inheritance ]
!1019 = metadata !{i32 720898, metadata !898, metadata !"_Rep_base", metadata !602, i32 142, i64 96, i64 32, i32 0, i32 0, null, metadata !1020, i32 0, null, null} ; [ DW_TAG_class_type ]
!1020 = metadata !{metadata !1021, metadata !1024, metadata !1025}
!1021 = metadata !{i32 720909, metadata !1019, metadata !"_M_length", metadata !602, i32 144, i64 32, i64 32, i64 0, i32 0, metadata !1022} ; [ DW_TAG_member ]
!1022 = metadata !{i32 720918, metadata !898, metadata !"size_type", metadata !602, i32 115, i64 0, i64 0, i64 0, i32 0, metadata !1023} ; [ DW_TAG_typedef ]
!1023 = metadata !{i32 720918, metadata !905, metadata !"size_type", metadata !602, i32 95, i64 0, i64 0, i64 0, i32 0, metadata !662} ; [ DW_TAG_typedef ]
!1024 = metadata !{i32 720909, metadata !1019, metadata !"_M_capacity", metadata !602, i32 145, i64 32, i64 32, i64 32, i32 0, metadata !1022} ; [ DW_TAG_member ]
!1025 = metadata !{i32 720909, metadata !1019, metadata !"_M_refcount", metadata !602, i32 146, i64 32, i64 32, i64 64, i32 0, metadata !601} ; [ DW_TAG_member ]
!1026 = metadata !{i32 720942, i32 0, metadata !1016, metadata !"_S_empty_rep", metadata !"_S_empty_rep", metadata !"_ZNSs4_Rep12_S_empty_repEv", metadata !602, i32 175, metadata !1027, i1 false, i1 false, i32 0, i32 0, null, i32 256, i1 false, null, null, i32 0, metadata !1030} ; [ DW_TAG_subprogram ]
!1027 = metadata !{i32 720917, i32 0, metadata !"", i32 0, i32 0, i64 0, i64 0, i32 0, i32 0, i32 0, metadata !1028, i32 0, i32 0} ; [ DW_TAG_subroutine_type ]
!1028 = metadata !{metadata !1029}
!1029 = metadata !{i32 720912, null, null, null, i32 0, i64 0, i64 0, i64 0, i32 0, metadata !1016} ; [ DW_TAG_reference_type ]
!1030 = metadata !{metadata !1031}
!1031 = metadata !{i32 720932}                    ; [ DW_TAG_base_type ]
!1032 = metadata !{i32 720942, i32 0, metadata !1016, metadata !"_M_is_leaked", metadata !"_M_is_leaked", metadata !"_ZNKSs4_Rep12_M_is_leakedEv", metadata !602, i32 185, metadata !1033, i1 false, i1 false, i32 0, i32 0, null, i32 256, i1 false, null, null, i32 0, metadata !1037} ; [ DW_TAG_subprogram ]
!1033 = metadata !{i32 720917, i32 0, metadata !"", i32 0, i32 0, i64 0, i64 0, i32 0, i32 0, i32 0, metadata !1034, i32 0, i32 0} ; [ DW_TAG_subroutine_type ]
!1034 = metadata !{metadata !199, metadata !1035}
!1035 = metadata !{i32 720911, i32 0, metadata !"", i32 0, i32 0, i64 32, i64 32, i64 0, i32 64, metadata !1036} ; [ DW_TAG_pointer_type ]
!1036 = metadata !{i32 720934, null, metadata !"", null, i32 0, i64 0, i64 0, i64 0, i32 0, metadata !1016} ; [ DW_TAG_const_type ]
!1037 = metadata !{metadata !1038}
!1038 = metadata !{i32 720932}                    ; [ DW_TAG_base_type ]
!1039 = metadata !{i32 720942, i32 0, metadata !1016, metadata !"_M_is_shared", metadata !"_M_is_shared", metadata !"_ZNKSs4_Rep12_M_is_sharedEv", metadata !602, i32 189, metadata !1033, i1 false, i1 false, i32 0, i32 0, null, i32 256, i1 false, null, null, i32 0, metadata !1040} ; [ DW_TAG_subprogram ]
!1040 = metadata !{metadata !1041}
!1041 = metadata !{i32 720932}                    ; [ DW_TAG_base_type ]
!1042 = metadata !{i32 720942, i32 0, metadata !1016, metadata !"_M_set_leaked", metadata !"_M_set_leaked", metadata !"_ZNSs4_Rep13_M_set_leakedEv", metadata !602, i32 193, metadata !1043, i1 false, i1 false, i32 0, i32 0, null, i32 256, i1 false, null, null, i32 0, metadata !1046} ; [ DW_TAG_subprogram ]
!1043 = metadata !{i32 720917, i32 0, metadata !"", i32 0, i32 0, i64 0, i64 0, i32 0, i32 0, i32 0, metadata !1044, i32 0, i32 0} ; [ DW_TAG_subroutine_type ]
!1044 = metadata !{null, metadata !1045}
!1045 = metadata !{i32 720911, i32 0, metadata !"", i32 0, i32 0, i64 32, i64 32, i64 0, i32 64, metadata !1016} ; [ DW_TAG_pointer_type ]
!1046 = metadata !{metadata !1047}
!1047 = metadata !{i32 720932}                    ; [ DW_TAG_base_type ]
!1048 = metadata !{i32 720942, i32 0, metadata !1016, metadata !"_M_set_sharable", metadata !"_M_set_sharable", metadata !"_ZNSs4_Rep15_M_set_sharableEv", metadata !602, i32 197, metadata !1043, i1 false, i1 false, i32 0, i32 0, null, i32 256, i1 false, null, null, i32 0, metadata !1049} ; [ DW_TAG_subprogram ]
!1049 = metadata !{metadata !1050}
!1050 = metadata !{i32 720932}                    ; [ DW_TAG_base_type ]
!1051 = metadata !{i32 720942, i32 0, metadata !1016, metadata !"_M_set_length_and_sharable", metadata !"_M_set_length_and_sharable", metadata !"_ZNSs4_Rep26_M_set_length_and_sharableEj", metadata !602, i32 201, metadata !1052, i1 false, i1 false, i32 0, i32 0, null, i32 256, i1 false, null, null, i32 0, metadata !1054} ; [ DW_TAG_subprogram ]
!1052 = metadata !{i32 720917, i32 0, metadata !"", i32 0, i32 0, i64 0, i64 0, i32 0, i32 0, i32 0, metadata !1053, i32 0, i32 0} ; [ DW_TAG_subroutine_type ]
!1053 = metadata !{null, metadata !1045, metadata !1022}
!1054 = metadata !{metadata !1055}
!1055 = metadata !{i32 720932}                    ; [ DW_TAG_base_type ]
!1056 = metadata !{i32 720942, i32 0, metadata !1016, metadata !"_M_refdata", metadata !"_M_refdata", metadata !"_ZNSs4_Rep10_M_refdataEv", metadata !602, i32 216, metadata !1057, i1 false, i1 false, i32 0, i32 0, null, i32 256, i1 false, null, null, i32 0, metadata !1059} ; [ DW_TAG_subprogram ]
!1057 = metadata !{i32 720917, i32 0, metadata !"", i32 0, i32 0, i64 0, i64 0, i32 0, i32 0, i32 0, metadata !1058, i32 0, i32 0} ; [ DW_TAG_subroutine_type ]
!1058 = metadata !{metadata !753, metadata !1045}
!1059 = metadata !{metadata !1060}
!1060 = metadata !{i32 720932}                    ; [ DW_TAG_base_type ]
!1061 = metadata !{i32 720942, i32 0, metadata !1016, metadata !"_M_grab", metadata !"_M_grab", metadata !"_ZNSs4_Rep7_M_grabERKSaIcES2_", metadata !602, i32 220, metadata !1062, i1 false, i1 false, i32 0, i32 0, null, i32 256, i1 false, null, null, i32 0, metadata !1064} ; [ DW_TAG_subprogram ]
!1062 = metadata !{i32 720917, i32 0, metadata !"", i32 0, i32 0, i64 0, i64 0, i32 0, i32 0, i32 0, metadata !1063, i32 0, i32 0} ; [ DW_TAG_subroutine_type ]
!1063 = metadata !{metadata !753, metadata !1045, metadata !996, metadata !996}
!1064 = metadata !{metadata !1065}
!1065 = metadata !{i32 720932}                    ; [ DW_TAG_base_type ]
!1066 = metadata !{i32 720942, i32 0, metadata !1016, metadata !"_S_create", metadata !"_S_create", metadata !"_ZNSs4_Rep9_S_createEjjRKSaIcE", metadata !602, i32 228, metadata !1067, i1 false, i1 false, i32 0, i32 0, null, i32 256, i1 false, null, null, i32 0, metadata !1069} ; [ DW_TAG_subprogram ]
!1067 = metadata !{i32 720917, i32 0, metadata !"", i32 0, i32 0, i64 0, i64 0, i32 0, i32 0, i32 0, metadata !1068, i32 0, i32 0} ; [ DW_TAG_subroutine_type ]
!1068 = metadata !{metadata !1045, metadata !1022, metadata !1022, metadata !996}
!1069 = metadata !{metadata !1070}
!1070 = metadata !{i32 720932}                    ; [ DW_TAG_base_type ]
!1071 = metadata !{i32 720942, i32 0, metadata !1016, metadata !"_M_dispose", metadata !"_M_dispose", metadata !"_ZNSs4_Rep10_M_disposeERKSaIcE", metadata !602, i32 231, metadata !1072, i1 false, i1 false, i32 0, i32 0, null, i32 256, i1 false, null, null, i32 0, metadata !1074} ; [ DW_TAG_subprogram ]
!1072 = metadata !{i32 720917, i32 0, metadata !"", i32 0, i32 0, i64 0, i64 0, i32 0, i32 0, i32 0, metadata !1073, i32 0, i32 0} ; [ DW_TAG_subroutine_type ]
!1073 = metadata !{null, metadata !1045, metadata !996}
!1074 = metadata !{metadata !1075}
!1075 = metadata !{i32 720932}                    ; [ DW_TAG_base_type ]
!1076 = metadata !{i32 720942, i32 0, metadata !1016, metadata !"_M_destroy", metadata !"_M_destroy", metadata !"_ZNSs4_Rep10_M_destroyERKSaIcE", metadata !602, i32 249, metadata !1072, i1 false, i1 false, i32 0, i32 0, null, i32 256, i1 false, null, null, i32 0, metadata !1077} ; [ DW_TAG_subprogram ]
!1077 = metadata !{metadata !1078}
!1078 = metadata !{i32 720932}                    ; [ DW_TAG_base_type ]
!1079 = metadata !{i32 720942, i32 0, metadata !1016, metadata !"_M_refcopy", metadata !"_M_refcopy", metadata !"_ZNSs4_Rep10_M_refcopyEv", metadata !602, i32 252, metadata !1057, i1 false, i1 false, i32 0, i32 0, null, i32 256, i1 false, null, null, i32 0, metadata !1080} ; [ DW_TAG_subprogram ]
!1080 = metadata !{metadata !1081}
!1081 = metadata !{i32 720932}                    ; [ DW_TAG_base_type ]
!1082 = metadata !{i32 720942, i32 0, metadata !1016, metadata !"_M_clone", metadata !"_M_clone", metadata !"_ZNSs4_Rep8_M_cloneERKSaIcEj", metadata !602, i32 262, metadata !1083, i1 false, i1 false, i32 0, i32 0, null, i32 256, i1 false, null, null, i32 0, metadata !1085} ; [ DW_TAG_subprogram ]
!1083 = metadata !{i32 720917, i32 0, metadata !"", i32 0, i32 0, i64 0, i64 0, i32 0, i32 0, i32 0, metadata !1084, i32 0, i32 0} ; [ DW_TAG_subroutine_type ]
!1084 = metadata !{metadata !753, metadata !1045, metadata !996, metadata !1022}
!1085 = metadata !{metadata !1086}
!1086 = metadata !{i32 720932}                    ; [ DW_TAG_base_type ]
!1087 = metadata !{metadata !1088}
!1088 = metadata !{i32 720932}                    ; [ DW_TAG_base_type ]
!1089 = metadata !{i32 720942, i32 0, metadata !898, metadata !"_M_ibegin", metadata !"_M_ibegin", metadata !"_ZNKSs9_M_ibeginEv", metadata !602, i32 300, metadata !1090, i1 false, i1 false, i32 0, i32 0, null, i32 257, i1 false, null, null, i32 0, metadata !1096} ; [ DW_TAG_subprogram ]
!1090 = metadata !{i32 720917, i32 0, metadata !"", i32 0, i32 0, i64 0, i64 0, i32 0, i32 0, i32 0, metadata !1091, i32 0, i32 0} ; [ DW_TAG_subroutine_type ]
!1091 = metadata !{metadata !1092, metadata !1002}
!1092 = metadata !{i32 720918, metadata !898, metadata !"iterator", metadata !899, i32 121, i64 0, i64 0, i64 0, i32 0, metadata !1093} ; [ DW_TAG_typedef ]
!1093 = metadata !{i32 720915, metadata !1094, metadata !"__normal_iterator", metadata !1095, i32 702, i64 0, i64 0, i32 0, i32 4, i32 0, null, i32 0, i32 0} ; [ DW_TAG_structure_type ]
!1094 = metadata !{i32 720953, null, metadata !"__gnu_cxx", metadata !1095, i32 688} ; [ DW_TAG_namespace ]
!1095 = metadata !{i32 720937, metadata !"/usr/lib/gcc/i686-linux-gnu/4.6/../../../../include/c++/4.6/bits/stl_iterator.h", metadata !"/home/bxl/nacl-app/fruit-click-read-only/fruitclick-nacl", null} ; [ DW_TAG_file_type ]
!1096 = metadata !{metadata !1097}
!1097 = metadata !{i32 720932}                    ; [ DW_TAG_base_type ]
!1098 = metadata !{i32 720942, i32 0, metadata !898, metadata !"_M_iend", metadata !"_M_iend", metadata !"_ZNKSs7_M_iendEv", metadata !602, i32 304, metadata !1090, i1 false, i1 false, i32 0, i32 0, null, i32 257, i1 false, null, null, i32 0, metadata !1099} ; [ DW_TAG_subprogram ]
!1099 = metadata !{metadata !1100}
!1100 = metadata !{i32 720932}                    ; [ DW_TAG_base_type ]
!1101 = metadata !{i32 720942, i32 0, metadata !898, metadata !"_M_leak", metadata !"_M_leak", metadata !"_ZNSs7_M_leakEv", metadata !602, i32 308, metadata !1102, i1 false, i1 false, i32 0, i32 0, null, i32 257, i1 false, null, null, i32 0, metadata !1104} ; [ DW_TAG_subprogram ]
!1102 = metadata !{i32 720917, i32 0, metadata !"", i32 0, i32 0, i64 0, i64 0, i32 0, i32 0, i32 0, metadata !1103, i32 0, i32 0} ; [ DW_TAG_subroutine_type ]
!1103 = metadata !{null, metadata !1009}
!1104 = metadata !{metadata !1105}
!1105 = metadata !{i32 720932}                    ; [ DW_TAG_base_type ]
!1106 = metadata !{i32 720942, i32 0, metadata !898, metadata !"_M_check", metadata !"_M_check", metadata !"_ZNKSs8_M_checkEjPKc", metadata !602, i32 315, metadata !1107, i1 false, i1 false, i32 0, i32 0, null, i32 257, i1 false, null, null, i32 0, metadata !1109} ; [ DW_TAG_subprogram ]
!1107 = metadata !{i32 720917, i32 0, metadata !"", i32 0, i32 0, i64 0, i64 0, i32 0, i32 0, i32 0, metadata !1108, i32 0, i32 0} ; [ DW_TAG_subroutine_type ]
!1108 = metadata !{metadata !1022, metadata !1002, metadata !1022, metadata !60}
!1109 = metadata !{metadata !1110}
!1110 = metadata !{i32 720932}                    ; [ DW_TAG_base_type ]
!1111 = metadata !{i32 720942, i32 0, metadata !898, metadata !"_M_check_length", metadata !"_M_check_length", metadata !"_ZNKSs15_M_check_lengthEjjPKc", metadata !602, i32 323, metadata !1112, i1 false, i1 false, i32 0, i32 0, null, i32 257, i1 false, null, null, i32 0, metadata !1114} ; [ DW_TAG_subprogram ]
!1112 = metadata !{i32 720917, i32 0, metadata !"", i32 0, i32 0, i64 0, i64 0, i32 0, i32 0, i32 0, metadata !1113, i32 0, i32 0} ; [ DW_TAG_subroutine_type ]
!1113 = metadata !{null, metadata !1002, metadata !1022, metadata !1022, metadata !60}
!1114 = metadata !{metadata !1115}
!1115 = metadata !{i32 720932}                    ; [ DW_TAG_base_type ]
!1116 = metadata !{i32 720942, i32 0, metadata !898, metadata !"_M_limit", metadata !"_M_limit", metadata !"_ZNKSs8_M_limitEjj", metadata !602, i32 331, metadata !1117, i1 false, i1 false, i32 0, i32 0, null, i32 257, i1 false, null, null, i32 0, metadata !1119} ; [ DW_TAG_subprogram ]
!1117 = metadata !{i32 720917, i32 0, metadata !"", i32 0, i32 0, i64 0, i64 0, i32 0, i32 0, i32 0, metadata !1118, i32 0, i32 0} ; [ DW_TAG_subroutine_type ]
!1118 = metadata !{metadata !1022, metadata !1002, metadata !1022, metadata !1022}
!1119 = metadata !{metadata !1120}
!1120 = metadata !{i32 720932}                    ; [ DW_TAG_base_type ]
!1121 = metadata !{i32 720942, i32 0, metadata !898, metadata !"_M_disjunct", metadata !"_M_disjunct", metadata !"_ZNKSs11_M_disjunctEPKc", metadata !602, i32 339, metadata !1122, i1 false, i1 false, i32 0, i32 0, null, i32 257, i1 false, null, null, i32 0, metadata !1124} ; [ DW_TAG_subprogram ]
!1122 = metadata !{i32 720917, i32 0, metadata !"", i32 0, i32 0, i64 0, i64 0, i32 0, i32 0, i32 0, metadata !1123, i32 0, i32 0} ; [ DW_TAG_subroutine_type ]
!1123 = metadata !{metadata !199, metadata !1002, metadata !753}
!1124 = metadata !{metadata !1125}
!1125 = metadata !{i32 720932}                    ; [ DW_TAG_base_type ]
!1126 = metadata !{i32 720942, i32 0, metadata !898, metadata !"_M_copy", metadata !"_M_copy", metadata !"_ZNSs7_M_copyEPcPKcj", metadata !602, i32 348, metadata !1127, i1 false, i1 false, i32 0, i32 0, null, i32 257, i1 false, null, null, i32 0, metadata !1129} ; [ DW_TAG_subprogram ]
!1127 = metadata !{i32 720917, i32 0, metadata !"", i32 0, i32 0, i64 0, i64 0, i32 0, i32 0, i32 0, metadata !1128, i32 0, i32 0} ; [ DW_TAG_subroutine_type ]
!1128 = metadata !{null, metadata !753, metadata !753, metadata !1022}
!1129 = metadata !{metadata !1130}
!1130 = metadata !{i32 720932}                    ; [ DW_TAG_base_type ]
!1131 = metadata !{i32 720942, i32 0, metadata !898, metadata !"_M_move", metadata !"_M_move", metadata !"_ZNSs7_M_moveEPcPKcj", metadata !602, i32 357, metadata !1127, i1 false, i1 false, i32 0, i32 0, null, i32 257, i1 false, null, null, i32 0, metadata !1132} ; [ DW_TAG_subprogram ]
!1132 = metadata !{metadata !1133}
!1133 = metadata !{i32 720932}                    ; [ DW_TAG_base_type ]
!1134 = metadata !{i32 720942, i32 0, metadata !898, metadata !"_M_assign", metadata !"_M_assign", metadata !"_ZNSs9_M_assignEPcjc", metadata !602, i32 366, metadata !1135, i1 false, i1 false, i32 0, i32 0, null, i32 257, i1 false, null, null, i32 0, metadata !1137} ; [ DW_TAG_subprogram ]
!1135 = metadata !{i32 720917, i32 0, metadata !"", i32 0, i32 0, i64 0, i64 0, i32 0, i32 0, i32 0, metadata !1136, i32 0, i32 0} ; [ DW_TAG_subroutine_type ]
!1136 = metadata !{null, metadata !753, metadata !1022, metadata !62}
!1137 = metadata !{metadata !1138}
!1138 = metadata !{i32 720932}                    ; [ DW_TAG_base_type ]
!1139 = metadata !{i32 720942, i32 0, metadata !898, metadata !"_S_copy_chars", metadata !"_S_copy_chars", metadata !"_ZNSs13_S_copy_charsEPcN9__gnu_cxx17__normal_iteratorIS_SsEES2_", metadata !602, i32 385, metadata !1140, i1 false, i1 false, i32 0, i32 0, null, i32 257, i1 false, null, null, i32 0, metadata !1142} ; [ DW_TAG_subprogram ]
!1140 = metadata !{i32 720917, i32 0, metadata !"", i32 0, i32 0, i64 0, i64 0, i32 0, i32 0, i32 0, metadata !1141, i32 0, i32 0} ; [ DW_TAG_subroutine_type ]
!1141 = metadata !{null, metadata !753, metadata !1092, metadata !1092}
!1142 = metadata !{metadata !1143}
!1143 = metadata !{i32 720932}                    ; [ DW_TAG_base_type ]
!1144 = metadata !{i32 720942, i32 0, metadata !898, metadata !"_S_copy_chars", metadata !"_S_copy_chars", metadata !"_ZNSs13_S_copy_charsEPcN9__gnu_cxx17__normal_iteratorIPKcSsEES4_", metadata !602, i32 389, metadata !1145, i1 false, i1 false, i32 0, i32 0, null, i32 257, i1 false, null, null, i32 0, metadata !1148} ; [ DW_TAG_subprogram ]
!1145 = metadata !{i32 720917, i32 0, metadata !"", i32 0, i32 0, i64 0, i64 0, i32 0, i32 0, i32 0, metadata !1146, i32 0, i32 0} ; [ DW_TAG_subroutine_type ]
!1146 = metadata !{null, metadata !753, metadata !1147, metadata !1147}
!1147 = metadata !{i32 720918, metadata !898, metadata !"const_iterator", metadata !899, i32 123, i64 0, i64 0, i64 0, i32 0, metadata !1093} ; [ DW_TAG_typedef ]
!1148 = metadata !{metadata !1149}
!1149 = metadata !{i32 720932}                    ; [ DW_TAG_base_type ]
!1150 = metadata !{i32 720942, i32 0, metadata !898, metadata !"_S_copy_chars", metadata !"_S_copy_chars", metadata !"_ZNSs13_S_copy_charsEPcS_S_", metadata !602, i32 393, metadata !1151, i1 false, i1 false, i32 0, i32 0, null, i32 257, i1 false, null, null, i32 0, metadata !1153} ; [ DW_TAG_subprogram ]
!1151 = metadata !{i32 720917, i32 0, metadata !"", i32 0, i32 0, i64 0, i64 0, i32 0, i32 0, i32 0, metadata !1152, i32 0, i32 0} ; [ DW_TAG_subroutine_type ]
!1152 = metadata !{null, metadata !753, metadata !753, metadata !753}
!1153 = metadata !{metadata !1154}
!1154 = metadata !{i32 720932}                    ; [ DW_TAG_base_type ]
!1155 = metadata !{i32 720942, i32 0, metadata !898, metadata !"_S_copy_chars", metadata !"_S_copy_chars", metadata !"_ZNSs13_S_copy_charsEPcPKcS1_", metadata !602, i32 397, metadata !1151, i1 false, i1 false, i32 0, i32 0, null, i32 257, i1 false, null, null, i32 0, metadata !1156} ; [ DW_TAG_subprogram ]
!1156 = metadata !{metadata !1157}
!1157 = metadata !{i32 720932}                    ; [ DW_TAG_base_type ]
!1158 = metadata !{i32 720942, i32 0, metadata !898, metadata !"_S_compare", metadata !"_S_compare", metadata !"_ZNSs10_S_compareEjj", metadata !602, i32 401, metadata !1159, i1 false, i1 false, i32 0, i32 0, null, i32 257, i1 false, null, null, i32 0, metadata !1161} ; [ DW_TAG_subprogram ]
!1159 = metadata !{i32 720917, i32 0, metadata !"", i32 0, i32 0, i64 0, i64 0, i32 0, i32 0, i32 0, metadata !1160, i32 0, i32 0} ; [ DW_TAG_subroutine_type ]
!1160 = metadata !{metadata !42, metadata !1022, metadata !1022}
!1161 = metadata !{metadata !1162}
!1162 = metadata !{i32 720932}                    ; [ DW_TAG_base_type ]
!1163 = metadata !{i32 720942, i32 0, metadata !898, metadata !"_M_mutate", metadata !"_M_mutate", metadata !"_ZNSs9_M_mutateEjjj", metadata !602, i32 414, metadata !1164, i1 false, i1 false, i32 0, i32 0, null, i32 257, i1 false, null, null, i32 0, metadata !1166} ; [ DW_TAG_subprogram ]
!1164 = metadata !{i32 720917, i32 0, metadata !"", i32 0, i32 0, i64 0, i64 0, i32 0, i32 0, i32 0, metadata !1165, i32 0, i32 0} ; [ DW_TAG_subroutine_type ]
!1165 = metadata !{null, metadata !1009, metadata !1022, metadata !1022, metadata !1022}
!1166 = metadata !{metadata !1167}
!1167 = metadata !{i32 720932}                    ; [ DW_TAG_base_type ]
!1168 = metadata !{i32 720942, i32 0, metadata !898, metadata !"_M_leak_hard", metadata !"_M_leak_hard", metadata !"_ZNSs12_M_leak_hardEv", metadata !602, i32 417, metadata !1102, i1 false, i1 false, i32 0, i32 0, null, i32 257, i1 false, null, null, i32 0, metadata !1169} ; [ DW_TAG_subprogram ]
!1169 = metadata !{metadata !1170}
!1170 = metadata !{i32 720932}                    ; [ DW_TAG_base_type ]
!1171 = metadata !{i32 720942, i32 0, metadata !898, metadata !"_S_empty_rep", metadata !"_S_empty_rep", metadata !"_ZNSs12_S_empty_repEv", metadata !602, i32 420, metadata !1027, i1 false, i1 false, i32 0, i32 0, null, i32 257, i1 false, null, null, i32 0, metadata !1172} ; [ DW_TAG_subprogram ]
!1172 = metadata !{metadata !1173}
!1173 = metadata !{i32 720932}                    ; [ DW_TAG_base_type ]
!1174 = metadata !{i32 720942, i32 0, metadata !898, metadata !"basic_string", metadata !"basic_string", metadata !"", metadata !602, i32 431, metadata !1102, i1 false, i1 false, i32 0, i32 0, null, i32 256, i1 false, null, null, i32 0, metadata !1175} ; [ DW_TAG_subprogram ]
!1175 = metadata !{metadata !1176}
!1176 = metadata !{i32 720932}                    ; [ DW_TAG_base_type ]
!1177 = metadata !{i32 720942, i32 0, metadata !898, metadata !"basic_string", metadata !"basic_string", metadata !"", metadata !602, i32 442, metadata !1178, i1 false, i1 false, i32 0, i32 0, null, i32 384, i1 false, null, null, i32 0, metadata !1180} ; [ DW_TAG_subprogram ]
!1178 = metadata !{i32 720917, i32 0, metadata !"", i32 0, i32 0, i64 0, i64 0, i32 0, i32 0, i32 0, metadata !1179, i32 0, i32 0} ; [ DW_TAG_subroutine_type ]
!1179 = metadata !{null, metadata !1009, metadata !996}
!1180 = metadata !{metadata !1181}
!1181 = metadata !{i32 720932}                    ; [ DW_TAG_base_type ]
!1182 = metadata !{i32 720942, i32 0, metadata !898, metadata !"basic_string", metadata !"basic_string", metadata !"", metadata !602, i32 449, metadata !1183, i1 false, i1 false, i32 0, i32 0, null, i32 256, i1 false, null, null, i32 0, metadata !1186} ; [ DW_TAG_subprogram ]
!1183 = metadata !{i32 720917, i32 0, metadata !"", i32 0, i32 0, i64 0, i64 0, i32 0, i32 0, i32 0, metadata !1184, i32 0, i32 0} ; [ DW_TAG_subroutine_type ]
!1184 = metadata !{null, metadata !1009, metadata !1185}
!1185 = metadata !{i32 720912, null, null, null, i32 0, i64 0, i64 0, i64 0, i32 0, metadata !1003} ; [ DW_TAG_reference_type ]
!1186 = metadata !{metadata !1187}
!1187 = metadata !{i32 720932}                    ; [ DW_TAG_base_type ]
!1188 = metadata !{i32 720942, i32 0, metadata !898, metadata !"basic_string", metadata !"basic_string", metadata !"", metadata !602, i32 456, metadata !1189, i1 false, i1 false, i32 0, i32 0, null, i32 256, i1 false, null, null, i32 0, metadata !1191} ; [ DW_TAG_subprogram ]
!1189 = metadata !{i32 720917, i32 0, metadata !"", i32 0, i32 0, i64 0, i64 0, i32 0, i32 0, i32 0, metadata !1190, i32 0, i32 0} ; [ DW_TAG_subroutine_type ]
!1190 = metadata !{null, metadata !1009, metadata !1185, metadata !1022, metadata !1022}
!1191 = metadata !{metadata !1192}
!1192 = metadata !{i32 720932}                    ; [ DW_TAG_base_type ]
!1193 = metadata !{i32 720942, i32 0, metadata !898, metadata !"basic_string", metadata !"basic_string", metadata !"", metadata !602, i32 465, metadata !1194, i1 false, i1 false, i32 0, i32 0, null, i32 256, i1 false, null, null, i32 0, metadata !1196} ; [ DW_TAG_subprogram ]
!1194 = metadata !{i32 720917, i32 0, metadata !"", i32 0, i32 0, i64 0, i64 0, i32 0, i32 0, i32 0, metadata !1195, i32 0, i32 0} ; [ DW_TAG_subroutine_type ]
!1195 = metadata !{null, metadata !1009, metadata !1185, metadata !1022, metadata !1022, metadata !996}
!1196 = metadata !{metadata !1197}
!1197 = metadata !{i32 720932}                    ; [ DW_TAG_base_type ]
!1198 = metadata !{i32 720942, i32 0, metadata !898, metadata !"basic_string", metadata !"basic_string", metadata !"", metadata !602, i32 477, metadata !1199, i1 false, i1 false, i32 0, i32 0, null, i32 256, i1 false, null, null, i32 0, metadata !1201} ; [ DW_TAG_subprogram ]
!1199 = metadata !{i32 720917, i32 0, metadata !"", i32 0, i32 0, i64 0, i64 0, i32 0, i32 0, i32 0, metadata !1200, i32 0, i32 0} ; [ DW_TAG_subroutine_type ]
!1200 = metadata !{null, metadata !1009, metadata !753, metadata !1022, metadata !996}
!1201 = metadata !{metadata !1202}
!1202 = metadata !{i32 720932}                    ; [ DW_TAG_base_type ]
!1203 = metadata !{i32 720942, i32 0, metadata !898, metadata !"basic_string", metadata !"basic_string", metadata !"", metadata !602, i32 484, metadata !1204, i1 false, i1 false, i32 0, i32 0, null, i32 256, i1 false, null, null, i32 0, metadata !1206} ; [ DW_TAG_subprogram ]
!1204 = metadata !{i32 720917, i32 0, metadata !"", i32 0, i32 0, i64 0, i64 0, i32 0, i32 0, i32 0, metadata !1205, i32 0, i32 0} ; [ DW_TAG_subroutine_type ]
!1205 = metadata !{null, metadata !1009, metadata !753, metadata !996}
!1206 = metadata !{metadata !1207}
!1207 = metadata !{i32 720932}                    ; [ DW_TAG_base_type ]
!1208 = metadata !{i32 720942, i32 0, metadata !898, metadata !"basic_string", metadata !"basic_string", metadata !"", metadata !602, i32 491, metadata !1209, i1 false, i1 false, i32 0, i32 0, null, i32 256, i1 false, null, null, i32 0, metadata !1211} ; [ DW_TAG_subprogram ]
!1209 = metadata !{i32 720917, i32 0, metadata !"", i32 0, i32 0, i64 0, i64 0, i32 0, i32 0, i32 0, metadata !1210, i32 0, i32 0} ; [ DW_TAG_subroutine_type ]
!1210 = metadata !{null, metadata !1009, metadata !1022, metadata !62, metadata !996}
!1211 = metadata !{metadata !1212}
!1212 = metadata !{i32 720932}                    ; [ DW_TAG_base_type ]
!1213 = metadata !{i32 720942, i32 0, metadata !898, metadata !"~basic_string", metadata !"~basic_string", metadata !"", metadata !602, i32 532, metadata !1102, i1 false, i1 false, i32 0, i32 0, null, i32 256, i1 false, null, null, i32 0, metadata !1214} ; [ DW_TAG_subprogram ]
!1214 = metadata !{metadata !1215}
!1215 = metadata !{i32 720932}                    ; [ DW_TAG_base_type ]
!1216 = metadata !{i32 720942, i32 0, metadata !898, metadata !"operator=", metadata !"operator=", metadata !"_ZNSsaSERKSs", metadata !602, i32 540, metadata !1217, i1 false, i1 false, i32 0, i32 0, null, i32 256, i1 false, null, null, i32 0, metadata !1220} ; [ DW_TAG_subprogram ]
!1217 = metadata !{i32 720917, i32 0, metadata !"", i32 0, i32 0, i64 0, i64 0, i32 0, i32 0, i32 0, metadata !1218, i32 0, i32 0} ; [ DW_TAG_subroutine_type ]
!1218 = metadata !{metadata !1219, metadata !1009, metadata !1185}
!1219 = metadata !{i32 720912, null, null, null, i32 0, i64 0, i64 0, i64 0, i32 0, metadata !898} ; [ DW_TAG_reference_type ]
!1220 = metadata !{metadata !1221}
!1221 = metadata !{i32 720932}                    ; [ DW_TAG_base_type ]
!1222 = metadata !{i32 720942, i32 0, metadata !898, metadata !"operator=", metadata !"operator=", metadata !"_ZNSsaSEPKc", metadata !602, i32 548, metadata !1223, i1 false, i1 false, i32 0, i32 0, null, i32 256, i1 false, null, null, i32 0, metadata !1225} ; [ DW_TAG_subprogram ]
!1223 = metadata !{i32 720917, i32 0, metadata !"", i32 0, i32 0, i64 0, i64 0, i32 0, i32 0, i32 0, metadata !1224, i32 0, i32 0} ; [ DW_TAG_subroutine_type ]
!1224 = metadata !{metadata !1219, metadata !1009, metadata !753}
!1225 = metadata !{metadata !1226}
!1226 = metadata !{i32 720932}                    ; [ DW_TAG_base_type ]
!1227 = metadata !{i32 720942, i32 0, metadata !898, metadata !"operator=", metadata !"operator=", metadata !"_ZNSsaSEc", metadata !602, i32 559, metadata !1228, i1 false, i1 false, i32 0, i32 0, null, i32 256, i1 false, null, null, i32 0, metadata !1230} ; [ DW_TAG_subprogram ]
!1228 = metadata !{i32 720917, i32 0, metadata !"", i32 0, i32 0, i64 0, i64 0, i32 0, i32 0, i32 0, metadata !1229, i32 0, i32 0} ; [ DW_TAG_subroutine_type ]
!1229 = metadata !{metadata !1219, metadata !1009, metadata !62}
!1230 = metadata !{metadata !1231}
!1231 = metadata !{i32 720932}                    ; [ DW_TAG_base_type ]
!1232 = metadata !{i32 720942, i32 0, metadata !898, metadata !"begin", metadata !"begin", metadata !"_ZNSs5beginEv", metadata !602, i32 599, metadata !1233, i1 false, i1 false, i32 0, i32 0, null, i32 256, i1 false, null, null, i32 0, metadata !1235} ; [ DW_TAG_subprogram ]
!1233 = metadata !{i32 720917, i32 0, metadata !"", i32 0, i32 0, i64 0, i64 0, i32 0, i32 0, i32 0, metadata !1234, i32 0, i32 0} ; [ DW_TAG_subroutine_type ]
!1234 = metadata !{metadata !1092, metadata !1009}
!1235 = metadata !{metadata !1236}
!1236 = metadata !{i32 720932}                    ; [ DW_TAG_base_type ]
!1237 = metadata !{i32 720942, i32 0, metadata !898, metadata !"begin", metadata !"begin", metadata !"_ZNKSs5beginEv", metadata !602, i32 610, metadata !1238, i1 false, i1 false, i32 0, i32 0, null, i32 256, i1 false, null, null, i32 0, metadata !1240} ; [ DW_TAG_subprogram ]
!1238 = metadata !{i32 720917, i32 0, metadata !"", i32 0, i32 0, i64 0, i64 0, i32 0, i32 0, i32 0, metadata !1239, i32 0, i32 0} ; [ DW_TAG_subroutine_type ]
!1239 = metadata !{metadata !1147, metadata !1002}
!1240 = metadata !{metadata !1241}
!1241 = metadata !{i32 720932}                    ; [ DW_TAG_base_type ]
!1242 = metadata !{i32 720942, i32 0, metadata !898, metadata !"end", metadata !"end", metadata !"_ZNSs3endEv", metadata !602, i32 618, metadata !1233, i1 false, i1 false, i32 0, i32 0, null, i32 256, i1 false, null, null, i32 0, metadata !1243} ; [ DW_TAG_subprogram ]
!1243 = metadata !{metadata !1244}
!1244 = metadata !{i32 720932}                    ; [ DW_TAG_base_type ]
!1245 = metadata !{i32 720942, i32 0, metadata !898, metadata !"end", metadata !"end", metadata !"_ZNKSs3endEv", metadata !602, i32 629, metadata !1238, i1 false, i1 false, i32 0, i32 0, null, i32 256, i1 false, null, null, i32 0, metadata !1246} ; [ DW_TAG_subprogram ]
!1246 = metadata !{metadata !1247}
!1247 = metadata !{i32 720932}                    ; [ DW_TAG_base_type ]
!1248 = metadata !{i32 720942, i32 0, metadata !898, metadata !"rbegin", metadata !"rbegin", metadata !"_ZNSs6rbeginEv", metadata !602, i32 638, metadata !1249, i1 false, i1 false, i32 0, i32 0, null, i32 256, i1 false, null, null, i32 0, metadata !1254} ; [ DW_TAG_subprogram ]
!1249 = metadata !{i32 720917, i32 0, metadata !"", i32 0, i32 0, i64 0, i64 0, i32 0, i32 0, i32 0, metadata !1250, i32 0, i32 0} ; [ DW_TAG_subroutine_type ]
!1250 = metadata !{metadata !1251, metadata !1009}
!1251 = metadata !{i32 720918, metadata !898, metadata !"reverse_iterator", metadata !899, i32 125, i64 0, i64 0, i64 0, i32 0, metadata !1252} ; [ DW_TAG_typedef ]
!1252 = metadata !{i32 720915, metadata !1253, metadata !"reverse_iterator", metadata !1095, i32 97, i64 0, i64 0, i32 0, i32 4, i32 0, null, i32 0, i32 0} ; [ DW_TAG_structure_type ]
!1253 = metadata !{i32 720953, null, metadata !"std", metadata !1095, i32 68} ; [ DW_TAG_namespace ]
!1254 = metadata !{metadata !1255}
!1255 = metadata !{i32 720932}                    ; [ DW_TAG_base_type ]
!1256 = metadata !{i32 720942, i32 0, metadata !898, metadata !"rbegin", metadata !"rbegin", metadata !"_ZNKSs6rbeginEv", metadata !602, i32 647, metadata !1257, i1 false, i1 false, i32 0, i32 0, null, i32 256, i1 false, null, null, i32 0, metadata !1260} ; [ DW_TAG_subprogram ]
!1257 = metadata !{i32 720917, i32 0, metadata !"", i32 0, i32 0, i64 0, i64 0, i32 0, i32 0, i32 0, metadata !1258, i32 0, i32 0} ; [ DW_TAG_subroutine_type ]
!1258 = metadata !{metadata !1259, metadata !1002}
!1259 = metadata !{i32 720918, metadata !898, metadata !"const_reverse_iterator", metadata !899, i32 124, i64 0, i64 0, i64 0, i32 0, metadata !1252} ; [ DW_TAG_typedef ]
!1260 = metadata !{metadata !1261}
!1261 = metadata !{i32 720932}                    ; [ DW_TAG_base_type ]
!1262 = metadata !{i32 720942, i32 0, metadata !898, metadata !"rend", metadata !"rend", metadata !"_ZNSs4rendEv", metadata !602, i32 656, metadata !1249, i1 false, i1 false, i32 0, i32 0, null, i32 256, i1 false, null, null, i32 0, metadata !1263} ; [ DW_TAG_subprogram ]
!1263 = metadata !{metadata !1264}
!1264 = metadata !{i32 720932}                    ; [ DW_TAG_base_type ]
!1265 = metadata !{i32 720942, i32 0, metadata !898, metadata !"rend", metadata !"rend", metadata !"_ZNKSs4rendEv", metadata !602, i32 665, metadata !1257, i1 false, i1 false, i32 0, i32 0, null, i32 256, i1 false, null, null, i32 0, metadata !1266} ; [ DW_TAG_subprogram ]
!1266 = metadata !{metadata !1267}
!1267 = metadata !{i32 720932}                    ; [ DW_TAG_base_type ]
!1268 = metadata !{i32 720942, i32 0, metadata !898, metadata !"size", metadata !"size", metadata !"_ZNKSs4sizeEv", metadata !602, i32 709, metadata !1269, i1 false, i1 false, i32 0, i32 0, null, i32 256, i1 false, null, null, i32 0, metadata !1271} ; [ DW_TAG_subprogram ]
!1269 = metadata !{i32 720917, i32 0, metadata !"", i32 0, i32 0, i64 0, i64 0, i32 0, i32 0, i32 0, metadata !1270, i32 0, i32 0} ; [ DW_TAG_subroutine_type ]
!1270 = metadata !{metadata !1022, metadata !1002}
!1271 = metadata !{metadata !1272}
!1272 = metadata !{i32 720932}                    ; [ DW_TAG_base_type ]
!1273 = metadata !{i32 720942, i32 0, metadata !898, metadata !"length", metadata !"length", metadata !"_ZNKSs6lengthEv", metadata !602, i32 715, metadata !1269, i1 false, i1 false, i32 0, i32 0, null, i32 256, i1 false, null, null, i32 0, metadata !1274} ; [ DW_TAG_subprogram ]
!1274 = metadata !{metadata !1275}
!1275 = metadata !{i32 720932}                    ; [ DW_TAG_base_type ]
!1276 = metadata !{i32 720942, i32 0, metadata !898, metadata !"max_size", metadata !"max_size", metadata !"_ZNKSs8max_sizeEv", metadata !602, i32 720, metadata !1269, i1 false, i1 false, i32 0, i32 0, null, i32 256, i1 false, null, null, i32 0, metadata !1277} ; [ DW_TAG_subprogram ]
!1277 = metadata !{metadata !1278}
!1278 = metadata !{i32 720932}                    ; [ DW_TAG_base_type ]
!1279 = metadata !{i32 720942, i32 0, metadata !898, metadata !"resize", metadata !"resize", metadata !"_ZNSs6resizeEjc", metadata !602, i32 734, metadata !1280, i1 false, i1 false, i32 0, i32 0, null, i32 256, i1 false, null, null, i32 0, metadata !1282} ; [ DW_TAG_subprogram ]
!1280 = metadata !{i32 720917, i32 0, metadata !"", i32 0, i32 0, i64 0, i64 0, i32 0, i32 0, i32 0, metadata !1281, i32 0, i32 0} ; [ DW_TAG_subroutine_type ]
!1281 = metadata !{null, metadata !1009, metadata !1022, metadata !62}
!1282 = metadata !{metadata !1283}
!1283 = metadata !{i32 720932}                    ; [ DW_TAG_base_type ]
!1284 = metadata !{i32 720942, i32 0, metadata !898, metadata !"resize", metadata !"resize", metadata !"_ZNSs6resizeEj", metadata !602, i32 747, metadata !1285, i1 false, i1 false, i32 0, i32 0, null, i32 256, i1 false, null, null, i32 0, metadata !1287} ; [ DW_TAG_subprogram ]
!1285 = metadata !{i32 720917, i32 0, metadata !"", i32 0, i32 0, i64 0, i64 0, i32 0, i32 0, i32 0, metadata !1286, i32 0, i32 0} ; [ DW_TAG_subroutine_type ]
